
C:/pico/test/build/HMI.elf:     file format elf32-littlearm

Sections:
Idx Name          Size      VMA       LMA       File off  Algn
  0 .boot2        00000100  10000000  10000000  00001000  2**0
                  CONTENTS, ALLOC, LOAD, READONLY, CODE
  1 .text         0000b160  10000100  10000100  00001100  2**3
                  CONTENTS, ALLOC, LOAD, READONLY, CODE
  2 .rodata       00007b48  1000b260  1000b260  0000c260  2**3
                  CONTENTS, ALLOC, LOAD, READONLY, DATA
  3 .binary_info  00000020  10012da8  10012da8  00013da8  2**2
                  CONTENTS, ALLOC, LOAD, DATA
  4 .ram_vector_table 000000c0  20000000  20000000  000145a0  2**2
                  CONTENTS
  5 .data         000004e0  200000c0  10012dc8  000140c0  2**4
                  CONTENTS, ALLOC, LOAD, READONLY, CODE
  6 .uninitialized_data 00000000  200005a0  200005a0  00014660  2**0
                  CONTENTS
  7 .scratch_x    00000000  20040000  20040000  00014660  2**0
                  CONTENTS
  8 .scratch_y    00000000  20041000  20041000  00014660  2**0
                  CONTENTS
  9 .bss          000265f8  200005a0  200005a0  000145a0  2**3
                  ALLOC
 10 .heap         00000800  20026b98  20026b98  00014660  2**2
                  CONTENTS, READONLY
 11 .stack_dummy  00000800  20041000  20041000  00014e60  2**5
                  CONTENTS, READONLY
 12 .ARM.attributes 00000028  00000000  00000000  00015660  2**0
                  CONTENTS, READONLY
 13 .comment      00000049  00000000  00000000  00015688  2**0
                  CONTENTS, READONLY
 14 .debug_frame  00000058  00000000  00000000  000156d4  2**2
                  CONTENTS, READONLY, DEBUGGING, OCTETS

C:/pico/test/build/HMI.elf:     file format elf32-littlearm


Disassembly of section .boot2:

10000000 <__boot2_start__>:
10000000:	4b32b500 	.word	0x4b32b500
10000004:	60582021 	.word	0x60582021
10000008:	21026898 	.word	0x21026898
1000000c:	60984388 	.word	0x60984388
10000010:	611860d8 	.word	0x611860d8
10000014:	4b2e6158 	.word	0x4b2e6158
10000018:	60992100 	.word	0x60992100
1000001c:	61592102 	.word	0x61592102
10000020:	22f02101 	.word	0x22f02101
10000024:	492b5099 	.word	0x492b5099
10000028:	21016019 	.word	0x21016019
1000002c:	20356099 	.word	0x20356099
10000030:	f844f000 	.word	0xf844f000
10000034:	42902202 	.word	0x42902202
10000038:	2106d014 	.word	0x2106d014
1000003c:	f0006619 	.word	0xf0006619
10000040:	6e19f834 	.word	0x6e19f834
10000044:	66192101 	.word	0x66192101
10000048:	66182000 	.word	0x66182000
1000004c:	f000661a 	.word	0xf000661a
10000050:	6e19f82c 	.word	0x6e19f82c
10000054:	6e196e19 	.word	0x6e196e19
10000058:	f0002005 	.word	0xf0002005
1000005c:	2101f82f 	.word	0x2101f82f
10000060:	d1f94208 	.word	0xd1f94208
10000064:	60992100 	.word	0x60992100
10000068:	6019491b 	.word	0x6019491b
1000006c:	60592100 	.word	0x60592100
10000070:	481b491a 	.word	0x481b491a
10000074:	21016001 	.word	0x21016001
10000078:	21eb6099 	.word	0x21eb6099
1000007c:	21a06619 	.word	0x21a06619
10000080:	f0006619 	.word	0xf0006619
10000084:	2100f812 	.word	0x2100f812
10000088:	49166099 	.word	0x49166099
1000008c:	60014814 	.word	0x60014814
10000090:	60992101 	.word	0x60992101
10000094:	2800bc01 	.word	0x2800bc01
10000098:	4700d000 	.word	0x4700d000
1000009c:	49134812 	.word	0x49134812
100000a0:	c8036008 	.word	0xc8036008
100000a4:	8808f380 	.word	0x8808f380
100000a8:	b5034708 	.word	0xb5034708
100000ac:	20046a99 	.word	0x20046a99
100000b0:	d0fb4201 	.word	0xd0fb4201
100000b4:	42012001 	.word	0x42012001
100000b8:	bd03d1f8 	.word	0xbd03d1f8
100000bc:	6618b502 	.word	0x6618b502
100000c0:	f7ff6618 	.word	0xf7ff6618
100000c4:	6e18fff2 	.word	0x6e18fff2
100000c8:	bd026e18 	.word	0xbd026e18
100000cc:	40020000 	.word	0x40020000
100000d0:	18000000 	.word	0x18000000
100000d4:	00070000 	.word	0x00070000
100000d8:	005f0300 	.word	0x005f0300
100000dc:	00002221 	.word	0x00002221
100000e0:	180000f4 	.word	0x180000f4
100000e4:	a0002022 	.word	0xa0002022
100000e8:	10000100 	.word	0x10000100
100000ec:	e000ed08 	.word	0xe000ed08
	...
100000fc:	7a4eb274 	.word	0x7a4eb274

Disassembly of section .text:

10000100 <__VECTOR_TABLE>:
10000100:	20042000 	.word	0x20042000
10000104:	100001f7 	.word	0x100001f7
10000108:	100001c3 	.word	0x100001c3
1000010c:	100001c5 	.word	0x100001c5
10000110:	100001c1 	.word	0x100001c1
10000114:	100001c1 	.word	0x100001c1
10000118:	100001c1 	.word	0x100001c1
1000011c:	100001c1 	.word	0x100001c1
10000120:	100001c1 	.word	0x100001c1
10000124:	100001c1 	.word	0x100001c1
10000128:	100001c1 	.word	0x100001c1
1000012c:	100001c7 	.word	0x100001c7
10000130:	100001c1 	.word	0x100001c1
10000134:	100001c1 	.word	0x100001c1
10000138:	100001c9 	.word	0x100001c9
1000013c:	100001cb 	.word	0x100001cb
10000140:	100001cd 	.word	0x100001cd
10000144:	100001cd 	.word	0x100001cd
10000148:	100001cd 	.word	0x100001cd
1000014c:	100001cd 	.word	0x100001cd
10000150:	100001cd 	.word	0x100001cd
10000154:	100001cd 	.word	0x100001cd
10000158:	100001cd 	.word	0x100001cd
1000015c:	100001cd 	.word	0x100001cd
10000160:	100001cd 	.word	0x100001cd
10000164:	100001cd 	.word	0x100001cd
10000168:	100001cd 	.word	0x100001cd
1000016c:	100001cd 	.word	0x100001cd
10000170:	100001cd 	.word	0x100001cd
10000174:	100001cd 	.word	0x100001cd
10000178:	100001cd 	.word	0x100001cd
1000017c:	100001cd 	.word	0x100001cd
10000180:	100001cd 	.word	0x100001cd
10000184:	100001cd 	.word	0x100001cd
10000188:	100001cd 	.word	0x100001cd
1000018c:	100001cd 	.word	0x100001cd
10000190:	100001cd 	.word	0x100001cd
10000194:	100001cd 	.word	0x100001cd
10000198:	100001cd 	.word	0x100001cd
1000019c:	100001cd 	.word	0x100001cd
100001a0:	100001cd 	.word	0x100001cd
100001a4:	100001cd 	.word	0x100001cd
100001a8:	100001cd 	.word	0x100001cd
100001ac:	100001cd 	.word	0x100001cd
100001b0:	100001cd 	.word	0x100001cd
100001b4:	100001cd 	.word	0x100001cd
100001b8:	100001cd 	.word	0x100001cd
100001bc:	100001cd 	.word	0x100001cd

100001c0 <isr_invalid>:
100001c0:	be00      	bkpt	0x0000

100001c2 <isr_nmi>:
100001c2:	be00      	bkpt	0x0000

100001c4 <isr_hardfault>:
100001c4:	be00      	bkpt	0x0000

100001c6 <isr_svcall>:
100001c6:	be00      	bkpt	0x0000

100001c8 <isr_pendsv>:
100001c8:	be00      	bkpt	0x0000

100001ca <isr_systick>:
100001ca:	be00      	bkpt	0x0000

100001cc <__unhandled_user_irq>:
100001cc:	f000 f84b 	bl	10000266 <__get_current_exception>
100001d0:	3810      	subs	r0, #16

100001d2 <unhandled_user_irq_num_in_r0>:
100001d2:	be00      	bkpt	0x0000

100001d4 <binary_info_header>:
100001d4:	7188ebf2 	.word	0x7188ebf2
100001d8:	10012da8 	.word	0x10012da8
100001dc:	10012dc8 	.word	0x10012dc8
100001e0:	10000234 	.word	0x10000234
100001e4:	e71aa390 	.word	0xe71aa390

100001e8 <_entry_point>:
100001e8:	2000      	movs	r0, #0
100001ea:	4921      	ldr	r1, [pc, #132]	; (10000270 <__get_current_exception+0xa>)
100001ec:	6008      	str	r0, [r1, #0]
100001ee:	c806      	ldmia	r0!, {r1, r2}
100001f0:	f381 8808 	msr	MSP, r1
100001f4:	4710      	bx	r2

100001f6 <_reset_handler>:
100001f6:	481f      	ldr	r0, [pc, #124]	; (10000274 <__get_current_exception+0xe>)
100001f8:	6800      	ldr	r0, [r0, #0]
100001fa:	2800      	cmp	r0, #0
100001fc:	d12f      	bne.n	1000025e <hold_non_core0_in_bootrom>
100001fe:	a40d      	add	r4, pc, #52	; (adr r4, 10000234 <data_cpy_table>)
10000200:	cc0e      	ldmia	r4!, {r1, r2, r3}
10000202:	2900      	cmp	r1, #0
10000204:	d002      	beq.n	1000020c <_reset_handler+0x16>
10000206:	f000 f812 	bl	1000022e <data_cpy>
1000020a:	e7f9      	b.n	10000200 <_reset_handler+0xa>
1000020c:	491a      	ldr	r1, [pc, #104]	; (10000278 <__get_current_exception+0x12>)
1000020e:	4a1b      	ldr	r2, [pc, #108]	; (1000027c <__get_current_exception+0x16>)
10000210:	2000      	movs	r0, #0
10000212:	e000      	b.n	10000216 <bss_fill_test>

10000214 <bss_fill_loop>:
10000214:	c101      	stmia	r1!, {r0}

10000216 <bss_fill_test>:
10000216:	4291      	cmp	r1, r2
10000218:	d1fc      	bne.n	10000214 <bss_fill_loop>

1000021a <platform_entry>:
1000021a:	4919      	ldr	r1, [pc, #100]	; (10000280 <__get_current_exception+0x1a>)
1000021c:	4788      	blx	r1
1000021e:	4919      	ldr	r1, [pc, #100]	; (10000284 <__get_current_exception+0x1e>)
10000220:	4788      	blx	r1
10000222:	4919      	ldr	r1, [pc, #100]	; (10000288 <__get_current_exception+0x22>)
10000224:	4788      	blx	r1
10000226:	be00      	bkpt	0x0000
10000228:	e7fd      	b.n	10000226 <platform_entry+0xc>

1000022a <data_cpy_loop>:
1000022a:	c901      	ldmia	r1!, {r0}
1000022c:	c201      	stmia	r2!, {r0}

1000022e <data_cpy>:
1000022e:	429a      	cmp	r2, r3
10000230:	d3fb      	bcc.n	1000022a <data_cpy_loop>
10000232:	4770      	bx	lr

10000234 <data_cpy_table>:
10000234:	10012dc8 	.word	0x10012dc8
10000238:	200000c0 	.word	0x200000c0
1000023c:	200005a0 	.word	0x200005a0
10000240:	100132a8 	.word	0x100132a8
10000244:	20040000 	.word	0x20040000
10000248:	20040000 	.word	0x20040000
1000024c:	100132a8 	.word	0x100132a8
10000250:	20041000 	.word	0x20041000
10000254:	20041000 	.word	0x20041000
10000258:	00000000 	.word	0x00000000
1000025c:	4770      	bx	lr

1000025e <hold_non_core0_in_bootrom>:
1000025e:	480b      	ldr	r0, [pc, #44]	; (1000028c <__get_current_exception+0x26>)
10000260:	f007 f87c 	bl	1000735c <rom_func_lookup>
10000264:	4700      	bx	r0

10000266 <__get_current_exception>:
10000266:	f3ef 8005 	mrs	r0, IPSR
1000026a:	b2c0      	uxtb	r0, r0
1000026c:	4770      	bx	lr
1000026e:	0000      	.short	0x0000
10000270:	e000ed08 	.word	0xe000ed08
10000274:	d0000000 	.word	0xd0000000
10000278:	200005a0 	.word	0x200005a0
1000027c:	20026b98 	.word	0x20026b98
10000280:	100057e9 	.word	0x100057e9
10000284:	1000030d 	.word	0x1000030d
10000288:	100058d9 	.word	0x100058d9
1000028c:	00005657 	.word	0x00005657

10000290 <__bi_50>:
10000290:	50520006 5360b3ab 10012b70              ..RP..`Sp+..

1000029c <__bi_38>:
1000029c:	50520006 02031c86 10012b80              ..RP.....+..

100002a8 <__bi_30>:
100002a8:	50520006 9da22254 10012b84              ..RPT"...+..

100002b4 <__bi_22>:
100002b4:	50520005 68f465de 100132a8              ..RP.e.h.2..

100002c0 <_init>:
100002c0:	b5f8      	push	{r3, r4, r5, r6, r7, lr}
100002c2:	46c0      	nop			; (mov r8, r8)

100002c4 <__do_global_dtors_aux>:
100002c4:	b510      	push	{r4, lr}
100002c6:	4c06      	ldr	r4, [pc, #24]	; (100002e0 <__do_global_dtors_aux+0x1c>)
100002c8:	7823      	ldrb	r3, [r4, #0]
100002ca:	2b00      	cmp	r3, #0
100002cc:	d107      	bne.n	100002de <__do_global_dtors_aux+0x1a>
100002ce:	4b05      	ldr	r3, [pc, #20]	; (100002e4 <__do_global_dtors_aux+0x20>)
100002d0:	2b00      	cmp	r3, #0
100002d2:	d002      	beq.n	100002da <__do_global_dtors_aux+0x16>
100002d4:	4804      	ldr	r0, [pc, #16]	; (100002e8 <__do_global_dtors_aux+0x24>)
100002d6:	e000      	b.n	100002da <__do_global_dtors_aux+0x16>
100002d8:	bf00      	nop
100002da:	2301      	movs	r3, #1
100002dc:	7023      	strb	r3, [r4, #0]
100002de:	bd10      	pop	{r4, pc}
100002e0:	200008a8 	.word	0x200008a8
100002e4:	00000000 	.word	0x00000000
100002e8:	1000b260 	.word	0x1000b260

100002ec <frame_dummy>:
100002ec:	4b04      	ldr	r3, [pc, #16]	; (10000300 <frame_dummy+0x14>)
100002ee:	b510      	push	{r4, lr}
100002f0:	2b00      	cmp	r3, #0
100002f2:	d003      	beq.n	100002fc <frame_dummy+0x10>
100002f4:	4903      	ldr	r1, [pc, #12]	; (10000304 <frame_dummy+0x18>)
100002f6:	4804      	ldr	r0, [pc, #16]	; (10000308 <frame_dummy+0x1c>)
100002f8:	e000      	b.n	100002fc <frame_dummy+0x10>
100002fa:	bf00      	nop
100002fc:	bd10      	pop	{r4, pc}
100002fe:	46c0      	nop			; (mov r8, r8)
10000300:	00000000 	.word	0x00000000
10000304:	200008ac 	.word	0x200008ac
10000308:	1000b260 	.word	0x1000b260

1000030c <main>:
1000030c:	b510      	push	{r4, lr}
1000030e:	f008 f9c7 	bl	100086a0 <stdio_init_all>
10000312:	f002 fdf9 	bl	10002f08 <InterfaceSetup>
10000316:	f001 fb9f 	bl	10001a58 <GPU_Init>
1000031a:	f002 fe51 	bl	10002fc0 <DoMainLoop>
1000031e:	2000      	movs	r0, #0
10000320:	bd10      	pop	{r4, pc}
10000322:	46c0      	nop			; (mov r8, r8)

10000324 <ili9341_init_display>:
10000324:	b5f0      	push	{r4, r5, r6, r7, lr}
10000326:	46de      	mov	lr, fp
10000328:	4657      	mov	r7, sl
1000032a:	464e      	mov	r6, r9
1000032c:	4645      	mov	r5, r8
1000032e:	b5e0      	push	{r5, r6, r7, lr}
10000330:	b083      	sub	sp, #12
10000332:	46c0      	nop			; (mov r8, r8)
10000334:	46c0      	nop			; (mov r8, r8)
10000336:	46c0      	nop			; (mov r8, r8)
10000338:	24d0      	movs	r4, #208	; 0xd0
1000033a:	2680      	movs	r6, #128	; 0x80
1000033c:	0624      	lsls	r4, r4, #24
1000033e:	01b6      	lsls	r6, r6, #6
10000340:	61a6      	str	r6, [r4, #24]
10000342:	46c0      	nop			; (mov r8, r8)
10000344:	46c0      	nop			; (mov r8, r8)
10000346:	46c0      	nop			; (mov r8, r8)
10000348:	2780      	movs	r7, #128	; 0x80
1000034a:	25fa      	movs	r5, #250	; 0xfa
1000034c:	01ff      	lsls	r7, r7, #7
1000034e:	006d      	lsls	r5, r5, #1
10000350:	0028      	movs	r0, r5
10000352:	61a7      	str	r7, [r4, #24]
10000354:	f004 fe00 	bl	10004f58 <sleep_ms>
10000358:	0028      	movs	r0, r5
1000035a:	6167      	str	r7, [r4, #20]
1000035c:	f004 fdfc 	bl	10004f58 <sleep_ms>
10000360:	466b      	mov	r3, sp
10000362:	1ddd      	adds	r5, r3, #7
10000364:	23ef      	movs	r3, #239	; 0xef
10000366:	702b      	strb	r3, [r5, #0]
10000368:	46c0      	nop			; (mov r8, r8)
1000036a:	46c0      	nop			; (mov r8, r8)
1000036c:	46c0      	nop			; (mov r8, r8)
1000036e:	2780      	movs	r7, #128	; 0x80
10000370:	023f      	lsls	r7, r7, #8
10000372:	61a7      	str	r7, [r4, #24]
10000374:	46c0      	nop			; (mov r8, r8)
10000376:	46c0      	nop			; (mov r8, r8)
10000378:	46c0      	nop			; (mov r8, r8)
1000037a:	46c0      	nop			; (mov r8, r8)
1000037c:	46c0      	nop			; (mov r8, r8)
1000037e:	46c0      	nop			; (mov r8, r8)
10000380:	61a6      	str	r6, [r4, #24]
10000382:	46c0      	nop			; (mov r8, r8)
10000384:	46c0      	nop			; (mov r8, r8)
10000386:	46c0      	nop			; (mov r8, r8)
10000388:	4b9a      	ldr	r3, [pc, #616]	; (100005f4 <ili9341_init_display+0x2d0>)
1000038a:	2201      	movs	r2, #1
1000038c:	0029      	movs	r1, r5
1000038e:	0018      	movs	r0, r3
10000390:	4698      	mov	r8, r3
10000392:	f00a ff4d 	bl	1000b230 <__spi_write_blocking_veneer>
10000396:	46c0      	nop			; (mov r8, r8)
10000398:	46c0      	nop			; (mov r8, r8)
1000039a:	46c0      	nop			; (mov r8, r8)
1000039c:	6167      	str	r7, [r4, #20]
1000039e:	46c0      	nop			; (mov r8, r8)
100003a0:	46c0      	nop			; (mov r8, r8)
100003a2:	46c0      	nop			; (mov r8, r8)
100003a4:	46c0      	nop			; (mov r8, r8)
100003a6:	46c0      	nop			; (mov r8, r8)
100003a8:	46c0      	nop			; (mov r8, r8)
100003aa:	6166      	str	r6, [r4, #20]
100003ac:	46c0      	nop			; (mov r8, r8)
100003ae:	46c0      	nop			; (mov r8, r8)
100003b0:	46c0      	nop			; (mov r8, r8)
100003b2:	2303      	movs	r3, #3
100003b4:	469b      	mov	fp, r3
100003b6:	702b      	strb	r3, [r5, #0]
100003b8:	46c0      	nop			; (mov r8, r8)
100003ba:	46c0      	nop			; (mov r8, r8)
100003bc:	46c0      	nop			; (mov r8, r8)
100003be:	61a6      	str	r6, [r4, #24]
100003c0:	46c0      	nop			; (mov r8, r8)
100003c2:	46c0      	nop			; (mov r8, r8)
100003c4:	46c0      	nop			; (mov r8, r8)
100003c6:	46c0      	nop			; (mov r8, r8)
100003c8:	46c0      	nop			; (mov r8, r8)
100003ca:	46c0      	nop			; (mov r8, r8)
100003cc:	6167      	str	r7, [r4, #20]
100003ce:	46c0      	nop			; (mov r8, r8)
100003d0:	46c0      	nop			; (mov r8, r8)
100003d2:	46c0      	nop			; (mov r8, r8)
100003d4:	2201      	movs	r2, #1
100003d6:	0029      	movs	r1, r5
100003d8:	4640      	mov	r0, r8
100003da:	f00a ff29 	bl	1000b230 <__spi_write_blocking_veneer>
100003de:	46c0      	nop			; (mov r8, r8)
100003e0:	46c0      	nop			; (mov r8, r8)
100003e2:	46c0      	nop			; (mov r8, r8)
100003e4:	6166      	str	r6, [r4, #20]
100003e6:	46c0      	nop			; (mov r8, r8)
100003e8:	46c0      	nop			; (mov r8, r8)
100003ea:	46c0      	nop			; (mov r8, r8)
100003ec:	2380      	movs	r3, #128	; 0x80
100003ee:	702b      	strb	r3, [r5, #0]
100003f0:	46c0      	nop			; (mov r8, r8)
100003f2:	46c0      	nop			; (mov r8, r8)
100003f4:	46c0      	nop			; (mov r8, r8)
100003f6:	61a6      	str	r6, [r4, #24]
100003f8:	46c0      	nop			; (mov r8, r8)
100003fa:	46c0      	nop			; (mov r8, r8)
100003fc:	46c0      	nop			; (mov r8, r8)
100003fe:	46c0      	nop			; (mov r8, r8)
10000400:	46c0      	nop			; (mov r8, r8)
10000402:	46c0      	nop			; (mov r8, r8)
10000404:	6167      	str	r7, [r4, #20]
10000406:	46c0      	nop			; (mov r8, r8)
10000408:	46c0      	nop			; (mov r8, r8)
1000040a:	46c0      	nop			; (mov r8, r8)
1000040c:	2201      	movs	r2, #1
1000040e:	0029      	movs	r1, r5
10000410:	4640      	mov	r0, r8
10000412:	f00a ff0d 	bl	1000b230 <__spi_write_blocking_veneer>
10000416:	46c0      	nop			; (mov r8, r8)
10000418:	46c0      	nop			; (mov r8, r8)
1000041a:	46c0      	nop			; (mov r8, r8)
1000041c:	6166      	str	r6, [r4, #20]
1000041e:	46c0      	nop			; (mov r8, r8)
10000420:	46c0      	nop			; (mov r8, r8)
10000422:	46c0      	nop			; (mov r8, r8)
10000424:	2302      	movs	r3, #2
10000426:	469a      	mov	sl, r3
10000428:	702b      	strb	r3, [r5, #0]
1000042a:	46c0      	nop			; (mov r8, r8)
1000042c:	46c0      	nop			; (mov r8, r8)
1000042e:	46c0      	nop			; (mov r8, r8)
10000430:	61a6      	str	r6, [r4, #24]
10000432:	46c0      	nop			; (mov r8, r8)
10000434:	46c0      	nop			; (mov r8, r8)
10000436:	46c0      	nop			; (mov r8, r8)
10000438:	46c0      	nop			; (mov r8, r8)
1000043a:	46c0      	nop			; (mov r8, r8)
1000043c:	46c0      	nop			; (mov r8, r8)
1000043e:	6167      	str	r7, [r4, #20]
10000440:	46c0      	nop			; (mov r8, r8)
10000442:	46c0      	nop			; (mov r8, r8)
10000444:	46c0      	nop			; (mov r8, r8)
10000446:	2201      	movs	r2, #1
10000448:	0029      	movs	r1, r5
1000044a:	4640      	mov	r0, r8
1000044c:	f00a fef0 	bl	1000b230 <__spi_write_blocking_veneer>
10000450:	46c0      	nop			; (mov r8, r8)
10000452:	46c0      	nop			; (mov r8, r8)
10000454:	46c0      	nop			; (mov r8, r8)
10000456:	6166      	str	r6, [r4, #20]
10000458:	46c0      	nop			; (mov r8, r8)
1000045a:	46c0      	nop			; (mov r8, r8)
1000045c:	46c0      	nop			; (mov r8, r8)
1000045e:	23cf      	movs	r3, #207	; 0xcf
10000460:	702b      	strb	r3, [r5, #0]
10000462:	46c0      	nop			; (mov r8, r8)
10000464:	46c0      	nop			; (mov r8, r8)
10000466:	46c0      	nop			; (mov r8, r8)
10000468:	61a7      	str	r7, [r4, #24]
1000046a:	46c0      	nop			; (mov r8, r8)
1000046c:	46c0      	nop			; (mov r8, r8)
1000046e:	46c0      	nop			; (mov r8, r8)
10000470:	46c0      	nop			; (mov r8, r8)
10000472:	46c0      	nop			; (mov r8, r8)
10000474:	46c0      	nop			; (mov r8, r8)
10000476:	61a6      	str	r6, [r4, #24]
10000478:	46c0      	nop			; (mov r8, r8)
1000047a:	46c0      	nop			; (mov r8, r8)
1000047c:	46c0      	nop			; (mov r8, r8)
1000047e:	2201      	movs	r2, #1
10000480:	0029      	movs	r1, r5
10000482:	4640      	mov	r0, r8
10000484:	f00a fed4 	bl	1000b230 <__spi_write_blocking_veneer>
10000488:	46c0      	nop			; (mov r8, r8)
1000048a:	46c0      	nop			; (mov r8, r8)
1000048c:	46c0      	nop			; (mov r8, r8)
1000048e:	6167      	str	r7, [r4, #20]
10000490:	46c0      	nop			; (mov r8, r8)
10000492:	46c0      	nop			; (mov r8, r8)
10000494:	46c0      	nop			; (mov r8, r8)
10000496:	46c0      	nop			; (mov r8, r8)
10000498:	46c0      	nop			; (mov r8, r8)
1000049a:	46c0      	nop			; (mov r8, r8)
1000049c:	6166      	str	r6, [r4, #20]
1000049e:	46c0      	nop			; (mov r8, r8)
100004a0:	46c0      	nop			; (mov r8, r8)
100004a2:	46c0      	nop			; (mov r8, r8)
100004a4:	2300      	movs	r3, #0
100004a6:	4699      	mov	r9, r3
100004a8:	702b      	strb	r3, [r5, #0]
100004aa:	46c0      	nop			; (mov r8, r8)
100004ac:	46c0      	nop			; (mov r8, r8)
100004ae:	46c0      	nop			; (mov r8, r8)
100004b0:	61a6      	str	r6, [r4, #24]
100004b2:	46c0      	nop			; (mov r8, r8)
100004b4:	46c0      	nop			; (mov r8, r8)
100004b6:	46c0      	nop			; (mov r8, r8)
100004b8:	46c0      	nop			; (mov r8, r8)
100004ba:	46c0      	nop			; (mov r8, r8)
100004bc:	46c0      	nop			; (mov r8, r8)
100004be:	6167      	str	r7, [r4, #20]
100004c0:	46c0      	nop			; (mov r8, r8)
100004c2:	46c0      	nop			; (mov r8, r8)
100004c4:	46c0      	nop			; (mov r8, r8)
100004c6:	2201      	movs	r2, #1
100004c8:	0029      	movs	r1, r5
100004ca:	4640      	mov	r0, r8
100004cc:	f00a feb0 	bl	1000b230 <__spi_write_blocking_veneer>
100004d0:	46c0      	nop			; (mov r8, r8)
100004d2:	46c0      	nop			; (mov r8, r8)
100004d4:	46c0      	nop			; (mov r8, r8)
100004d6:	6166      	str	r6, [r4, #20]
100004d8:	46c0      	nop			; (mov r8, r8)
100004da:	46c0      	nop			; (mov r8, r8)
100004dc:	46c0      	nop			; (mov r8, r8)
100004de:	23c1      	movs	r3, #193	; 0xc1
100004e0:	702b      	strb	r3, [r5, #0]
100004e2:	46c0      	nop			; (mov r8, r8)
100004e4:	46c0      	nop			; (mov r8, r8)
100004e6:	46c0      	nop			; (mov r8, r8)
100004e8:	61a6      	str	r6, [r4, #24]
100004ea:	46c0      	nop			; (mov r8, r8)
100004ec:	46c0      	nop			; (mov r8, r8)
100004ee:	46c0      	nop			; (mov r8, r8)
100004f0:	46c0      	nop			; (mov r8, r8)
100004f2:	46c0      	nop			; (mov r8, r8)
100004f4:	46c0      	nop			; (mov r8, r8)
100004f6:	6167      	str	r7, [r4, #20]
100004f8:	46c0      	nop			; (mov r8, r8)
100004fa:	46c0      	nop			; (mov r8, r8)
100004fc:	46c0      	nop			; (mov r8, r8)
100004fe:	2201      	movs	r2, #1
10000500:	0029      	movs	r1, r5
10000502:	4640      	mov	r0, r8
10000504:	f00a fe94 	bl	1000b230 <__spi_write_blocking_veneer>
10000508:	46c0      	nop			; (mov r8, r8)
1000050a:	46c0      	nop			; (mov r8, r8)
1000050c:	46c0      	nop			; (mov r8, r8)
1000050e:	6166      	str	r6, [r4, #20]
10000510:	46c0      	nop			; (mov r8, r8)
10000512:	46c0      	nop			; (mov r8, r8)
10000514:	46c0      	nop			; (mov r8, r8)
10000516:	2330      	movs	r3, #48	; 0x30
10000518:	702b      	strb	r3, [r5, #0]
1000051a:	46c0      	nop			; (mov r8, r8)
1000051c:	46c0      	nop			; (mov r8, r8)
1000051e:	46c0      	nop			; (mov r8, r8)
10000520:	61a6      	str	r6, [r4, #24]
10000522:	46c0      	nop			; (mov r8, r8)
10000524:	46c0      	nop			; (mov r8, r8)
10000526:	46c0      	nop			; (mov r8, r8)
10000528:	46c0      	nop			; (mov r8, r8)
1000052a:	46c0      	nop			; (mov r8, r8)
1000052c:	46c0      	nop			; (mov r8, r8)
1000052e:	6167      	str	r7, [r4, #20]
10000530:	46c0      	nop			; (mov r8, r8)
10000532:	46c0      	nop			; (mov r8, r8)
10000534:	46c0      	nop			; (mov r8, r8)
10000536:	2201      	movs	r2, #1
10000538:	0029      	movs	r1, r5
1000053a:	4640      	mov	r0, r8
1000053c:	f00a fe78 	bl	1000b230 <__spi_write_blocking_veneer>
10000540:	46c0      	nop			; (mov r8, r8)
10000542:	46c0      	nop			; (mov r8, r8)
10000544:	46c0      	nop			; (mov r8, r8)
10000546:	6166      	str	r6, [r4, #20]
10000548:	46c0      	nop			; (mov r8, r8)
1000054a:	46c0      	nop			; (mov r8, r8)
1000054c:	46c0      	nop			; (mov r8, r8)
1000054e:	23ed      	movs	r3, #237	; 0xed
10000550:	702b      	strb	r3, [r5, #0]
10000552:	46c0      	nop			; (mov r8, r8)
10000554:	46c0      	nop			; (mov r8, r8)
10000556:	46c0      	nop			; (mov r8, r8)
10000558:	61a7      	str	r7, [r4, #24]
1000055a:	46c0      	nop			; (mov r8, r8)
1000055c:	46c0      	nop			; (mov r8, r8)
1000055e:	46c0      	nop			; (mov r8, r8)
10000560:	46c0      	nop			; (mov r8, r8)
10000562:	46c0      	nop			; (mov r8, r8)
10000564:	46c0      	nop			; (mov r8, r8)
10000566:	61a6      	str	r6, [r4, #24]
10000568:	46c0      	nop			; (mov r8, r8)
1000056a:	46c0      	nop			; (mov r8, r8)
1000056c:	46c0      	nop			; (mov r8, r8)
1000056e:	2201      	movs	r2, #1
10000570:	0029      	movs	r1, r5
10000572:	4640      	mov	r0, r8
10000574:	f00a fe5c 	bl	1000b230 <__spi_write_blocking_veneer>
10000578:	46c0      	nop			; (mov r8, r8)
1000057a:	46c0      	nop			; (mov r8, r8)
1000057c:	46c0      	nop			; (mov r8, r8)
1000057e:	6167      	str	r7, [r4, #20]
10000580:	46c0      	nop			; (mov r8, r8)
10000582:	46c0      	nop			; (mov r8, r8)
10000584:	46c0      	nop			; (mov r8, r8)
10000586:	46c0      	nop			; (mov r8, r8)
10000588:	46c0      	nop			; (mov r8, r8)
1000058a:	46c0      	nop			; (mov r8, r8)
1000058c:	6166      	str	r6, [r4, #20]
1000058e:	46c0      	nop			; (mov r8, r8)
10000590:	46c0      	nop			; (mov r8, r8)
10000592:	46c0      	nop			; (mov r8, r8)
10000594:	2364      	movs	r3, #100	; 0x64
10000596:	702b      	strb	r3, [r5, #0]
10000598:	46c0      	nop			; (mov r8, r8)
1000059a:	46c0      	nop			; (mov r8, r8)
1000059c:	46c0      	nop			; (mov r8, r8)
1000059e:	61a6      	str	r6, [r4, #24]
100005a0:	46c0      	nop			; (mov r8, r8)
100005a2:	46c0      	nop			; (mov r8, r8)
100005a4:	46c0      	nop			; (mov r8, r8)
100005a6:	46c0      	nop			; (mov r8, r8)
100005a8:	46c0      	nop			; (mov r8, r8)
100005aa:	46c0      	nop			; (mov r8, r8)
100005ac:	6167      	str	r7, [r4, #20]
100005ae:	46c0      	nop			; (mov r8, r8)
100005b0:	46c0      	nop			; (mov r8, r8)
100005b2:	46c0      	nop			; (mov r8, r8)
100005b4:	2201      	movs	r2, #1
100005b6:	0029      	movs	r1, r5
100005b8:	4640      	mov	r0, r8
100005ba:	f00a fe39 	bl	1000b230 <__spi_write_blocking_veneer>
100005be:	46c0      	nop			; (mov r8, r8)
100005c0:	46c0      	nop			; (mov r8, r8)
100005c2:	46c0      	nop			; (mov r8, r8)
100005c4:	6166      	str	r6, [r4, #20]
100005c6:	46c0      	nop			; (mov r8, r8)
100005c8:	46c0      	nop			; (mov r8, r8)
100005ca:	46c0      	nop			; (mov r8, r8)
100005cc:	465a      	mov	r2, fp
100005ce:	702a      	strb	r2, [r5, #0]
100005d0:	46c0      	nop			; (mov r8, r8)
100005d2:	46c0      	nop			; (mov r8, r8)
100005d4:	46c0      	nop			; (mov r8, r8)
100005d6:	61a6      	str	r6, [r4, #24]
100005d8:	46c0      	nop			; (mov r8, r8)
100005da:	46c0      	nop			; (mov r8, r8)
100005dc:	46c0      	nop			; (mov r8, r8)
100005de:	46c0      	nop			; (mov r8, r8)
100005e0:	46c0      	nop			; (mov r8, r8)
100005e2:	46c0      	nop			; (mov r8, r8)
100005e4:	6167      	str	r7, [r4, #20]
100005e6:	46c0      	nop			; (mov r8, r8)
100005e8:	46c0      	nop			; (mov r8, r8)
100005ea:	46c0      	nop			; (mov r8, r8)
100005ec:	0029      	movs	r1, r5
100005ee:	4640      	mov	r0, r8
100005f0:	3a02      	subs	r2, #2
100005f2:	e001      	b.n	100005f8 <ili9341_init_display+0x2d4>
100005f4:	40040000 	.word	0x40040000
100005f8:	f00a fe1a 	bl	1000b230 <__spi_write_blocking_veneer>
100005fc:	46c0      	nop			; (mov r8, r8)
100005fe:	46c0      	nop			; (mov r8, r8)
10000600:	46c0      	nop			; (mov r8, r8)
10000602:	6166      	str	r6, [r4, #20]
10000604:	46c0      	nop			; (mov r8, r8)
10000606:	46c0      	nop			; (mov r8, r8)
10000608:	46c0      	nop			; (mov r8, r8)
1000060a:	2312      	movs	r3, #18
1000060c:	702b      	strb	r3, [r5, #0]
1000060e:	46c0      	nop			; (mov r8, r8)
10000610:	46c0      	nop			; (mov r8, r8)
10000612:	46c0      	nop			; (mov r8, r8)
10000614:	61a6      	str	r6, [r4, #24]
10000616:	46c0      	nop			; (mov r8, r8)
10000618:	46c0      	nop			; (mov r8, r8)
1000061a:	46c0      	nop			; (mov r8, r8)
1000061c:	46c0      	nop			; (mov r8, r8)
1000061e:	46c0      	nop			; (mov r8, r8)
10000620:	46c0      	nop			; (mov r8, r8)
10000622:	6167      	str	r7, [r4, #20]
10000624:	46c0      	nop			; (mov r8, r8)
10000626:	46c0      	nop			; (mov r8, r8)
10000628:	46c0      	nop			; (mov r8, r8)
1000062a:	2201      	movs	r2, #1
1000062c:	0029      	movs	r1, r5
1000062e:	4640      	mov	r0, r8
10000630:	f00a fdfe 	bl	1000b230 <__spi_write_blocking_veneer>
10000634:	46c0      	nop			; (mov r8, r8)
10000636:	46c0      	nop			; (mov r8, r8)
10000638:	46c0      	nop			; (mov r8, r8)
1000063a:	6166      	str	r6, [r4, #20]
1000063c:	46c0      	nop			; (mov r8, r8)
1000063e:	46c0      	nop			; (mov r8, r8)
10000640:	46c0      	nop			; (mov r8, r8)
10000642:	2381      	movs	r3, #129	; 0x81
10000644:	702b      	strb	r3, [r5, #0]
10000646:	46c0      	nop			; (mov r8, r8)
10000648:	46c0      	nop			; (mov r8, r8)
1000064a:	46c0      	nop			; (mov r8, r8)
1000064c:	61a6      	str	r6, [r4, #24]
1000064e:	46c0      	nop			; (mov r8, r8)
10000650:	46c0      	nop			; (mov r8, r8)
10000652:	46c0      	nop			; (mov r8, r8)
10000654:	46c0      	nop			; (mov r8, r8)
10000656:	46c0      	nop			; (mov r8, r8)
10000658:	46c0      	nop			; (mov r8, r8)
1000065a:	6167      	str	r7, [r4, #20]
1000065c:	46c0      	nop			; (mov r8, r8)
1000065e:	46c0      	nop			; (mov r8, r8)
10000660:	46c0      	nop			; (mov r8, r8)
10000662:	2201      	movs	r2, #1
10000664:	0029      	movs	r1, r5
10000666:	4640      	mov	r0, r8
10000668:	f00a fde2 	bl	1000b230 <__spi_write_blocking_veneer>
1000066c:	46c0      	nop			; (mov r8, r8)
1000066e:	46c0      	nop			; (mov r8, r8)
10000670:	46c0      	nop			; (mov r8, r8)
10000672:	6166      	str	r6, [r4, #20]
10000674:	46c0      	nop			; (mov r8, r8)
10000676:	46c0      	nop			; (mov r8, r8)
10000678:	46c0      	nop			; (mov r8, r8)
1000067a:	23e8      	movs	r3, #232	; 0xe8
1000067c:	702b      	strb	r3, [r5, #0]
1000067e:	46c0      	nop			; (mov r8, r8)
10000680:	46c0      	nop			; (mov r8, r8)
10000682:	46c0      	nop			; (mov r8, r8)
10000684:	61a7      	str	r7, [r4, #24]
10000686:	46c0      	nop			; (mov r8, r8)
10000688:	46c0      	nop			; (mov r8, r8)
1000068a:	46c0      	nop			; (mov r8, r8)
1000068c:	46c0      	nop			; (mov r8, r8)
1000068e:	46c0      	nop			; (mov r8, r8)
10000690:	46c0      	nop			; (mov r8, r8)
10000692:	61a6      	str	r6, [r4, #24]
10000694:	46c0      	nop			; (mov r8, r8)
10000696:	46c0      	nop			; (mov r8, r8)
10000698:	46c0      	nop			; (mov r8, r8)
1000069a:	2201      	movs	r2, #1
1000069c:	0029      	movs	r1, r5
1000069e:	4640      	mov	r0, r8
100006a0:	f00a fdc6 	bl	1000b230 <__spi_write_blocking_veneer>
100006a4:	46c0      	nop			; (mov r8, r8)
100006a6:	46c0      	nop			; (mov r8, r8)
100006a8:	46c0      	nop			; (mov r8, r8)
100006aa:	6167      	str	r7, [r4, #20]
100006ac:	46c0      	nop			; (mov r8, r8)
100006ae:	46c0      	nop			; (mov r8, r8)
100006b0:	46c0      	nop			; (mov r8, r8)
100006b2:	46c0      	nop			; (mov r8, r8)
100006b4:	46c0      	nop			; (mov r8, r8)
100006b6:	46c0      	nop			; (mov r8, r8)
100006b8:	6166      	str	r6, [r4, #20]
100006ba:	46c0      	nop			; (mov r8, r8)
100006bc:	46c0      	nop			; (mov r8, r8)
100006be:	46c0      	nop			; (mov r8, r8)
100006c0:	2385      	movs	r3, #133	; 0x85
100006c2:	702b      	strb	r3, [r5, #0]
100006c4:	46c0      	nop			; (mov r8, r8)
100006c6:	46c0      	nop			; (mov r8, r8)
100006c8:	46c0      	nop			; (mov r8, r8)
100006ca:	61a6      	str	r6, [r4, #24]
100006cc:	46c0      	nop			; (mov r8, r8)
100006ce:	46c0      	nop			; (mov r8, r8)
100006d0:	46c0      	nop			; (mov r8, r8)
100006d2:	46c0      	nop			; (mov r8, r8)
100006d4:	46c0      	nop			; (mov r8, r8)
100006d6:	46c0      	nop			; (mov r8, r8)
100006d8:	6167      	str	r7, [r4, #20]
100006da:	46c0      	nop			; (mov r8, r8)
100006dc:	46c0      	nop			; (mov r8, r8)
100006de:	46c0      	nop			; (mov r8, r8)
100006e0:	2201      	movs	r2, #1
100006e2:	0029      	movs	r1, r5
100006e4:	4640      	mov	r0, r8
100006e6:	f00a fda3 	bl	1000b230 <__spi_write_blocking_veneer>
100006ea:	46c0      	nop			; (mov r8, r8)
100006ec:	46c0      	nop			; (mov r8, r8)
100006ee:	46c0      	nop			; (mov r8, r8)
100006f0:	6166      	str	r6, [r4, #20]
100006f2:	46c0      	nop			; (mov r8, r8)
100006f4:	46c0      	nop			; (mov r8, r8)
100006f6:	46c0      	nop			; (mov r8, r8)
100006f8:	464a      	mov	r2, r9
100006fa:	702a      	strb	r2, [r5, #0]
100006fc:	46c0      	nop			; (mov r8, r8)
100006fe:	46c0      	nop			; (mov r8, r8)
10000700:	46c0      	nop			; (mov r8, r8)
10000702:	61a6      	str	r6, [r4, #24]
10000704:	46c0      	nop			; (mov r8, r8)
10000706:	46c0      	nop			; (mov r8, r8)
10000708:	46c0      	nop			; (mov r8, r8)
1000070a:	46c0      	nop			; (mov r8, r8)
1000070c:	46c0      	nop			; (mov r8, r8)
1000070e:	46c0      	nop			; (mov r8, r8)
10000710:	6167      	str	r7, [r4, #20]
10000712:	46c0      	nop			; (mov r8, r8)
10000714:	46c0      	nop			; (mov r8, r8)
10000716:	46c0      	nop			; (mov r8, r8)
10000718:	0029      	movs	r1, r5
1000071a:	4640      	mov	r0, r8
1000071c:	3201      	adds	r2, #1
1000071e:	f00a fd87 	bl	1000b230 <__spi_write_blocking_veneer>
10000722:	46c0      	nop			; (mov r8, r8)
10000724:	46c0      	nop			; (mov r8, r8)
10000726:	46c0      	nop			; (mov r8, r8)
10000728:	6166      	str	r6, [r4, #20]
1000072a:	46c0      	nop			; (mov r8, r8)
1000072c:	46c0      	nop			; (mov r8, r8)
1000072e:	46c0      	nop			; (mov r8, r8)
10000730:	2378      	movs	r3, #120	; 0x78
10000732:	702b      	strb	r3, [r5, #0]
10000734:	46c0      	nop			; (mov r8, r8)
10000736:	46c0      	nop			; (mov r8, r8)
10000738:	46c0      	nop			; (mov r8, r8)
1000073a:	61a6      	str	r6, [r4, #24]
1000073c:	46c0      	nop			; (mov r8, r8)
1000073e:	46c0      	nop			; (mov r8, r8)
10000740:	46c0      	nop			; (mov r8, r8)
10000742:	46c0      	nop			; (mov r8, r8)
10000744:	46c0      	nop			; (mov r8, r8)
10000746:	46c0      	nop			; (mov r8, r8)
10000748:	6167      	str	r7, [r4, #20]
1000074a:	46c0      	nop			; (mov r8, r8)
1000074c:	46c0      	nop			; (mov r8, r8)
1000074e:	46c0      	nop			; (mov r8, r8)
10000750:	2201      	movs	r2, #1
10000752:	0029      	movs	r1, r5
10000754:	4640      	mov	r0, r8
10000756:	f00a fd6b 	bl	1000b230 <__spi_write_blocking_veneer>
1000075a:	46c0      	nop			; (mov r8, r8)
1000075c:	46c0      	nop			; (mov r8, r8)
1000075e:	46c0      	nop			; (mov r8, r8)
10000760:	6166      	str	r6, [r4, #20]
10000762:	46c0      	nop			; (mov r8, r8)
10000764:	46c0      	nop			; (mov r8, r8)
10000766:	46c0      	nop			; (mov r8, r8)
10000768:	23cb      	movs	r3, #203	; 0xcb
1000076a:	702b      	strb	r3, [r5, #0]
1000076c:	46c0      	nop			; (mov r8, r8)
1000076e:	46c0      	nop			; (mov r8, r8)
10000770:	46c0      	nop			; (mov r8, r8)
10000772:	61a7      	str	r7, [r4, #24]
10000774:	46c0      	nop			; (mov r8, r8)
10000776:	46c0      	nop			; (mov r8, r8)
10000778:	46c0      	nop			; (mov r8, r8)
1000077a:	46c0      	nop			; (mov r8, r8)
1000077c:	46c0      	nop			; (mov r8, r8)
1000077e:	46c0      	nop			; (mov r8, r8)
10000780:	61a6      	str	r6, [r4, #24]
10000782:	46c0      	nop			; (mov r8, r8)
10000784:	46c0      	nop			; (mov r8, r8)
10000786:	46c0      	nop			; (mov r8, r8)
10000788:	2201      	movs	r2, #1
1000078a:	0029      	movs	r1, r5
1000078c:	4640      	mov	r0, r8
1000078e:	f00a fd4f 	bl	1000b230 <__spi_write_blocking_veneer>
10000792:	46c0      	nop			; (mov r8, r8)
10000794:	46c0      	nop			; (mov r8, r8)
10000796:	46c0      	nop			; (mov r8, r8)
10000798:	6167      	str	r7, [r4, #20]
1000079a:	46c0      	nop			; (mov r8, r8)
1000079c:	46c0      	nop			; (mov r8, r8)
1000079e:	46c0      	nop			; (mov r8, r8)
100007a0:	46c0      	nop			; (mov r8, r8)
100007a2:	46c0      	nop			; (mov r8, r8)
100007a4:	46c0      	nop			; (mov r8, r8)
100007a6:	6166      	str	r6, [r4, #20]
100007a8:	46c0      	nop			; (mov r8, r8)
100007aa:	46c0      	nop			; (mov r8, r8)
100007ac:	46c0      	nop			; (mov r8, r8)
100007ae:	2339      	movs	r3, #57	; 0x39
100007b0:	702b      	strb	r3, [r5, #0]
100007b2:	46c0      	nop			; (mov r8, r8)
100007b4:	46c0      	nop			; (mov r8, r8)
100007b6:	46c0      	nop			; (mov r8, r8)
100007b8:	61a6      	str	r6, [r4, #24]
100007ba:	46c0      	nop			; (mov r8, r8)
100007bc:	46c0      	nop			; (mov r8, r8)
100007be:	46c0      	nop			; (mov r8, r8)
100007c0:	46c0      	nop			; (mov r8, r8)
100007c2:	46c0      	nop			; (mov r8, r8)
100007c4:	46c0      	nop			; (mov r8, r8)
100007c6:	6167      	str	r7, [r4, #20]
100007c8:	46c0      	nop			; (mov r8, r8)
100007ca:	46c0      	nop			; (mov r8, r8)
100007cc:	46c0      	nop			; (mov r8, r8)
100007ce:	2201      	movs	r2, #1
100007d0:	0029      	movs	r1, r5
100007d2:	4640      	mov	r0, r8
100007d4:	f00a fd2c 	bl	1000b230 <__spi_write_blocking_veneer>
100007d8:	46c0      	nop			; (mov r8, r8)
100007da:	46c0      	nop			; (mov r8, r8)
100007dc:	46c0      	nop			; (mov r8, r8)
100007de:	6166      	str	r6, [r4, #20]
100007e0:	46c0      	nop			; (mov r8, r8)
100007e2:	46c0      	nop			; (mov r8, r8)
100007e4:	46c0      	nop			; (mov r8, r8)
100007e6:	232c      	movs	r3, #44	; 0x2c
100007e8:	702b      	strb	r3, [r5, #0]
100007ea:	46c0      	nop			; (mov r8, r8)
100007ec:	46c0      	nop			; (mov r8, r8)
100007ee:	46c0      	nop			; (mov r8, r8)
100007f0:	61a6      	str	r6, [r4, #24]
100007f2:	46c0      	nop			; (mov r8, r8)
100007f4:	46c0      	nop			; (mov r8, r8)
100007f6:	46c0      	nop			; (mov r8, r8)
100007f8:	46c0      	nop			; (mov r8, r8)
100007fa:	46c0      	nop			; (mov r8, r8)
100007fc:	46c0      	nop			; (mov r8, r8)
100007fe:	6167      	str	r7, [r4, #20]
10000800:	46c0      	nop			; (mov r8, r8)
10000802:	46c0      	nop			; (mov r8, r8)
10000804:	46c0      	nop			; (mov r8, r8)
10000806:	2201      	movs	r2, #1
10000808:	0029      	movs	r1, r5
1000080a:	4640      	mov	r0, r8
1000080c:	f00a fd10 	bl	1000b230 <__spi_write_blocking_veneer>
10000810:	46c0      	nop			; (mov r8, r8)
10000812:	46c0      	nop			; (mov r8, r8)
10000814:	46c0      	nop			; (mov r8, r8)
10000816:	6166      	str	r6, [r4, #20]
10000818:	46c0      	nop			; (mov r8, r8)
1000081a:	46c0      	nop			; (mov r8, r8)
1000081c:	46c0      	nop			; (mov r8, r8)
1000081e:	464a      	mov	r2, r9
10000820:	702a      	strb	r2, [r5, #0]
10000822:	46c0      	nop			; (mov r8, r8)
10000824:	46c0      	nop			; (mov r8, r8)
10000826:	46c0      	nop			; (mov r8, r8)
10000828:	61a6      	str	r6, [r4, #24]
1000082a:	46c0      	nop			; (mov r8, r8)
1000082c:	46c0      	nop			; (mov r8, r8)
1000082e:	46c0      	nop			; (mov r8, r8)
10000830:	46c0      	nop			; (mov r8, r8)
10000832:	46c0      	nop			; (mov r8, r8)
10000834:	46c0      	nop			; (mov r8, r8)
10000836:	6167      	str	r7, [r4, #20]
10000838:	46c0      	nop			; (mov r8, r8)
1000083a:	46c0      	nop			; (mov r8, r8)
1000083c:	46c0      	nop			; (mov r8, r8)
1000083e:	0029      	movs	r1, r5
10000840:	4640      	mov	r0, r8
10000842:	3201      	adds	r2, #1
10000844:	f00a fcf4 	bl	1000b230 <__spi_write_blocking_veneer>
10000848:	46c0      	nop			; (mov r8, r8)
1000084a:	46c0      	nop			; (mov r8, r8)
1000084c:	46c0      	nop			; (mov r8, r8)
1000084e:	6166      	str	r6, [r4, #20]
10000850:	46c0      	nop			; (mov r8, r8)
10000852:	46c0      	nop			; (mov r8, r8)
10000854:	46c0      	nop			; (mov r8, r8)
10000856:	2334      	movs	r3, #52	; 0x34
10000858:	702b      	strb	r3, [r5, #0]
1000085a:	46c0      	nop			; (mov r8, r8)
1000085c:	46c0      	nop			; (mov r8, r8)
1000085e:	46c0      	nop			; (mov r8, r8)
10000860:	61a6      	str	r6, [r4, #24]
10000862:	46c0      	nop			; (mov r8, r8)
10000864:	46c0      	nop			; (mov r8, r8)
10000866:	46c0      	nop			; (mov r8, r8)
10000868:	46c0      	nop			; (mov r8, r8)
1000086a:	46c0      	nop			; (mov r8, r8)
1000086c:	46c0      	nop			; (mov r8, r8)
1000086e:	6167      	str	r7, [r4, #20]
10000870:	46c0      	nop			; (mov r8, r8)
10000872:	46c0      	nop			; (mov r8, r8)
10000874:	46c0      	nop			; (mov r8, r8)
10000876:	2201      	movs	r2, #1
10000878:	0029      	movs	r1, r5
1000087a:	4640      	mov	r0, r8
1000087c:	f00a fcd8 	bl	1000b230 <__spi_write_blocking_veneer>
10000880:	46c0      	nop			; (mov r8, r8)
10000882:	46c0      	nop			; (mov r8, r8)
10000884:	46c0      	nop			; (mov r8, r8)
10000886:	6166      	str	r6, [r4, #20]
10000888:	46c0      	nop			; (mov r8, r8)
1000088a:	46c0      	nop			; (mov r8, r8)
1000088c:	46c0      	nop			; (mov r8, r8)
1000088e:	4652      	mov	r2, sl
10000890:	702a      	strb	r2, [r5, #0]
10000892:	46c0      	nop			; (mov r8, r8)
10000894:	46c0      	nop			; (mov r8, r8)
10000896:	46c0      	nop			; (mov r8, r8)
10000898:	61a6      	str	r6, [r4, #24]
1000089a:	46c0      	nop			; (mov r8, r8)
1000089c:	46c0      	nop			; (mov r8, r8)
1000089e:	46c0      	nop			; (mov r8, r8)
100008a0:	46c0      	nop			; (mov r8, r8)
100008a2:	46c0      	nop			; (mov r8, r8)
100008a4:	46c0      	nop			; (mov r8, r8)
100008a6:	6167      	str	r7, [r4, #20]
100008a8:	46c0      	nop			; (mov r8, r8)
100008aa:	46c0      	nop			; (mov r8, r8)
100008ac:	46c0      	nop			; (mov r8, r8)
100008ae:	0029      	movs	r1, r5
100008b0:	4640      	mov	r0, r8
100008b2:	3a01      	subs	r2, #1
100008b4:	f00a fcbc 	bl	1000b230 <__spi_write_blocking_veneer>
100008b8:	46c0      	nop			; (mov r8, r8)
100008ba:	46c0      	nop			; (mov r8, r8)
100008bc:	46c0      	nop			; (mov r8, r8)
100008be:	6166      	str	r6, [r4, #20]
100008c0:	46c0      	nop			; (mov r8, r8)
100008c2:	46c0      	nop			; (mov r8, r8)
100008c4:	46c0      	nop			; (mov r8, r8)
100008c6:	23f7      	movs	r3, #247	; 0xf7
100008c8:	702b      	strb	r3, [r5, #0]
100008ca:	46c0      	nop			; (mov r8, r8)
100008cc:	46c0      	nop			; (mov r8, r8)
100008ce:	46c0      	nop			; (mov r8, r8)
100008d0:	61a7      	str	r7, [r4, #24]
100008d2:	46c0      	nop			; (mov r8, r8)
100008d4:	46c0      	nop			; (mov r8, r8)
100008d6:	46c0      	nop			; (mov r8, r8)
100008d8:	46c0      	nop			; (mov r8, r8)
100008da:	46c0      	nop			; (mov r8, r8)
100008dc:	46c0      	nop			; (mov r8, r8)
100008de:	61a6      	str	r6, [r4, #24]
100008e0:	46c0      	nop			; (mov r8, r8)
100008e2:	46c0      	nop			; (mov r8, r8)
100008e4:	46c0      	nop			; (mov r8, r8)
100008e6:	2201      	movs	r2, #1
100008e8:	0029      	movs	r1, r5
100008ea:	4640      	mov	r0, r8
100008ec:	f00a fca0 	bl	1000b230 <__spi_write_blocking_veneer>
100008f0:	46c0      	nop			; (mov r8, r8)
100008f2:	46c0      	nop			; (mov r8, r8)
100008f4:	46c0      	nop			; (mov r8, r8)
100008f6:	6167      	str	r7, [r4, #20]
100008f8:	46c0      	nop			; (mov r8, r8)
100008fa:	46c0      	nop			; (mov r8, r8)
100008fc:	46c0      	nop			; (mov r8, r8)
100008fe:	46c0      	nop			; (mov r8, r8)
10000900:	46c0      	nop			; (mov r8, r8)
10000902:	46c0      	nop			; (mov r8, r8)
10000904:	6166      	str	r6, [r4, #20]
10000906:	46c0      	nop			; (mov r8, r8)
10000908:	46c0      	nop			; (mov r8, r8)
1000090a:	46c0      	nop			; (mov r8, r8)
1000090c:	2320      	movs	r3, #32
1000090e:	702b      	strb	r3, [r5, #0]
10000910:	46c0      	nop			; (mov r8, r8)
10000912:	46c0      	nop			; (mov r8, r8)
10000914:	46c0      	nop			; (mov r8, r8)
10000916:	61a6      	str	r6, [r4, #24]
10000918:	46c0      	nop			; (mov r8, r8)
1000091a:	46c0      	nop			; (mov r8, r8)
1000091c:	46c0      	nop			; (mov r8, r8)
1000091e:	46c0      	nop			; (mov r8, r8)
10000920:	46c0      	nop			; (mov r8, r8)
10000922:	46c0      	nop			; (mov r8, r8)
10000924:	6167      	str	r7, [r4, #20]
10000926:	46c0      	nop			; (mov r8, r8)
10000928:	46c0      	nop			; (mov r8, r8)
1000092a:	46c0      	nop			; (mov r8, r8)
1000092c:	2201      	movs	r2, #1
1000092e:	0029      	movs	r1, r5
10000930:	4640      	mov	r0, r8
10000932:	f00a fc7d 	bl	1000b230 <__spi_write_blocking_veneer>
10000936:	46c0      	nop			; (mov r8, r8)
10000938:	46c0      	nop			; (mov r8, r8)
1000093a:	46c0      	nop			; (mov r8, r8)
1000093c:	6166      	str	r6, [r4, #20]
1000093e:	46c0      	nop			; (mov r8, r8)
10000940:	46c0      	nop			; (mov r8, r8)
10000942:	46c0      	nop			; (mov r8, r8)
10000944:	23ea      	movs	r3, #234	; 0xea
10000946:	702b      	strb	r3, [r5, #0]
10000948:	46c0      	nop			; (mov r8, r8)
1000094a:	46c0      	nop			; (mov r8, r8)
1000094c:	46c0      	nop			; (mov r8, r8)
1000094e:	61a7      	str	r7, [r4, #24]
10000950:	46c0      	nop			; (mov r8, r8)
10000952:	46c0      	nop			; (mov r8, r8)
10000954:	46c0      	nop			; (mov r8, r8)
10000956:	46c0      	nop			; (mov r8, r8)
10000958:	46c0      	nop			; (mov r8, r8)
1000095a:	46c0      	nop			; (mov r8, r8)
1000095c:	61a6      	str	r6, [r4, #24]
1000095e:	46c0      	nop			; (mov r8, r8)
10000960:	46c0      	nop			; (mov r8, r8)
10000962:	46c0      	nop			; (mov r8, r8)
10000964:	2201      	movs	r2, #1
10000966:	0029      	movs	r1, r5
10000968:	4640      	mov	r0, r8
1000096a:	f00a fc61 	bl	1000b230 <__spi_write_blocking_veneer>
1000096e:	46c0      	nop			; (mov r8, r8)
10000970:	46c0      	nop			; (mov r8, r8)
10000972:	46c0      	nop			; (mov r8, r8)
10000974:	6167      	str	r7, [r4, #20]
10000976:	46c0      	nop			; (mov r8, r8)
10000978:	46c0      	nop			; (mov r8, r8)
1000097a:	46c0      	nop			; (mov r8, r8)
1000097c:	46c0      	nop			; (mov r8, r8)
1000097e:	46c0      	nop			; (mov r8, r8)
10000980:	46c0      	nop			; (mov r8, r8)
10000982:	6166      	str	r6, [r4, #20]
10000984:	46c0      	nop			; (mov r8, r8)
10000986:	46c0      	nop			; (mov r8, r8)
10000988:	46c0      	nop			; (mov r8, r8)
1000098a:	464a      	mov	r2, r9
1000098c:	702a      	strb	r2, [r5, #0]
1000098e:	46c0      	nop			; (mov r8, r8)
10000990:	46c0      	nop			; (mov r8, r8)
10000992:	46c0      	nop			; (mov r8, r8)
10000994:	61a6      	str	r6, [r4, #24]
10000996:	46c0      	nop			; (mov r8, r8)
10000998:	46c0      	nop			; (mov r8, r8)
1000099a:	46c0      	nop			; (mov r8, r8)
1000099c:	46c0      	nop			; (mov r8, r8)
1000099e:	46c0      	nop			; (mov r8, r8)
100009a0:	46c0      	nop			; (mov r8, r8)
100009a2:	6167      	str	r7, [r4, #20]
100009a4:	46c0      	nop			; (mov r8, r8)
100009a6:	46c0      	nop			; (mov r8, r8)
100009a8:	46c0      	nop			; (mov r8, r8)
100009aa:	0029      	movs	r1, r5
100009ac:	4640      	mov	r0, r8
100009ae:	3201      	adds	r2, #1
100009b0:	f00a fc3e 	bl	1000b230 <__spi_write_blocking_veneer>
100009b4:	46c0      	nop			; (mov r8, r8)
100009b6:	46c0      	nop			; (mov r8, r8)
100009b8:	46c0      	nop			; (mov r8, r8)
100009ba:	6166      	str	r6, [r4, #20]
100009bc:	46c0      	nop			; (mov r8, r8)
100009be:	46c0      	nop			; (mov r8, r8)
100009c0:	46c0      	nop			; (mov r8, r8)
100009c2:	464a      	mov	r2, r9
100009c4:	702a      	strb	r2, [r5, #0]
100009c6:	46c0      	nop			; (mov r8, r8)
100009c8:	46c0      	nop			; (mov r8, r8)
100009ca:	46c0      	nop			; (mov r8, r8)
100009cc:	61a6      	str	r6, [r4, #24]
100009ce:	46c0      	nop			; (mov r8, r8)
100009d0:	46c0      	nop			; (mov r8, r8)
100009d2:	46c0      	nop			; (mov r8, r8)
100009d4:	46c0      	nop			; (mov r8, r8)
100009d6:	46c0      	nop			; (mov r8, r8)
100009d8:	46c0      	nop			; (mov r8, r8)
100009da:	6167      	str	r7, [r4, #20]
100009dc:	46c0      	nop			; (mov r8, r8)
100009de:	46c0      	nop			; (mov r8, r8)
100009e0:	46c0      	nop			; (mov r8, r8)
100009e2:	0029      	movs	r1, r5
100009e4:	4640      	mov	r0, r8
100009e6:	3201      	adds	r2, #1
100009e8:	f00a fc22 	bl	1000b230 <__spi_write_blocking_veneer>
100009ec:	46c0      	nop			; (mov r8, r8)
100009ee:	46c0      	nop			; (mov r8, r8)
100009f0:	46c0      	nop			; (mov r8, r8)
100009f2:	6166      	str	r6, [r4, #20]
100009f4:	46c0      	nop			; (mov r8, r8)
100009f6:	46c0      	nop			; (mov r8, r8)
100009f8:	46c0      	nop			; (mov r8, r8)
100009fa:	23c0      	movs	r3, #192	; 0xc0
100009fc:	702b      	strb	r3, [r5, #0]
100009fe:	46c0      	nop			; (mov r8, r8)
10000a00:	46c0      	nop			; (mov r8, r8)
10000a02:	46c0      	nop			; (mov r8, r8)
10000a04:	61a7      	str	r7, [r4, #24]
10000a06:	46c0      	nop			; (mov r8, r8)
10000a08:	46c0      	nop			; (mov r8, r8)
10000a0a:	46c0      	nop			; (mov r8, r8)
10000a0c:	46c0      	nop			; (mov r8, r8)
10000a0e:	46c0      	nop			; (mov r8, r8)
10000a10:	46c0      	nop			; (mov r8, r8)
10000a12:	61a6      	str	r6, [r4, #24]
10000a14:	46c0      	nop			; (mov r8, r8)
10000a16:	46c0      	nop			; (mov r8, r8)
10000a18:	46c0      	nop			; (mov r8, r8)
10000a1a:	2201      	movs	r2, #1
10000a1c:	0029      	movs	r1, r5
10000a1e:	4640      	mov	r0, r8
10000a20:	f00a fc06 	bl	1000b230 <__spi_write_blocking_veneer>
10000a24:	46c0      	nop			; (mov r8, r8)
10000a26:	46c0      	nop			; (mov r8, r8)
10000a28:	46c0      	nop			; (mov r8, r8)
10000a2a:	6167      	str	r7, [r4, #20]
10000a2c:	46c0      	nop			; (mov r8, r8)
10000a2e:	46c0      	nop			; (mov r8, r8)
10000a30:	46c0      	nop			; (mov r8, r8)
10000a32:	46c0      	nop			; (mov r8, r8)
10000a34:	46c0      	nop			; (mov r8, r8)
10000a36:	46c0      	nop			; (mov r8, r8)
10000a38:	6166      	str	r6, [r4, #20]
10000a3a:	46c0      	nop			; (mov r8, r8)
10000a3c:	46c0      	nop			; (mov r8, r8)
10000a3e:	46c0      	nop			; (mov r8, r8)
10000a40:	2323      	movs	r3, #35	; 0x23
10000a42:	702b      	strb	r3, [r5, #0]
10000a44:	46c0      	nop			; (mov r8, r8)
10000a46:	46c0      	nop			; (mov r8, r8)
10000a48:	46c0      	nop			; (mov r8, r8)
10000a4a:	61a6      	str	r6, [r4, #24]
10000a4c:	46c0      	nop			; (mov r8, r8)
10000a4e:	46c0      	nop			; (mov r8, r8)
10000a50:	46c0      	nop			; (mov r8, r8)
10000a52:	46c0      	nop			; (mov r8, r8)
10000a54:	46c0      	nop			; (mov r8, r8)
10000a56:	46c0      	nop			; (mov r8, r8)
10000a58:	6167      	str	r7, [r4, #20]
10000a5a:	46c0      	nop			; (mov r8, r8)
10000a5c:	46c0      	nop			; (mov r8, r8)
10000a5e:	46c0      	nop			; (mov r8, r8)
10000a60:	2201      	movs	r2, #1
10000a62:	0029      	movs	r1, r5
10000a64:	4640      	mov	r0, r8
10000a66:	f00a fbe3 	bl	1000b230 <__spi_write_blocking_veneer>
10000a6a:	46c0      	nop			; (mov r8, r8)
10000a6c:	46c0      	nop			; (mov r8, r8)
10000a6e:	46c0      	nop			; (mov r8, r8)
10000a70:	6166      	str	r6, [r4, #20]
10000a72:	46c0      	nop			; (mov r8, r8)
10000a74:	46c0      	nop			; (mov r8, r8)
10000a76:	46c0      	nop			; (mov r8, r8)
10000a78:	23c1      	movs	r3, #193	; 0xc1
10000a7a:	702b      	strb	r3, [r5, #0]
10000a7c:	46c0      	nop			; (mov r8, r8)
10000a7e:	46c0      	nop			; (mov r8, r8)
10000a80:	46c0      	nop			; (mov r8, r8)
10000a82:	61a7      	str	r7, [r4, #24]
10000a84:	46c0      	nop			; (mov r8, r8)
10000a86:	46c0      	nop			; (mov r8, r8)
10000a88:	46c0      	nop			; (mov r8, r8)
10000a8a:	46c0      	nop			; (mov r8, r8)
10000a8c:	46c0      	nop			; (mov r8, r8)
10000a8e:	46c0      	nop			; (mov r8, r8)
10000a90:	61a6      	str	r6, [r4, #24]
10000a92:	46c0      	nop			; (mov r8, r8)
10000a94:	46c0      	nop			; (mov r8, r8)
10000a96:	46c0      	nop			; (mov r8, r8)
10000a98:	2201      	movs	r2, #1
10000a9a:	0029      	movs	r1, r5
10000a9c:	4640      	mov	r0, r8
10000a9e:	f00a fbc7 	bl	1000b230 <__spi_write_blocking_veneer>
10000aa2:	46c0      	nop			; (mov r8, r8)
10000aa4:	46c0      	nop			; (mov r8, r8)
10000aa6:	46c0      	nop			; (mov r8, r8)
10000aa8:	6167      	str	r7, [r4, #20]
10000aaa:	46c0      	nop			; (mov r8, r8)
10000aac:	46c0      	nop			; (mov r8, r8)
10000aae:	46c0      	nop			; (mov r8, r8)
10000ab0:	46c0      	nop			; (mov r8, r8)
10000ab2:	46c0      	nop			; (mov r8, r8)
10000ab4:	46c0      	nop			; (mov r8, r8)
10000ab6:	6166      	str	r6, [r4, #20]
10000ab8:	46c0      	nop			; (mov r8, r8)
10000aba:	46c0      	nop			; (mov r8, r8)
10000abc:	46c0      	nop			; (mov r8, r8)
10000abe:	2310      	movs	r3, #16
10000ac0:	702b      	strb	r3, [r5, #0]
10000ac2:	46c0      	nop			; (mov r8, r8)
10000ac4:	46c0      	nop			; (mov r8, r8)
10000ac6:	46c0      	nop			; (mov r8, r8)
10000ac8:	61a6      	str	r6, [r4, #24]
10000aca:	46c0      	nop			; (mov r8, r8)
10000acc:	46c0      	nop			; (mov r8, r8)
10000ace:	46c0      	nop			; (mov r8, r8)
10000ad0:	46c0      	nop			; (mov r8, r8)
10000ad2:	46c0      	nop			; (mov r8, r8)
10000ad4:	46c0      	nop			; (mov r8, r8)
10000ad6:	6167      	str	r7, [r4, #20]
10000ad8:	46c0      	nop			; (mov r8, r8)
10000ada:	46c0      	nop			; (mov r8, r8)
10000adc:	46c0      	nop			; (mov r8, r8)
10000ade:	2201      	movs	r2, #1
10000ae0:	0029      	movs	r1, r5
10000ae2:	4640      	mov	r0, r8
10000ae4:	f00a fba4 	bl	1000b230 <__spi_write_blocking_veneer>
10000ae8:	46c0      	nop			; (mov r8, r8)
10000aea:	46c0      	nop			; (mov r8, r8)
10000aec:	46c0      	nop			; (mov r8, r8)
10000aee:	6166      	str	r6, [r4, #20]
10000af0:	46c0      	nop			; (mov r8, r8)
10000af2:	46c0      	nop			; (mov r8, r8)
10000af4:	46c0      	nop			; (mov r8, r8)
10000af6:	23c5      	movs	r3, #197	; 0xc5
10000af8:	702b      	strb	r3, [r5, #0]
10000afa:	46c0      	nop			; (mov r8, r8)
10000afc:	46c0      	nop			; (mov r8, r8)
10000afe:	46c0      	nop			; (mov r8, r8)
10000b00:	61a7      	str	r7, [r4, #24]
10000b02:	46c0      	nop			; (mov r8, r8)
10000b04:	46c0      	nop			; (mov r8, r8)
10000b06:	46c0      	nop			; (mov r8, r8)
10000b08:	46c0      	nop			; (mov r8, r8)
10000b0a:	46c0      	nop			; (mov r8, r8)
10000b0c:	46c0      	nop			; (mov r8, r8)
10000b0e:	61a6      	str	r6, [r4, #24]
10000b10:	46c0      	nop			; (mov r8, r8)
10000b12:	46c0      	nop			; (mov r8, r8)
10000b14:	46c0      	nop			; (mov r8, r8)
10000b16:	2201      	movs	r2, #1
10000b18:	0029      	movs	r1, r5
10000b1a:	4640      	mov	r0, r8
10000b1c:	f00a fb88 	bl	1000b230 <__spi_write_blocking_veneer>
10000b20:	46c0      	nop			; (mov r8, r8)
10000b22:	46c0      	nop			; (mov r8, r8)
10000b24:	46c0      	nop			; (mov r8, r8)
10000b26:	6167      	str	r7, [r4, #20]
10000b28:	46c0      	nop			; (mov r8, r8)
10000b2a:	46c0      	nop			; (mov r8, r8)
10000b2c:	46c0      	nop			; (mov r8, r8)
10000b2e:	46c0      	nop			; (mov r8, r8)
10000b30:	46c0      	nop			; (mov r8, r8)
10000b32:	46c0      	nop			; (mov r8, r8)
10000b34:	6166      	str	r6, [r4, #20]
10000b36:	46c0      	nop			; (mov r8, r8)
10000b38:	46c0      	nop			; (mov r8, r8)
10000b3a:	46c0      	nop			; (mov r8, r8)
10000b3c:	233e      	movs	r3, #62	; 0x3e
10000b3e:	702b      	strb	r3, [r5, #0]
10000b40:	46c0      	nop			; (mov r8, r8)
10000b42:	46c0      	nop			; (mov r8, r8)
10000b44:	46c0      	nop			; (mov r8, r8)
10000b46:	61a6      	str	r6, [r4, #24]
10000b48:	46c0      	nop			; (mov r8, r8)
10000b4a:	46c0      	nop			; (mov r8, r8)
10000b4c:	46c0      	nop			; (mov r8, r8)
10000b4e:	46c0      	nop			; (mov r8, r8)
10000b50:	46c0      	nop			; (mov r8, r8)
10000b52:	46c0      	nop			; (mov r8, r8)
10000b54:	6167      	str	r7, [r4, #20]
10000b56:	46c0      	nop			; (mov r8, r8)
10000b58:	46c0      	nop			; (mov r8, r8)
10000b5a:	46c0      	nop			; (mov r8, r8)
10000b5c:	2201      	movs	r2, #1
10000b5e:	0029      	movs	r1, r5
10000b60:	4640      	mov	r0, r8
10000b62:	f00a fb65 	bl	1000b230 <__spi_write_blocking_veneer>
10000b66:	46c0      	nop			; (mov r8, r8)
10000b68:	46c0      	nop			; (mov r8, r8)
10000b6a:	46c0      	nop			; (mov r8, r8)
10000b6c:	6166      	str	r6, [r4, #20]
10000b6e:	46c0      	nop			; (mov r8, r8)
10000b70:	46c0      	nop			; (mov r8, r8)
10000b72:	46c0      	nop			; (mov r8, r8)
10000b74:	2328      	movs	r3, #40	; 0x28
10000b76:	702b      	strb	r3, [r5, #0]
10000b78:	46c0      	nop			; (mov r8, r8)
10000b7a:	46c0      	nop			; (mov r8, r8)
10000b7c:	46c0      	nop			; (mov r8, r8)
10000b7e:	61a6      	str	r6, [r4, #24]
10000b80:	46c0      	nop			; (mov r8, r8)
10000b82:	46c0      	nop			; (mov r8, r8)
10000b84:	46c0      	nop			; (mov r8, r8)
10000b86:	46c0      	nop			; (mov r8, r8)
10000b88:	46c0      	nop			; (mov r8, r8)
10000b8a:	46c0      	nop			; (mov r8, r8)
10000b8c:	6167      	str	r7, [r4, #20]
10000b8e:	46c0      	nop			; (mov r8, r8)
10000b90:	46c0      	nop			; (mov r8, r8)
10000b92:	46c0      	nop			; (mov r8, r8)
10000b94:	2201      	movs	r2, #1
10000b96:	0029      	movs	r1, r5
10000b98:	4640      	mov	r0, r8
10000b9a:	f00a fb49 	bl	1000b230 <__spi_write_blocking_veneer>
10000b9e:	46c0      	nop			; (mov r8, r8)
10000ba0:	46c0      	nop			; (mov r8, r8)
10000ba2:	46c0      	nop			; (mov r8, r8)
10000ba4:	6166      	str	r6, [r4, #20]
10000ba6:	46c0      	nop			; (mov r8, r8)
10000ba8:	46c0      	nop			; (mov r8, r8)
10000baa:	46c0      	nop			; (mov r8, r8)
10000bac:	23c7      	movs	r3, #199	; 0xc7
10000bae:	702b      	strb	r3, [r5, #0]
10000bb0:	46c0      	nop			; (mov r8, r8)
10000bb2:	46c0      	nop			; (mov r8, r8)
10000bb4:	46c0      	nop			; (mov r8, r8)
10000bb6:	61a7      	str	r7, [r4, #24]
10000bb8:	46c0      	nop			; (mov r8, r8)
10000bba:	46c0      	nop			; (mov r8, r8)
10000bbc:	46c0      	nop			; (mov r8, r8)
10000bbe:	46c0      	nop			; (mov r8, r8)
10000bc0:	46c0      	nop			; (mov r8, r8)
10000bc2:	46c0      	nop			; (mov r8, r8)
10000bc4:	61a6      	str	r6, [r4, #24]
10000bc6:	46c0      	nop			; (mov r8, r8)
10000bc8:	46c0      	nop			; (mov r8, r8)
10000bca:	46c0      	nop			; (mov r8, r8)
10000bcc:	2201      	movs	r2, #1
10000bce:	0029      	movs	r1, r5
10000bd0:	4640      	mov	r0, r8
10000bd2:	f00a fb2d 	bl	1000b230 <__spi_write_blocking_veneer>
10000bd6:	46c0      	nop			; (mov r8, r8)
10000bd8:	46c0      	nop			; (mov r8, r8)
10000bda:	46c0      	nop			; (mov r8, r8)
10000bdc:	6167      	str	r7, [r4, #20]
10000bde:	46c0      	nop			; (mov r8, r8)
10000be0:	46c0      	nop			; (mov r8, r8)
10000be2:	46c0      	nop			; (mov r8, r8)
10000be4:	46c0      	nop			; (mov r8, r8)
10000be6:	46c0      	nop			; (mov r8, r8)
10000be8:	46c0      	nop			; (mov r8, r8)
10000bea:	6166      	str	r6, [r4, #20]
10000bec:	46c0      	nop			; (mov r8, r8)
10000bee:	46c0      	nop			; (mov r8, r8)
10000bf0:	46c0      	nop			; (mov r8, r8)
10000bf2:	2386      	movs	r3, #134	; 0x86
10000bf4:	702b      	strb	r3, [r5, #0]
10000bf6:	46c0      	nop			; (mov r8, r8)
10000bf8:	46c0      	nop			; (mov r8, r8)
10000bfa:	46c0      	nop			; (mov r8, r8)
10000bfc:	61a6      	str	r6, [r4, #24]
10000bfe:	46c0      	nop			; (mov r8, r8)
10000c00:	46c0      	nop			; (mov r8, r8)
10000c02:	46c0      	nop			; (mov r8, r8)
10000c04:	46c0      	nop			; (mov r8, r8)
10000c06:	46c0      	nop			; (mov r8, r8)
10000c08:	46c0      	nop			; (mov r8, r8)
10000c0a:	6167      	str	r7, [r4, #20]
10000c0c:	46c0      	nop			; (mov r8, r8)
10000c0e:	46c0      	nop			; (mov r8, r8)
10000c10:	46c0      	nop			; (mov r8, r8)
10000c12:	2201      	movs	r2, #1
10000c14:	0029      	movs	r1, r5
10000c16:	4640      	mov	r0, r8
10000c18:	f00a fb0a 	bl	1000b230 <__spi_write_blocking_veneer>
10000c1c:	46c0      	nop			; (mov r8, r8)
10000c1e:	46c0      	nop			; (mov r8, r8)
10000c20:	46c0      	nop			; (mov r8, r8)
10000c22:	6166      	str	r6, [r4, #20]
10000c24:	46c0      	nop			; (mov r8, r8)
10000c26:	46c0      	nop			; (mov r8, r8)
10000c28:	46c0      	nop			; (mov r8, r8)
10000c2a:	2336      	movs	r3, #54	; 0x36
10000c2c:	702b      	strb	r3, [r5, #0]
10000c2e:	46c0      	nop			; (mov r8, r8)
10000c30:	46c0      	nop			; (mov r8, r8)
10000c32:	46c0      	nop			; (mov r8, r8)
10000c34:	61a7      	str	r7, [r4, #24]
10000c36:	46c0      	nop			; (mov r8, r8)
10000c38:	46c0      	nop			; (mov r8, r8)
10000c3a:	46c0      	nop			; (mov r8, r8)
10000c3c:	46c0      	nop			; (mov r8, r8)
10000c3e:	46c0      	nop			; (mov r8, r8)
10000c40:	46c0      	nop			; (mov r8, r8)
10000c42:	61a6      	str	r6, [r4, #24]
10000c44:	46c0      	nop			; (mov r8, r8)
10000c46:	46c0      	nop			; (mov r8, r8)
10000c48:	46c0      	nop			; (mov r8, r8)
10000c4a:	2201      	movs	r2, #1
10000c4c:	0029      	movs	r1, r5
10000c4e:	4640      	mov	r0, r8
10000c50:	f00a faee 	bl	1000b230 <__spi_write_blocking_veneer>
10000c54:	46c0      	nop			; (mov r8, r8)
10000c56:	46c0      	nop			; (mov r8, r8)
10000c58:	46c0      	nop			; (mov r8, r8)
10000c5a:	6167      	str	r7, [r4, #20]
10000c5c:	46c0      	nop			; (mov r8, r8)
10000c5e:	46c0      	nop			; (mov r8, r8)
10000c60:	46c0      	nop			; (mov r8, r8)
10000c62:	46c0      	nop			; (mov r8, r8)
10000c64:	46c0      	nop			; (mov r8, r8)
10000c66:	46c0      	nop			; (mov r8, r8)
10000c68:	6166      	str	r6, [r4, #20]
10000c6a:	46c0      	nop			; (mov r8, r8)
10000c6c:	46c0      	nop			; (mov r8, r8)
10000c6e:	46c0      	nop			; (mov r8, r8)
10000c70:	2348      	movs	r3, #72	; 0x48
10000c72:	702b      	strb	r3, [r5, #0]
10000c74:	46c0      	nop			; (mov r8, r8)
10000c76:	46c0      	nop			; (mov r8, r8)
10000c78:	46c0      	nop			; (mov r8, r8)
10000c7a:	61a6      	str	r6, [r4, #24]
10000c7c:	46c0      	nop			; (mov r8, r8)
10000c7e:	46c0      	nop			; (mov r8, r8)
10000c80:	46c0      	nop			; (mov r8, r8)
10000c82:	46c0      	nop			; (mov r8, r8)
10000c84:	46c0      	nop			; (mov r8, r8)
10000c86:	46c0      	nop			; (mov r8, r8)
10000c88:	6167      	str	r7, [r4, #20]
10000c8a:	46c0      	nop			; (mov r8, r8)
10000c8c:	46c0      	nop			; (mov r8, r8)
10000c8e:	46c0      	nop			; (mov r8, r8)
10000c90:	2201      	movs	r2, #1
10000c92:	0029      	movs	r1, r5
10000c94:	4640      	mov	r0, r8
10000c96:	f00a facb 	bl	1000b230 <__spi_write_blocking_veneer>
10000c9a:	46c0      	nop			; (mov r8, r8)
10000c9c:	46c0      	nop			; (mov r8, r8)
10000c9e:	46c0      	nop			; (mov r8, r8)
10000ca0:	6166      	str	r6, [r4, #20]
10000ca2:	46c0      	nop			; (mov r8, r8)
10000ca4:	46c0      	nop			; (mov r8, r8)
10000ca6:	46c0      	nop			; (mov r8, r8)
10000ca8:	233a      	movs	r3, #58	; 0x3a
10000caa:	702b      	strb	r3, [r5, #0]
10000cac:	46c0      	nop			; (mov r8, r8)
10000cae:	46c0      	nop			; (mov r8, r8)
10000cb0:	46c0      	nop			; (mov r8, r8)
10000cb2:	61a7      	str	r7, [r4, #24]
10000cb4:	46c0      	nop			; (mov r8, r8)
10000cb6:	46c0      	nop			; (mov r8, r8)
10000cb8:	46c0      	nop			; (mov r8, r8)
10000cba:	46c0      	nop			; (mov r8, r8)
10000cbc:	46c0      	nop			; (mov r8, r8)
10000cbe:	46c0      	nop			; (mov r8, r8)
10000cc0:	61a6      	str	r6, [r4, #24]
10000cc2:	46c0      	nop			; (mov r8, r8)
10000cc4:	46c0      	nop			; (mov r8, r8)
10000cc6:	46c0      	nop			; (mov r8, r8)
10000cc8:	2201      	movs	r2, #1
10000cca:	0029      	movs	r1, r5
10000ccc:	4640      	mov	r0, r8
10000cce:	f00a faaf 	bl	1000b230 <__spi_write_blocking_veneer>
10000cd2:	46c0      	nop			; (mov r8, r8)
10000cd4:	46c0      	nop			; (mov r8, r8)
10000cd6:	46c0      	nop			; (mov r8, r8)
10000cd8:	6167      	str	r7, [r4, #20]
10000cda:	46c0      	nop			; (mov r8, r8)
10000cdc:	46c0      	nop			; (mov r8, r8)
10000cde:	46c0      	nop			; (mov r8, r8)
10000ce0:	46c0      	nop			; (mov r8, r8)
10000ce2:	46c0      	nop			; (mov r8, r8)
10000ce4:	46c0      	nop			; (mov r8, r8)
10000ce6:	6166      	str	r6, [r4, #20]
10000ce8:	46c0      	nop			; (mov r8, r8)
10000cea:	46c0      	nop			; (mov r8, r8)
10000cec:	46c0      	nop			; (mov r8, r8)
10000cee:	2355      	movs	r3, #85	; 0x55
10000cf0:	702b      	strb	r3, [r5, #0]
10000cf2:	46c0      	nop			; (mov r8, r8)
10000cf4:	46c0      	nop			; (mov r8, r8)
10000cf6:	46c0      	nop			; (mov r8, r8)
10000cf8:	61a6      	str	r6, [r4, #24]
10000cfa:	46c0      	nop			; (mov r8, r8)
10000cfc:	46c0      	nop			; (mov r8, r8)
10000cfe:	46c0      	nop			; (mov r8, r8)
10000d00:	46c0      	nop			; (mov r8, r8)
10000d02:	46c0      	nop			; (mov r8, r8)
10000d04:	46c0      	nop			; (mov r8, r8)
10000d06:	6167      	str	r7, [r4, #20]
10000d08:	46c0      	nop			; (mov r8, r8)
10000d0a:	46c0      	nop			; (mov r8, r8)
10000d0c:	46c0      	nop			; (mov r8, r8)
10000d0e:	2201      	movs	r2, #1
10000d10:	0029      	movs	r1, r5
10000d12:	4640      	mov	r0, r8
10000d14:	f00a fa8c 	bl	1000b230 <__spi_write_blocking_veneer>
10000d18:	46c0      	nop			; (mov r8, r8)
10000d1a:	46c0      	nop			; (mov r8, r8)
10000d1c:	46c0      	nop			; (mov r8, r8)
10000d1e:	6166      	str	r6, [r4, #20]
10000d20:	46c0      	nop			; (mov r8, r8)
10000d22:	46c0      	nop			; (mov r8, r8)
10000d24:	46c0      	nop			; (mov r8, r8)
10000d26:	23b1      	movs	r3, #177	; 0xb1
10000d28:	702b      	strb	r3, [r5, #0]
10000d2a:	46c0      	nop			; (mov r8, r8)
10000d2c:	46c0      	nop			; (mov r8, r8)
10000d2e:	46c0      	nop			; (mov r8, r8)
10000d30:	61a7      	str	r7, [r4, #24]
10000d32:	46c0      	nop			; (mov r8, r8)
10000d34:	46c0      	nop			; (mov r8, r8)
10000d36:	46c0      	nop			; (mov r8, r8)
10000d38:	46c0      	nop			; (mov r8, r8)
10000d3a:	46c0      	nop			; (mov r8, r8)
10000d3c:	46c0      	nop			; (mov r8, r8)
10000d3e:	61a6      	str	r6, [r4, #24]
10000d40:	46c0      	nop			; (mov r8, r8)
10000d42:	46c0      	nop			; (mov r8, r8)
10000d44:	46c0      	nop			; (mov r8, r8)
10000d46:	2201      	movs	r2, #1
10000d48:	0029      	movs	r1, r5
10000d4a:	4640      	mov	r0, r8
10000d4c:	f00a fa70 	bl	1000b230 <__spi_write_blocking_veneer>
10000d50:	46c0      	nop			; (mov r8, r8)
10000d52:	46c0      	nop			; (mov r8, r8)
10000d54:	46c0      	nop			; (mov r8, r8)
10000d56:	6167      	str	r7, [r4, #20]
10000d58:	46c0      	nop			; (mov r8, r8)
10000d5a:	46c0      	nop			; (mov r8, r8)
10000d5c:	46c0      	nop			; (mov r8, r8)
10000d5e:	46c0      	nop			; (mov r8, r8)
10000d60:	46c0      	nop			; (mov r8, r8)
10000d62:	46c0      	nop			; (mov r8, r8)
10000d64:	6166      	str	r6, [r4, #20]
10000d66:	46c0      	nop			; (mov r8, r8)
10000d68:	46c0      	nop			; (mov r8, r8)
10000d6a:	46c0      	nop			; (mov r8, r8)
10000d6c:	2300      	movs	r3, #0
10000d6e:	469a      	mov	sl, r3
10000d70:	702b      	strb	r3, [r5, #0]
10000d72:	46c0      	nop			; (mov r8, r8)
10000d74:	46c0      	nop			; (mov r8, r8)
10000d76:	46c0      	nop			; (mov r8, r8)
10000d78:	61a6      	str	r6, [r4, #24]
10000d7a:	46c0      	nop			; (mov r8, r8)
10000d7c:	46c0      	nop			; (mov r8, r8)
10000d7e:	46c0      	nop			; (mov r8, r8)
10000d80:	46c0      	nop			; (mov r8, r8)
10000d82:	46c0      	nop			; (mov r8, r8)
10000d84:	46c0      	nop			; (mov r8, r8)
10000d86:	6167      	str	r7, [r4, #20]
10000d88:	46c0      	nop			; (mov r8, r8)
10000d8a:	46c0      	nop			; (mov r8, r8)
10000d8c:	46c0      	nop			; (mov r8, r8)
10000d8e:	2201      	movs	r2, #1
10000d90:	0029      	movs	r1, r5
10000d92:	4640      	mov	r0, r8
10000d94:	f00a fa4c 	bl	1000b230 <__spi_write_blocking_veneer>
10000d98:	46c0      	nop			; (mov r8, r8)
10000d9a:	46c0      	nop			; (mov r8, r8)
10000d9c:	46c0      	nop			; (mov r8, r8)
10000d9e:	6166      	str	r6, [r4, #20]
10000da0:	46c0      	nop			; (mov r8, r8)
10000da2:	46c0      	nop			; (mov r8, r8)
10000da4:	46c0      	nop			; (mov r8, r8)
10000da6:	231f      	movs	r3, #31
10000da8:	702b      	strb	r3, [r5, #0]
10000daa:	46c0      	nop			; (mov r8, r8)
10000dac:	46c0      	nop			; (mov r8, r8)
10000dae:	46c0      	nop			; (mov r8, r8)
10000db0:	61a6      	str	r6, [r4, #24]
10000db2:	46c0      	nop			; (mov r8, r8)
10000db4:	46c0      	nop			; (mov r8, r8)
10000db6:	46c0      	nop			; (mov r8, r8)
10000db8:	46c0      	nop			; (mov r8, r8)
10000dba:	46c0      	nop			; (mov r8, r8)
10000dbc:	46c0      	nop			; (mov r8, r8)
10000dbe:	6167      	str	r7, [r4, #20]
10000dc0:	46c0      	nop			; (mov r8, r8)
10000dc2:	46c0      	nop			; (mov r8, r8)
10000dc4:	46c0      	nop			; (mov r8, r8)
10000dc6:	2201      	movs	r2, #1
10000dc8:	0029      	movs	r1, r5
10000dca:	4640      	mov	r0, r8
10000dcc:	f00a fa30 	bl	1000b230 <__spi_write_blocking_veneer>
10000dd0:	46c0      	nop			; (mov r8, r8)
10000dd2:	46c0      	nop			; (mov r8, r8)
10000dd4:	46c0      	nop			; (mov r8, r8)
10000dd6:	6166      	str	r6, [r4, #20]
10000dd8:	46c0      	nop			; (mov r8, r8)
10000dda:	46c0      	nop			; (mov r8, r8)
10000ddc:	46c0      	nop			; (mov r8, r8)
10000dde:	23b6      	movs	r3, #182	; 0xb6
10000de0:	702b      	strb	r3, [r5, #0]
10000de2:	46c0      	nop			; (mov r8, r8)
10000de4:	46c0      	nop			; (mov r8, r8)
10000de6:	46c0      	nop			; (mov r8, r8)
10000de8:	61a7      	str	r7, [r4, #24]
10000dea:	46c0      	nop			; (mov r8, r8)
10000dec:	46c0      	nop			; (mov r8, r8)
10000dee:	46c0      	nop			; (mov r8, r8)
10000df0:	46c0      	nop			; (mov r8, r8)
10000df2:	46c0      	nop			; (mov r8, r8)
10000df4:	46c0      	nop			; (mov r8, r8)
10000df6:	61a6      	str	r6, [r4, #24]
10000df8:	46c0      	nop			; (mov r8, r8)
10000dfa:	46c0      	nop			; (mov r8, r8)
10000dfc:	46c0      	nop			; (mov r8, r8)
10000dfe:	2201      	movs	r2, #1
10000e00:	0029      	movs	r1, r5
10000e02:	4640      	mov	r0, r8
10000e04:	f00a fa14 	bl	1000b230 <__spi_write_blocking_veneer>
10000e08:	46c0      	nop			; (mov r8, r8)
10000e0a:	46c0      	nop			; (mov r8, r8)
10000e0c:	46c0      	nop			; (mov r8, r8)
10000e0e:	6167      	str	r7, [r4, #20]
10000e10:	46c0      	nop			; (mov r8, r8)
10000e12:	46c0      	nop			; (mov r8, r8)
10000e14:	46c0      	nop			; (mov r8, r8)
10000e16:	46c0      	nop			; (mov r8, r8)
10000e18:	46c0      	nop			; (mov r8, r8)
10000e1a:	46c0      	nop			; (mov r8, r8)
10000e1c:	6166      	str	r6, [r4, #20]
10000e1e:	46c0      	nop			; (mov r8, r8)
10000e20:	46c0      	nop			; (mov r8, r8)
10000e22:	46c0      	nop			; (mov r8, r8)
10000e24:	2308      	movs	r3, #8
10000e26:	469b      	mov	fp, r3
10000e28:	702b      	strb	r3, [r5, #0]
10000e2a:	46c0      	nop			; (mov r8, r8)
10000e2c:	46c0      	nop			; (mov r8, r8)
10000e2e:	46c0      	nop			; (mov r8, r8)
10000e30:	61a6      	str	r6, [r4, #24]
10000e32:	46c0      	nop			; (mov r8, r8)
10000e34:	46c0      	nop			; (mov r8, r8)
10000e36:	46c0      	nop			; (mov r8, r8)
10000e38:	46c0      	nop			; (mov r8, r8)
10000e3a:	46c0      	nop			; (mov r8, r8)
10000e3c:	46c0      	nop			; (mov r8, r8)
10000e3e:	6167      	str	r7, [r4, #20]
10000e40:	46c0      	nop			; (mov r8, r8)
10000e42:	46c0      	nop			; (mov r8, r8)
10000e44:	46c0      	nop			; (mov r8, r8)
10000e46:	2201      	movs	r2, #1
10000e48:	0029      	movs	r1, r5
10000e4a:	4640      	mov	r0, r8
10000e4c:	f00a f9f0 	bl	1000b230 <__spi_write_blocking_veneer>
10000e50:	46c0      	nop			; (mov r8, r8)
10000e52:	46c0      	nop			; (mov r8, r8)
10000e54:	46c0      	nop			; (mov r8, r8)
10000e56:	6166      	str	r6, [r4, #20]
10000e58:	46c0      	nop			; (mov r8, r8)
10000e5a:	46c0      	nop			; (mov r8, r8)
10000e5c:	46c0      	nop			; (mov r8, r8)
10000e5e:	2382      	movs	r3, #130	; 0x82
10000e60:	702b      	strb	r3, [r5, #0]
10000e62:	46c0      	nop			; (mov r8, r8)
10000e64:	46c0      	nop			; (mov r8, r8)
10000e66:	46c0      	nop			; (mov r8, r8)
10000e68:	61a6      	str	r6, [r4, #24]
10000e6a:	46c0      	nop			; (mov r8, r8)
10000e6c:	46c0      	nop			; (mov r8, r8)
10000e6e:	46c0      	nop			; (mov r8, r8)
10000e70:	46c0      	nop			; (mov r8, r8)
10000e72:	46c0      	nop			; (mov r8, r8)
10000e74:	46c0      	nop			; (mov r8, r8)
10000e76:	6167      	str	r7, [r4, #20]
10000e78:	46c0      	nop			; (mov r8, r8)
10000e7a:	46c0      	nop			; (mov r8, r8)
10000e7c:	46c0      	nop			; (mov r8, r8)
10000e7e:	2201      	movs	r2, #1
10000e80:	0029      	movs	r1, r5
10000e82:	4640      	mov	r0, r8
10000e84:	f00a f9d4 	bl	1000b230 <__spi_write_blocking_veneer>
10000e88:	46c0      	nop			; (mov r8, r8)
10000e8a:	46c0      	nop			; (mov r8, r8)
10000e8c:	46c0      	nop			; (mov r8, r8)
10000e8e:	6166      	str	r6, [r4, #20]
10000e90:	46c0      	nop			; (mov r8, r8)
10000e92:	46c0      	nop			; (mov r8, r8)
10000e94:	46c0      	nop			; (mov r8, r8)
10000e96:	2327      	movs	r3, #39	; 0x27
10000e98:	702b      	strb	r3, [r5, #0]
10000e9a:	46c0      	nop			; (mov r8, r8)
10000e9c:	46c0      	nop			; (mov r8, r8)
10000e9e:	46c0      	nop			; (mov r8, r8)
10000ea0:	61a6      	str	r6, [r4, #24]
10000ea2:	46c0      	nop			; (mov r8, r8)
10000ea4:	46c0      	nop			; (mov r8, r8)
10000ea6:	46c0      	nop			; (mov r8, r8)
10000ea8:	46c0      	nop			; (mov r8, r8)
10000eaa:	46c0      	nop			; (mov r8, r8)
10000eac:	46c0      	nop			; (mov r8, r8)
10000eae:	6167      	str	r7, [r4, #20]
10000eb0:	46c0      	nop			; (mov r8, r8)
10000eb2:	46c0      	nop			; (mov r8, r8)
10000eb4:	46c0      	nop			; (mov r8, r8)
10000eb6:	2201      	movs	r2, #1
10000eb8:	0029      	movs	r1, r5
10000eba:	4640      	mov	r0, r8
10000ebc:	f00a f9b8 	bl	1000b230 <__spi_write_blocking_veneer>
10000ec0:	46c0      	nop			; (mov r8, r8)
10000ec2:	46c0      	nop			; (mov r8, r8)
10000ec4:	46c0      	nop			; (mov r8, r8)
10000ec6:	6166      	str	r6, [r4, #20]
10000ec8:	46c0      	nop			; (mov r8, r8)
10000eca:	46c0      	nop			; (mov r8, r8)
10000ecc:	46c0      	nop			; (mov r8, r8)
10000ece:	23f2      	movs	r3, #242	; 0xf2
10000ed0:	702b      	strb	r3, [r5, #0]
10000ed2:	46c0      	nop			; (mov r8, r8)
10000ed4:	46c0      	nop			; (mov r8, r8)
10000ed6:	46c0      	nop			; (mov r8, r8)
10000ed8:	61a7      	str	r7, [r4, #24]
10000eda:	46c0      	nop			; (mov r8, r8)
10000edc:	46c0      	nop			; (mov r8, r8)
10000ede:	46c0      	nop			; (mov r8, r8)
10000ee0:	46c0      	nop			; (mov r8, r8)
10000ee2:	46c0      	nop			; (mov r8, r8)
10000ee4:	46c0      	nop			; (mov r8, r8)
10000ee6:	61a6      	str	r6, [r4, #24]
10000ee8:	46c0      	nop			; (mov r8, r8)
10000eea:	46c0      	nop			; (mov r8, r8)
10000eec:	46c0      	nop			; (mov r8, r8)
10000eee:	2201      	movs	r2, #1
10000ef0:	0029      	movs	r1, r5
10000ef2:	4640      	mov	r0, r8
10000ef4:	f00a f99c 	bl	1000b230 <__spi_write_blocking_veneer>
10000ef8:	46c0      	nop			; (mov r8, r8)
10000efa:	46c0      	nop			; (mov r8, r8)
10000efc:	46c0      	nop			; (mov r8, r8)
10000efe:	6167      	str	r7, [r4, #20]
10000f00:	46c0      	nop			; (mov r8, r8)
10000f02:	46c0      	nop			; (mov r8, r8)
10000f04:	46c0      	nop			; (mov r8, r8)
10000f06:	46c0      	nop			; (mov r8, r8)
10000f08:	46c0      	nop			; (mov r8, r8)
10000f0a:	46c0      	nop			; (mov r8, r8)
10000f0c:	6166      	str	r6, [r4, #20]
10000f0e:	46c0      	nop			; (mov r8, r8)
10000f10:	46c0      	nop			; (mov r8, r8)
10000f12:	46c0      	nop			; (mov r8, r8)
10000f14:	464b      	mov	r3, r9
10000f16:	702b      	strb	r3, [r5, #0]
10000f18:	46c0      	nop			; (mov r8, r8)
10000f1a:	46c0      	nop			; (mov r8, r8)
10000f1c:	46c0      	nop			; (mov r8, r8)
10000f1e:	61a6      	str	r6, [r4, #24]
10000f20:	46c0      	nop			; (mov r8, r8)
10000f22:	46c0      	nop			; (mov r8, r8)
10000f24:	46c0      	nop			; (mov r8, r8)
10000f26:	46c0      	nop			; (mov r8, r8)
10000f28:	46c0      	nop			; (mov r8, r8)
10000f2a:	46c0      	nop			; (mov r8, r8)
10000f2c:	6167      	str	r7, [r4, #20]
10000f2e:	46c0      	nop			; (mov r8, r8)
10000f30:	46c0      	nop			; (mov r8, r8)
10000f32:	46c0      	nop			; (mov r8, r8)
10000f34:	2201      	movs	r2, #1
10000f36:	0029      	movs	r1, r5
10000f38:	4640      	mov	r0, r8
10000f3a:	f00a f979 	bl	1000b230 <__spi_write_blocking_veneer>
10000f3e:	46c0      	nop			; (mov r8, r8)
10000f40:	46c0      	nop			; (mov r8, r8)
10000f42:	46c0      	nop			; (mov r8, r8)
10000f44:	6166      	str	r6, [r4, #20]
10000f46:	46c0      	nop			; (mov r8, r8)
10000f48:	46c0      	nop			; (mov r8, r8)
10000f4a:	46c0      	nop			; (mov r8, r8)
10000f4c:	2326      	movs	r3, #38	; 0x26
10000f4e:	702b      	strb	r3, [r5, #0]
10000f50:	46c0      	nop			; (mov r8, r8)
10000f52:	46c0      	nop			; (mov r8, r8)
10000f54:	46c0      	nop			; (mov r8, r8)
10000f56:	61a7      	str	r7, [r4, #24]
10000f58:	46c0      	nop			; (mov r8, r8)
10000f5a:	46c0      	nop			; (mov r8, r8)
10000f5c:	46c0      	nop			; (mov r8, r8)
10000f5e:	46c0      	nop			; (mov r8, r8)
10000f60:	46c0      	nop			; (mov r8, r8)
10000f62:	46c0      	nop			; (mov r8, r8)
10000f64:	61a6      	str	r6, [r4, #24]
10000f66:	46c0      	nop			; (mov r8, r8)
10000f68:	46c0      	nop			; (mov r8, r8)
10000f6a:	46c0      	nop			; (mov r8, r8)
10000f6c:	2201      	movs	r2, #1
10000f6e:	0029      	movs	r1, r5
10000f70:	4640      	mov	r0, r8
10000f72:	f00a f95d 	bl	1000b230 <__spi_write_blocking_veneer>
10000f76:	46c0      	nop			; (mov r8, r8)
10000f78:	46c0      	nop			; (mov r8, r8)
10000f7a:	46c0      	nop			; (mov r8, r8)
10000f7c:	6167      	str	r7, [r4, #20]
10000f7e:	46c0      	nop			; (mov r8, r8)
10000f80:	46c0      	nop			; (mov r8, r8)
10000f82:	46c0      	nop			; (mov r8, r8)
10000f84:	46c0      	nop			; (mov r8, r8)
10000f86:	46c0      	nop			; (mov r8, r8)
10000f88:	46c0      	nop			; (mov r8, r8)
10000f8a:	6166      	str	r6, [r4, #20]
10000f8c:	46c0      	nop			; (mov r8, r8)
10000f8e:	46c0      	nop			; (mov r8, r8)
10000f90:	46c0      	nop			; (mov r8, r8)
10000f92:	2301      	movs	r3, #1
10000f94:	702b      	strb	r3, [r5, #0]
10000f96:	46c0      	nop			; (mov r8, r8)
10000f98:	46c0      	nop			; (mov r8, r8)
10000f9a:	46c0      	nop			; (mov r8, r8)
10000f9c:	61a6      	str	r6, [r4, #24]
10000f9e:	46c0      	nop			; (mov r8, r8)
10000fa0:	46c0      	nop			; (mov r8, r8)
10000fa2:	46c0      	nop			; (mov r8, r8)
10000fa4:	46c0      	nop			; (mov r8, r8)
10000fa6:	46c0      	nop			; (mov r8, r8)
10000fa8:	46c0      	nop			; (mov r8, r8)
10000faa:	6167      	str	r7, [r4, #20]
10000fac:	46c0      	nop			; (mov r8, r8)
10000fae:	46c0      	nop			; (mov r8, r8)
10000fb0:	46c0      	nop			; (mov r8, r8)
10000fb2:	2201      	movs	r2, #1
10000fb4:	0029      	movs	r1, r5
10000fb6:	4640      	mov	r0, r8
10000fb8:	f00a f93a 	bl	1000b230 <__spi_write_blocking_veneer>
10000fbc:	46c0      	nop			; (mov r8, r8)
10000fbe:	46c0      	nop			; (mov r8, r8)
10000fc0:	46c0      	nop			; (mov r8, r8)
10000fc2:	6166      	str	r6, [r4, #20]
10000fc4:	46c0      	nop			; (mov r8, r8)
10000fc6:	46c0      	nop			; (mov r8, r8)
10000fc8:	46c0      	nop			; (mov r8, r8)
10000fca:	23e0      	movs	r3, #224	; 0xe0
10000fcc:	702b      	strb	r3, [r5, #0]
10000fce:	46c0      	nop			; (mov r8, r8)
10000fd0:	46c0      	nop			; (mov r8, r8)
10000fd2:	46c0      	nop			; (mov r8, r8)
10000fd4:	61a7      	str	r7, [r4, #24]
10000fd6:	46c0      	nop			; (mov r8, r8)
10000fd8:	46c0      	nop			; (mov r8, r8)
10000fda:	46c0      	nop			; (mov r8, r8)
10000fdc:	46c0      	nop			; (mov r8, r8)
10000fde:	46c0      	nop			; (mov r8, r8)
10000fe0:	46c0      	nop			; (mov r8, r8)
10000fe2:	61a6      	str	r6, [r4, #24]
10000fe4:	46c0      	nop			; (mov r8, r8)
10000fe6:	46c0      	nop			; (mov r8, r8)
10000fe8:	46c0      	nop			; (mov r8, r8)
10000fea:	2201      	movs	r2, #1
10000fec:	0029      	movs	r1, r5
10000fee:	4640      	mov	r0, r8
10000ff0:	f00a f91e 	bl	1000b230 <__spi_write_blocking_veneer>
10000ff4:	46c0      	nop			; (mov r8, r8)
10000ff6:	46c0      	nop			; (mov r8, r8)
10000ff8:	46c0      	nop			; (mov r8, r8)
10000ffa:	6167      	str	r7, [r4, #20]
10000ffc:	46c0      	nop			; (mov r8, r8)
10000ffe:	46c0      	nop			; (mov r8, r8)
10001000:	46c0      	nop			; (mov r8, r8)
10001002:	46c0      	nop			; (mov r8, r8)
10001004:	46c0      	nop			; (mov r8, r8)
10001006:	46c0      	nop			; (mov r8, r8)
10001008:	6166      	str	r6, [r4, #20]
1000100a:	46c0      	nop			; (mov r8, r8)
1000100c:	46c0      	nop			; (mov r8, r8)
1000100e:	46c0      	nop			; (mov r8, r8)
10001010:	230f      	movs	r3, #15
10001012:	702b      	strb	r3, [r5, #0]
10001014:	46c0      	nop			; (mov r8, r8)
10001016:	46c0      	nop			; (mov r8, r8)
10001018:	46c0      	nop			; (mov r8, r8)
1000101a:	61a6      	str	r6, [r4, #24]
1000101c:	46c0      	nop			; (mov r8, r8)
1000101e:	46c0      	nop			; (mov r8, r8)
10001020:	46c0      	nop			; (mov r8, r8)
10001022:	46c0      	nop			; (mov r8, r8)
10001024:	46c0      	nop			; (mov r8, r8)
10001026:	46c0      	nop			; (mov r8, r8)
10001028:	6167      	str	r7, [r4, #20]
1000102a:	46c0      	nop			; (mov r8, r8)
1000102c:	46c0      	nop			; (mov r8, r8)
1000102e:	46c0      	nop			; (mov r8, r8)
10001030:	2201      	movs	r2, #1
10001032:	0029      	movs	r1, r5
10001034:	4640      	mov	r0, r8
10001036:	f00a f8fb 	bl	1000b230 <__spi_write_blocking_veneer>
1000103a:	46c0      	nop			; (mov r8, r8)
1000103c:	46c0      	nop			; (mov r8, r8)
1000103e:	46c0      	nop			; (mov r8, r8)
10001040:	6166      	str	r6, [r4, #20]
10001042:	46c0      	nop			; (mov r8, r8)
10001044:	46c0      	nop			; (mov r8, r8)
10001046:	46c0      	nop			; (mov r8, r8)
10001048:	2331      	movs	r3, #49	; 0x31
1000104a:	702b      	strb	r3, [r5, #0]
1000104c:	46c0      	nop			; (mov r8, r8)
1000104e:	46c0      	nop			; (mov r8, r8)
10001050:	46c0      	nop			; (mov r8, r8)
10001052:	61a6      	str	r6, [r4, #24]
10001054:	46c0      	nop			; (mov r8, r8)
10001056:	46c0      	nop			; (mov r8, r8)
10001058:	46c0      	nop			; (mov r8, r8)
1000105a:	46c0      	nop			; (mov r8, r8)
1000105c:	46c0      	nop			; (mov r8, r8)
1000105e:	46c0      	nop			; (mov r8, r8)
10001060:	6167      	str	r7, [r4, #20]
10001062:	46c0      	nop			; (mov r8, r8)
10001064:	46c0      	nop			; (mov r8, r8)
10001066:	46c0      	nop			; (mov r8, r8)
10001068:	2201      	movs	r2, #1
1000106a:	0029      	movs	r1, r5
1000106c:	4640      	mov	r0, r8
1000106e:	f00a f8df 	bl	1000b230 <__spi_write_blocking_veneer>
10001072:	46c0      	nop			; (mov r8, r8)
10001074:	46c0      	nop			; (mov r8, r8)
10001076:	46c0      	nop			; (mov r8, r8)
10001078:	6166      	str	r6, [r4, #20]
1000107a:	46c0      	nop			; (mov r8, r8)
1000107c:	46c0      	nop			; (mov r8, r8)
1000107e:	46c0      	nop			; (mov r8, r8)
10001080:	232b      	movs	r3, #43	; 0x2b
10001082:	702b      	strb	r3, [r5, #0]
10001084:	46c0      	nop			; (mov r8, r8)
10001086:	46c0      	nop			; (mov r8, r8)
10001088:	46c0      	nop			; (mov r8, r8)
1000108a:	61a6      	str	r6, [r4, #24]
1000108c:	46c0      	nop			; (mov r8, r8)
1000108e:	46c0      	nop			; (mov r8, r8)
10001090:	46c0      	nop			; (mov r8, r8)
10001092:	46c0      	nop			; (mov r8, r8)
10001094:	46c0      	nop			; (mov r8, r8)
10001096:	46c0      	nop			; (mov r8, r8)
10001098:	6167      	str	r7, [r4, #20]
1000109a:	46c0      	nop			; (mov r8, r8)
1000109c:	46c0      	nop			; (mov r8, r8)
1000109e:	46c0      	nop			; (mov r8, r8)
100010a0:	2201      	movs	r2, #1
100010a2:	0029      	movs	r1, r5
100010a4:	4640      	mov	r0, r8
100010a6:	f00a f8c3 	bl	1000b230 <__spi_write_blocking_veneer>
100010aa:	46c0      	nop			; (mov r8, r8)
100010ac:	46c0      	nop			; (mov r8, r8)
100010ae:	46c0      	nop			; (mov r8, r8)
100010b0:	6166      	str	r6, [r4, #20]
100010b2:	46c0      	nop			; (mov r8, r8)
100010b4:	46c0      	nop			; (mov r8, r8)
100010b6:	46c0      	nop			; (mov r8, r8)
100010b8:	230c      	movs	r3, #12
100010ba:	702b      	strb	r3, [r5, #0]
100010bc:	46c0      	nop			; (mov r8, r8)
100010be:	46c0      	nop			; (mov r8, r8)
100010c0:	46c0      	nop			; (mov r8, r8)
100010c2:	61a6      	str	r6, [r4, #24]
100010c4:	46c0      	nop			; (mov r8, r8)
100010c6:	46c0      	nop			; (mov r8, r8)
100010c8:	46c0      	nop			; (mov r8, r8)
100010ca:	46c0      	nop			; (mov r8, r8)
100010cc:	46c0      	nop			; (mov r8, r8)
100010ce:	46c0      	nop			; (mov r8, r8)
100010d0:	6167      	str	r7, [r4, #20]
100010d2:	46c0      	nop			; (mov r8, r8)
100010d4:	46c0      	nop			; (mov r8, r8)
100010d6:	46c0      	nop			; (mov r8, r8)
100010d8:	2201      	movs	r2, #1
100010da:	0029      	movs	r1, r5
100010dc:	4640      	mov	r0, r8
100010de:	f00a f8a7 	bl	1000b230 <__spi_write_blocking_veneer>
100010e2:	46c0      	nop			; (mov r8, r8)
100010e4:	46c0      	nop			; (mov r8, r8)
100010e6:	46c0      	nop			; (mov r8, r8)
100010e8:	6166      	str	r6, [r4, #20]
100010ea:	46c0      	nop			; (mov r8, r8)
100010ec:	46c0      	nop			; (mov r8, r8)
100010ee:	46c0      	nop			; (mov r8, r8)
100010f0:	220e      	movs	r2, #14
100010f2:	4691      	mov	r9, r2
100010f4:	702a      	strb	r2, [r5, #0]
100010f6:	46c0      	nop			; (mov r8, r8)
100010f8:	46c0      	nop			; (mov r8, r8)
100010fa:	46c0      	nop			; (mov r8, r8)
100010fc:	61a6      	str	r6, [r4, #24]
100010fe:	46c0      	nop			; (mov r8, r8)
10001100:	46c0      	nop			; (mov r8, r8)
10001102:	46c0      	nop			; (mov r8, r8)
10001104:	46c0      	nop			; (mov r8, r8)
10001106:	46c0      	nop			; (mov r8, r8)
10001108:	46c0      	nop			; (mov r8, r8)
1000110a:	6167      	str	r7, [r4, #20]
1000110c:	46c0      	nop			; (mov r8, r8)
1000110e:	46c0      	nop			; (mov r8, r8)
10001110:	46c0      	nop			; (mov r8, r8)
10001112:	0029      	movs	r1, r5
10001114:	4640      	mov	r0, r8
10001116:	3a0d      	subs	r2, #13
10001118:	f00a f88a 	bl	1000b230 <__spi_write_blocking_veneer>
1000111c:	46c0      	nop			; (mov r8, r8)
1000111e:	46c0      	nop			; (mov r8, r8)
10001120:	46c0      	nop			; (mov r8, r8)
10001122:	6166      	str	r6, [r4, #20]
10001124:	46c0      	nop			; (mov r8, r8)
10001126:	46c0      	nop			; (mov r8, r8)
10001128:	46c0      	nop			; (mov r8, r8)
1000112a:	465a      	mov	r2, fp
1000112c:	702a      	strb	r2, [r5, #0]
1000112e:	46c0      	nop			; (mov r8, r8)
10001130:	46c0      	nop			; (mov r8, r8)
10001132:	46c0      	nop			; (mov r8, r8)
10001134:	61a6      	str	r6, [r4, #24]
10001136:	46c0      	nop			; (mov r8, r8)
10001138:	46c0      	nop			; (mov r8, r8)
1000113a:	46c0      	nop			; (mov r8, r8)
1000113c:	46c0      	nop			; (mov r8, r8)
1000113e:	46c0      	nop			; (mov r8, r8)
10001140:	46c0      	nop			; (mov r8, r8)
10001142:	6167      	str	r7, [r4, #20]
10001144:	46c0      	nop			; (mov r8, r8)
10001146:	46c0      	nop			; (mov r8, r8)
10001148:	46c0      	nop			; (mov r8, r8)
1000114a:	0029      	movs	r1, r5
1000114c:	4640      	mov	r0, r8
1000114e:	3a07      	subs	r2, #7
10001150:	f00a f86e 	bl	1000b230 <__spi_write_blocking_veneer>
10001154:	46c0      	nop			; (mov r8, r8)
10001156:	46c0      	nop			; (mov r8, r8)
10001158:	46c0      	nop			; (mov r8, r8)
1000115a:	6166      	str	r6, [r4, #20]
1000115c:	46c0      	nop			; (mov r8, r8)
1000115e:	46c0      	nop			; (mov r8, r8)
10001160:	46c0      	nop			; (mov r8, r8)
10001162:	234e      	movs	r3, #78	; 0x4e
10001164:	702b      	strb	r3, [r5, #0]
10001166:	46c0      	nop			; (mov r8, r8)
10001168:	46c0      	nop			; (mov r8, r8)
1000116a:	46c0      	nop			; (mov r8, r8)
1000116c:	61a6      	str	r6, [r4, #24]
1000116e:	46c0      	nop			; (mov r8, r8)
10001170:	46c0      	nop			; (mov r8, r8)
10001172:	46c0      	nop			; (mov r8, r8)
10001174:	46c0      	nop			; (mov r8, r8)
10001176:	46c0      	nop			; (mov r8, r8)
10001178:	46c0      	nop			; (mov r8, r8)
1000117a:	6167      	str	r7, [r4, #20]
1000117c:	46c0      	nop			; (mov r8, r8)
1000117e:	46c0      	nop			; (mov r8, r8)
10001180:	46c0      	nop			; (mov r8, r8)
10001182:	2201      	movs	r2, #1
10001184:	0029      	movs	r1, r5
10001186:	4640      	mov	r0, r8
10001188:	f00a f852 	bl	1000b230 <__spi_write_blocking_veneer>
1000118c:	46c0      	nop			; (mov r8, r8)
1000118e:	46c0      	nop			; (mov r8, r8)
10001190:	46c0      	nop			; (mov r8, r8)
10001192:	6166      	str	r6, [r4, #20]
10001194:	46c0      	nop			; (mov r8, r8)
10001196:	46c0      	nop			; (mov r8, r8)
10001198:	46c0      	nop			; (mov r8, r8)
1000119a:	23f1      	movs	r3, #241	; 0xf1
1000119c:	702b      	strb	r3, [r5, #0]
1000119e:	46c0      	nop			; (mov r8, r8)
100011a0:	46c0      	nop			; (mov r8, r8)
100011a2:	46c0      	nop			; (mov r8, r8)
100011a4:	61a6      	str	r6, [r4, #24]
100011a6:	46c0      	nop			; (mov r8, r8)
100011a8:	46c0      	nop			; (mov r8, r8)
100011aa:	46c0      	nop			; (mov r8, r8)
100011ac:	46c0      	nop			; (mov r8, r8)
100011ae:	46c0      	nop			; (mov r8, r8)
100011b0:	46c0      	nop			; (mov r8, r8)
100011b2:	6167      	str	r7, [r4, #20]
100011b4:	46c0      	nop			; (mov r8, r8)
100011b6:	46c0      	nop			; (mov r8, r8)
100011b8:	46c0      	nop			; (mov r8, r8)
100011ba:	2201      	movs	r2, #1
100011bc:	0029      	movs	r1, r5
100011be:	4640      	mov	r0, r8
100011c0:	f00a f836 	bl	1000b230 <__spi_write_blocking_veneer>
100011c4:	46c0      	nop			; (mov r8, r8)
100011c6:	46c0      	nop			; (mov r8, r8)
100011c8:	46c0      	nop			; (mov r8, r8)
100011ca:	6166      	str	r6, [r4, #20]
100011cc:	46c0      	nop			; (mov r8, r8)
100011ce:	46c0      	nop			; (mov r8, r8)
100011d0:	46c0      	nop			; (mov r8, r8)
100011d2:	2337      	movs	r3, #55	; 0x37
100011d4:	702b      	strb	r3, [r5, #0]
100011d6:	46c0      	nop			; (mov r8, r8)
100011d8:	46c0      	nop			; (mov r8, r8)
100011da:	46c0      	nop			; (mov r8, r8)
100011dc:	61a6      	str	r6, [r4, #24]
100011de:	46c0      	nop			; (mov r8, r8)
100011e0:	46c0      	nop			; (mov r8, r8)
100011e2:	46c0      	nop			; (mov r8, r8)
100011e4:	46c0      	nop			; (mov r8, r8)
100011e6:	46c0      	nop			; (mov r8, r8)
100011e8:	46c0      	nop			; (mov r8, r8)
100011ea:	6167      	str	r7, [r4, #20]
100011ec:	46c0      	nop			; (mov r8, r8)
100011ee:	46c0      	nop			; (mov r8, r8)
100011f0:	46c0      	nop			; (mov r8, r8)
100011f2:	2201      	movs	r2, #1
100011f4:	0029      	movs	r1, r5
100011f6:	4640      	mov	r0, r8
100011f8:	f00a f81a 	bl	1000b230 <__spi_write_blocking_veneer>
100011fc:	46c0      	nop			; (mov r8, r8)
100011fe:	46c0      	nop			; (mov r8, r8)
10001200:	46c0      	nop			; (mov r8, r8)
10001202:	6166      	str	r6, [r4, #20]
10001204:	46c0      	nop			; (mov r8, r8)
10001206:	46c0      	nop			; (mov r8, r8)
10001208:	46c0      	nop			; (mov r8, r8)
1000120a:	2207      	movs	r2, #7
1000120c:	702a      	strb	r2, [r5, #0]
1000120e:	46c0      	nop			; (mov r8, r8)
10001210:	46c0      	nop			; (mov r8, r8)
10001212:	46c0      	nop			; (mov r8, r8)
10001214:	61a6      	str	r6, [r4, #24]
10001216:	46c0      	nop			; (mov r8, r8)
10001218:	46c0      	nop			; (mov r8, r8)
1000121a:	46c0      	nop			; (mov r8, r8)
1000121c:	46c0      	nop			; (mov r8, r8)
1000121e:	46c0      	nop			; (mov r8, r8)
10001220:	46c0      	nop			; (mov r8, r8)
10001222:	6167      	str	r7, [r4, #20]
10001224:	46c0      	nop			; (mov r8, r8)
10001226:	46c0      	nop			; (mov r8, r8)
10001228:	46c0      	nop			; (mov r8, r8)
1000122a:	0029      	movs	r1, r5
1000122c:	4640      	mov	r0, r8
1000122e:	3a06      	subs	r2, #6
10001230:	f009 fffe 	bl	1000b230 <__spi_write_blocking_veneer>
10001234:	46c0      	nop			; (mov r8, r8)
10001236:	46c0      	nop			; (mov r8, r8)
10001238:	46c0      	nop			; (mov r8, r8)
1000123a:	6166      	str	r6, [r4, #20]
1000123c:	46c0      	nop			; (mov r8, r8)
1000123e:	46c0      	nop			; (mov r8, r8)
10001240:	46c0      	nop			; (mov r8, r8)
10001242:	2310      	movs	r3, #16
10001244:	702b      	strb	r3, [r5, #0]
10001246:	46c0      	nop			; (mov r8, r8)
10001248:	46c0      	nop			; (mov r8, r8)
1000124a:	46c0      	nop			; (mov r8, r8)
1000124c:	61a6      	str	r6, [r4, #24]
1000124e:	46c0      	nop			; (mov r8, r8)
10001250:	46c0      	nop			; (mov r8, r8)
10001252:	46c0      	nop			; (mov r8, r8)
10001254:	46c0      	nop			; (mov r8, r8)
10001256:	46c0      	nop			; (mov r8, r8)
10001258:	46c0      	nop			; (mov r8, r8)
1000125a:	6167      	str	r7, [r4, #20]
1000125c:	46c0      	nop			; (mov r8, r8)
1000125e:	46c0      	nop			; (mov r8, r8)
10001260:	46c0      	nop			; (mov r8, r8)
10001262:	2201      	movs	r2, #1
10001264:	0029      	movs	r1, r5
10001266:	4640      	mov	r0, r8
10001268:	f009 ffe2 	bl	1000b230 <__spi_write_blocking_veneer>
1000126c:	46c0      	nop			; (mov r8, r8)
1000126e:	46c0      	nop			; (mov r8, r8)
10001270:	46c0      	nop			; (mov r8, r8)
10001272:	6166      	str	r6, [r4, #20]
10001274:	46c0      	nop			; (mov r8, r8)
10001276:	46c0      	nop			; (mov r8, r8)
10001278:	46c0      	nop			; (mov r8, r8)
1000127a:	2103      	movs	r1, #3
1000127c:	468b      	mov	fp, r1
1000127e:	7029      	strb	r1, [r5, #0]
10001280:	46c0      	nop			; (mov r8, r8)
10001282:	46c0      	nop			; (mov r8, r8)
10001284:	46c0      	nop			; (mov r8, r8)
10001286:	61a6      	str	r6, [r4, #24]
10001288:	46c0      	nop			; (mov r8, r8)
1000128a:	46c0      	nop			; (mov r8, r8)
1000128c:	46c0      	nop			; (mov r8, r8)
1000128e:	46c0      	nop			; (mov r8, r8)
10001290:	46c0      	nop			; (mov r8, r8)
10001292:	46c0      	nop			; (mov r8, r8)
10001294:	6167      	str	r7, [r4, #20]
10001296:	46c0      	nop			; (mov r8, r8)
10001298:	46c0      	nop			; (mov r8, r8)
1000129a:	46c0      	nop			; (mov r8, r8)
1000129c:	2201      	movs	r2, #1
1000129e:	0029      	movs	r1, r5
100012a0:	4640      	mov	r0, r8
100012a2:	f009 ffc5 	bl	1000b230 <__spi_write_blocking_veneer>
100012a6:	46c0      	nop			; (mov r8, r8)
100012a8:	46c0      	nop			; (mov r8, r8)
100012aa:	46c0      	nop			; (mov r8, r8)
100012ac:	6166      	str	r6, [r4, #20]
100012ae:	46c0      	nop			; (mov r8, r8)
100012b0:	46c0      	nop			; (mov r8, r8)
100012b2:	46c0      	nop			; (mov r8, r8)
100012b4:	4649      	mov	r1, r9
100012b6:	7029      	strb	r1, [r5, #0]
100012b8:	46c0      	nop			; (mov r8, r8)
100012ba:	46c0      	nop			; (mov r8, r8)
100012bc:	46c0      	nop			; (mov r8, r8)
100012be:	61a6      	str	r6, [r4, #24]
100012c0:	46c0      	nop			; (mov r8, r8)
100012c2:	46c0      	nop			; (mov r8, r8)
100012c4:	46c0      	nop			; (mov r8, r8)
100012c6:	46c0      	nop			; (mov r8, r8)
100012c8:	46c0      	nop			; (mov r8, r8)
100012ca:	46c0      	nop			; (mov r8, r8)
100012cc:	6167      	str	r7, [r4, #20]
100012ce:	46c0      	nop			; (mov r8, r8)
100012d0:	46c0      	nop			; (mov r8, r8)
100012d2:	46c0      	nop			; (mov r8, r8)
100012d4:	2201      	movs	r2, #1
100012d6:	0029      	movs	r1, r5
100012d8:	4640      	mov	r0, r8
100012da:	f009 ffa9 	bl	1000b230 <__spi_write_blocking_veneer>
100012de:	46c0      	nop			; (mov r8, r8)
100012e0:	46c0      	nop			; (mov r8, r8)
100012e2:	46c0      	nop			; (mov r8, r8)
100012e4:	6166      	str	r6, [r4, #20]
100012e6:	46c0      	nop			; (mov r8, r8)
100012e8:	46c0      	nop			; (mov r8, r8)
100012ea:	46c0      	nop			; (mov r8, r8)
100012ec:	2309      	movs	r3, #9
100012ee:	702b      	strb	r3, [r5, #0]
100012f0:	46c0      	nop			; (mov r8, r8)
100012f2:	46c0      	nop			; (mov r8, r8)
100012f4:	46c0      	nop			; (mov r8, r8)
100012f6:	61a6      	str	r6, [r4, #24]
100012f8:	46c0      	nop			; (mov r8, r8)
100012fa:	46c0      	nop			; (mov r8, r8)
100012fc:	46c0      	nop			; (mov r8, r8)
100012fe:	46c0      	nop			; (mov r8, r8)
10001300:	46c0      	nop			; (mov r8, r8)
10001302:	46c0      	nop			; (mov r8, r8)
10001304:	6167      	str	r7, [r4, #20]
10001306:	46c0      	nop			; (mov r8, r8)
10001308:	46c0      	nop			; (mov r8, r8)
1000130a:	46c0      	nop			; (mov r8, r8)
1000130c:	2201      	movs	r2, #1
1000130e:	0029      	movs	r1, r5
10001310:	4640      	mov	r0, r8
10001312:	f009 ff8d 	bl	1000b230 <__spi_write_blocking_veneer>
10001316:	46c0      	nop			; (mov r8, r8)
10001318:	46c0      	nop			; (mov r8, r8)
1000131a:	46c0      	nop			; (mov r8, r8)
1000131c:	6166      	str	r6, [r4, #20]
1000131e:	46c0      	nop			; (mov r8, r8)
10001320:	46c0      	nop			; (mov r8, r8)
10001322:	46c0      	nop			; (mov r8, r8)
10001324:	4651      	mov	r1, sl
10001326:	7029      	strb	r1, [r5, #0]
10001328:	46c0      	nop			; (mov r8, r8)
1000132a:	46c0      	nop			; (mov r8, r8)
1000132c:	46c0      	nop			; (mov r8, r8)
1000132e:	61a6      	str	r6, [r4, #24]
10001330:	46c0      	nop			; (mov r8, r8)
10001332:	46c0      	nop			; (mov r8, r8)
10001334:	46c0      	nop			; (mov r8, r8)
10001336:	46c0      	nop			; (mov r8, r8)
10001338:	46c0      	nop			; (mov r8, r8)
1000133a:	46c0      	nop			; (mov r8, r8)
1000133c:	6167      	str	r7, [r4, #20]
1000133e:	46c0      	nop			; (mov r8, r8)
10001340:	46c0      	nop			; (mov r8, r8)
10001342:	46c0      	nop			; (mov r8, r8)
10001344:	2201      	movs	r2, #1
10001346:	0029      	movs	r1, r5
10001348:	4640      	mov	r0, r8
1000134a:	f009 ff71 	bl	1000b230 <__spi_write_blocking_veneer>
1000134e:	46c0      	nop			; (mov r8, r8)
10001350:	46c0      	nop			; (mov r8, r8)
10001352:	46c0      	nop			; (mov r8, r8)
10001354:	6166      	str	r6, [r4, #20]
10001356:	46c0      	nop			; (mov r8, r8)
10001358:	46c0      	nop			; (mov r8, r8)
1000135a:	46c0      	nop			; (mov r8, r8)
1000135c:	23e1      	movs	r3, #225	; 0xe1
1000135e:	702b      	strb	r3, [r5, #0]
10001360:	46c0      	nop			; (mov r8, r8)
10001362:	46c0      	nop			; (mov r8, r8)
10001364:	46c0      	nop			; (mov r8, r8)
10001366:	61a7      	str	r7, [r4, #24]
10001368:	46c0      	nop			; (mov r8, r8)
1000136a:	46c0      	nop			; (mov r8, r8)
1000136c:	46c0      	nop			; (mov r8, r8)
1000136e:	46c0      	nop			; (mov r8, r8)
10001370:	46c0      	nop			; (mov r8, r8)
10001372:	46c0      	nop			; (mov r8, r8)
10001374:	61a6      	str	r6, [r4, #24]
10001376:	46c0      	nop			; (mov r8, r8)
10001378:	46c0      	nop			; (mov r8, r8)
1000137a:	46c0      	nop			; (mov r8, r8)
1000137c:	2201      	movs	r2, #1
1000137e:	0029      	movs	r1, r5
10001380:	4640      	mov	r0, r8
10001382:	f009 ff55 	bl	1000b230 <__spi_write_blocking_veneer>
10001386:	46c0      	nop			; (mov r8, r8)
10001388:	46c0      	nop			; (mov r8, r8)
1000138a:	46c0      	nop			; (mov r8, r8)
1000138c:	6167      	str	r7, [r4, #20]
1000138e:	46c0      	nop			; (mov r8, r8)
10001390:	46c0      	nop			; (mov r8, r8)
10001392:	46c0      	nop			; (mov r8, r8)
10001394:	46c0      	nop			; (mov r8, r8)
10001396:	46c0      	nop			; (mov r8, r8)
10001398:	46c0      	nop			; (mov r8, r8)
1000139a:	6166      	str	r6, [r4, #20]
1000139c:	46c0      	nop			; (mov r8, r8)
1000139e:	46c0      	nop			; (mov r8, r8)
100013a0:	46c0      	nop			; (mov r8, r8)
100013a2:	4651      	mov	r1, sl
100013a4:	7029      	strb	r1, [r5, #0]
100013a6:	46c0      	nop			; (mov r8, r8)
100013a8:	46c0      	nop			; (mov r8, r8)
100013aa:	46c0      	nop			; (mov r8, r8)
100013ac:	61a6      	str	r6, [r4, #24]
100013ae:	46c0      	nop			; (mov r8, r8)
100013b0:	46c0      	nop			; (mov r8, r8)
100013b2:	46c0      	nop			; (mov r8, r8)
100013b4:	46c0      	nop			; (mov r8, r8)
100013b6:	46c0      	nop			; (mov r8, r8)
100013b8:	46c0      	nop			; (mov r8, r8)
100013ba:	6167      	str	r7, [r4, #20]
100013bc:	46c0      	nop			; (mov r8, r8)
100013be:	46c0      	nop			; (mov r8, r8)
100013c0:	46c0      	nop			; (mov r8, r8)
100013c2:	2201      	movs	r2, #1
100013c4:	0029      	movs	r1, r5
100013c6:	4640      	mov	r0, r8
100013c8:	f009 ff32 	bl	1000b230 <__spi_write_blocking_veneer>
100013cc:	46c0      	nop			; (mov r8, r8)
100013ce:	46c0      	nop			; (mov r8, r8)
100013d0:	46c0      	nop			; (mov r8, r8)
100013d2:	6166      	str	r6, [r4, #20]
100013d4:	46c0      	nop			; (mov r8, r8)
100013d6:	46c0      	nop			; (mov r8, r8)
100013d8:	46c0      	nop			; (mov r8, r8)
100013da:	4649      	mov	r1, r9
100013dc:	7029      	strb	r1, [r5, #0]
100013de:	46c0      	nop			; (mov r8, r8)
100013e0:	46c0      	nop			; (mov r8, r8)
100013e2:	46c0      	nop			; (mov r8, r8)
100013e4:	61a6      	str	r6, [r4, #24]
100013e6:	46c0      	nop			; (mov r8, r8)
100013e8:	46c0      	nop			; (mov r8, r8)
100013ea:	46c0      	nop			; (mov r8, r8)
100013ec:	46c0      	nop			; (mov r8, r8)
100013ee:	46c0      	nop			; (mov r8, r8)
100013f0:	46c0      	nop			; (mov r8, r8)
100013f2:	6167      	str	r7, [r4, #20]
100013f4:	46c0      	nop			; (mov r8, r8)
100013f6:	46c0      	nop			; (mov r8, r8)
100013f8:	46c0      	nop			; (mov r8, r8)
100013fa:	2201      	movs	r2, #1
100013fc:	0029      	movs	r1, r5
100013fe:	4640      	mov	r0, r8
10001400:	f009 ff16 	bl	1000b230 <__spi_write_blocking_veneer>
10001404:	46c0      	nop			; (mov r8, r8)
10001406:	46c0      	nop			; (mov r8, r8)
10001408:	46c0      	nop			; (mov r8, r8)
1000140a:	6166      	str	r6, [r4, #20]
1000140c:	46c0      	nop			; (mov r8, r8)
1000140e:	46c0      	nop			; (mov r8, r8)
10001410:	46c0      	nop			; (mov r8, r8)
10001412:	2314      	movs	r3, #20
10001414:	702b      	strb	r3, [r5, #0]
10001416:	46c0      	nop			; (mov r8, r8)
10001418:	46c0      	nop			; (mov r8, r8)
1000141a:	46c0      	nop			; (mov r8, r8)
1000141c:	61a6      	str	r6, [r4, #24]
1000141e:	46c0      	nop			; (mov r8, r8)
10001420:	46c0      	nop			; (mov r8, r8)
10001422:	46c0      	nop			; (mov r8, r8)
10001424:	46c0      	nop			; (mov r8, r8)
10001426:	46c0      	nop			; (mov r8, r8)
10001428:	46c0      	nop			; (mov r8, r8)
1000142a:	6167      	str	r7, [r4, #20]
1000142c:	46c0      	nop			; (mov r8, r8)
1000142e:	46c0      	nop			; (mov r8, r8)
10001430:	46c0      	nop			; (mov r8, r8)
10001432:	2201      	movs	r2, #1
10001434:	0029      	movs	r1, r5
10001436:	4640      	mov	r0, r8
10001438:	f009 fefa 	bl	1000b230 <__spi_write_blocking_veneer>
1000143c:	46c0      	nop			; (mov r8, r8)
1000143e:	46c0      	nop			; (mov r8, r8)
10001440:	46c0      	nop			; (mov r8, r8)
10001442:	6166      	str	r6, [r4, #20]
10001444:	46c0      	nop			; (mov r8, r8)
10001446:	46c0      	nop			; (mov r8, r8)
10001448:	46c0      	nop			; (mov r8, r8)
1000144a:	4659      	mov	r1, fp
1000144c:	7029      	strb	r1, [r5, #0]
1000144e:	46c0      	nop			; (mov r8, r8)
10001450:	46c0      	nop			; (mov r8, r8)
10001452:	46c0      	nop			; (mov r8, r8)
10001454:	61a6      	str	r6, [r4, #24]
10001456:	46c0      	nop			; (mov r8, r8)
10001458:	46c0      	nop			; (mov r8, r8)
1000145a:	46c0      	nop			; (mov r8, r8)
1000145c:	46c0      	nop			; (mov r8, r8)
1000145e:	46c0      	nop			; (mov r8, r8)
10001460:	46c0      	nop			; (mov r8, r8)
10001462:	6167      	str	r7, [r4, #20]
10001464:	46c0      	nop			; (mov r8, r8)
10001466:	46c0      	nop			; (mov r8, r8)
10001468:	46c0      	nop			; (mov r8, r8)
1000146a:	2201      	movs	r2, #1
1000146c:	0029      	movs	r1, r5
1000146e:	4640      	mov	r0, r8
10001470:	f009 fede 	bl	1000b230 <__spi_write_blocking_veneer>
10001474:	46c0      	nop			; (mov r8, r8)
10001476:	46c0      	nop			; (mov r8, r8)
10001478:	46c0      	nop			; (mov r8, r8)
1000147a:	6166      	str	r6, [r4, #20]
1000147c:	46c0      	nop			; (mov r8, r8)
1000147e:	46c0      	nop			; (mov r8, r8)
10001480:	46c0      	nop			; (mov r8, r8)
10001482:	2111      	movs	r1, #17
10001484:	4689      	mov	r9, r1
10001486:	7029      	strb	r1, [r5, #0]
10001488:	46c0      	nop			; (mov r8, r8)
1000148a:	46c0      	nop			; (mov r8, r8)
1000148c:	46c0      	nop			; (mov r8, r8)
1000148e:	61a6      	str	r6, [r4, #24]
10001490:	46c0      	nop			; (mov r8, r8)
10001492:	46c0      	nop			; (mov r8, r8)
10001494:	46c0      	nop			; (mov r8, r8)
10001496:	46c0      	nop			; (mov r8, r8)
10001498:	46c0      	nop			; (mov r8, r8)
1000149a:	46c0      	nop			; (mov r8, r8)
1000149c:	6167      	str	r7, [r4, #20]
1000149e:	46c0      	nop			; (mov r8, r8)
100014a0:	46c0      	nop			; (mov r8, r8)
100014a2:	46c0      	nop			; (mov r8, r8)
100014a4:	2201      	movs	r2, #1
100014a6:	0029      	movs	r1, r5
100014a8:	4640      	mov	r0, r8
100014aa:	f009 fec1 	bl	1000b230 <__spi_write_blocking_veneer>
100014ae:	46c0      	nop			; (mov r8, r8)
100014b0:	46c0      	nop			; (mov r8, r8)
100014b2:	46c0      	nop			; (mov r8, r8)
100014b4:	6166      	str	r6, [r4, #20]
100014b6:	46c0      	nop			; (mov r8, r8)
100014b8:	46c0      	nop			; (mov r8, r8)
100014ba:	46c0      	nop			; (mov r8, r8)
100014bc:	2207      	movs	r2, #7
100014be:	702a      	strb	r2, [r5, #0]
100014c0:	46c0      	nop			; (mov r8, r8)
100014c2:	46c0      	nop			; (mov r8, r8)
100014c4:	46c0      	nop			; (mov r8, r8)
100014c6:	61a6      	str	r6, [r4, #24]
100014c8:	46c0      	nop			; (mov r8, r8)
100014ca:	46c0      	nop			; (mov r8, r8)
100014cc:	46c0      	nop			; (mov r8, r8)
100014ce:	46c0      	nop			; (mov r8, r8)
100014d0:	46c0      	nop			; (mov r8, r8)
100014d2:	46c0      	nop			; (mov r8, r8)
100014d4:	6167      	str	r7, [r4, #20]
100014d6:	46c0      	nop			; (mov r8, r8)
100014d8:	46c0      	nop			; (mov r8, r8)
100014da:	46c0      	nop			; (mov r8, r8)
100014dc:	0029      	movs	r1, r5
100014de:	4640      	mov	r0, r8
100014e0:	3a06      	subs	r2, #6
100014e2:	f009 fea5 	bl	1000b230 <__spi_write_blocking_veneer>
100014e6:	46c0      	nop			; (mov r8, r8)
100014e8:	46c0      	nop			; (mov r8, r8)
100014ea:	46c0      	nop			; (mov r8, r8)
100014ec:	6166      	str	r6, [r4, #20]
100014ee:	46c0      	nop			; (mov r8, r8)
100014f0:	46c0      	nop			; (mov r8, r8)
100014f2:	46c0      	nop			; (mov r8, r8)
100014f4:	2331      	movs	r3, #49	; 0x31
100014f6:	702b      	strb	r3, [r5, #0]
100014f8:	46c0      	nop			; (mov r8, r8)
100014fa:	46c0      	nop			; (mov r8, r8)
100014fc:	46c0      	nop			; (mov r8, r8)
100014fe:	61a6      	str	r6, [r4, #24]
10001500:	46c0      	nop			; (mov r8, r8)
10001502:	46c0      	nop			; (mov r8, r8)
10001504:	46c0      	nop			; (mov r8, r8)
10001506:	46c0      	nop			; (mov r8, r8)
10001508:	46c0      	nop			; (mov r8, r8)
1000150a:	46c0      	nop			; (mov r8, r8)
1000150c:	6167      	str	r7, [r4, #20]
1000150e:	46c0      	nop			; (mov r8, r8)
10001510:	46c0      	nop			; (mov r8, r8)
10001512:	46c0      	nop			; (mov r8, r8)
10001514:	2201      	movs	r2, #1
10001516:	0029      	movs	r1, r5
10001518:	4640      	mov	r0, r8
1000151a:	f009 fe89 	bl	1000b230 <__spi_write_blocking_veneer>
1000151e:	46c0      	nop			; (mov r8, r8)
10001520:	46c0      	nop			; (mov r8, r8)
10001522:	46c0      	nop			; (mov r8, r8)
10001524:	0035      	movs	r5, r6
10001526:	6166      	str	r6, [r4, #20]
10001528:	46c0      	nop			; (mov r8, r8)
1000152a:	46c0      	nop			; (mov r8, r8)
1000152c:	46c0      	nop			; (mov r8, r8)
1000152e:	466b      	mov	r3, sp
10001530:	1dde      	adds	r6, r3, #7
10001532:	23c1      	movs	r3, #193	; 0xc1
10001534:	7033      	strb	r3, [r6, #0]
10001536:	46c0      	nop			; (mov r8, r8)
10001538:	46c0      	nop			; (mov r8, r8)
1000153a:	46c0      	nop			; (mov r8, r8)
1000153c:	61a5      	str	r5, [r4, #24]
1000153e:	46c0      	nop			; (mov r8, r8)
10001540:	46c0      	nop			; (mov r8, r8)
10001542:	46c0      	nop			; (mov r8, r8)
10001544:	46c0      	nop			; (mov r8, r8)
10001546:	46c0      	nop			; (mov r8, r8)
10001548:	46c0      	nop			; (mov r8, r8)
1000154a:	6167      	str	r7, [r4, #20]
1000154c:	46c0      	nop			; (mov r8, r8)
1000154e:	46c0      	nop			; (mov r8, r8)
10001550:	46c0      	nop			; (mov r8, r8)
10001552:	2201      	movs	r2, #1
10001554:	0031      	movs	r1, r6
10001556:	4640      	mov	r0, r8
10001558:	f009 fe6a 	bl	1000b230 <__spi_write_blocking_veneer>
1000155c:	46c0      	nop			; (mov r8, r8)
1000155e:	46c0      	nop			; (mov r8, r8)
10001560:	46c0      	nop			; (mov r8, r8)
10001562:	6165      	str	r5, [r4, #20]
10001564:	46c0      	nop			; (mov r8, r8)
10001566:	46c0      	nop			; (mov r8, r8)
10001568:	46c0      	nop			; (mov r8, r8)
1000156a:	2348      	movs	r3, #72	; 0x48
1000156c:	7033      	strb	r3, [r6, #0]
1000156e:	46c0      	nop			; (mov r8, r8)
10001570:	46c0      	nop			; (mov r8, r8)
10001572:	46c0      	nop			; (mov r8, r8)
10001574:	61a5      	str	r5, [r4, #24]
10001576:	46c0      	nop			; (mov r8, r8)
10001578:	46c0      	nop			; (mov r8, r8)
1000157a:	46c0      	nop			; (mov r8, r8)
1000157c:	46c0      	nop			; (mov r8, r8)
1000157e:	46c0      	nop			; (mov r8, r8)
10001580:	46c0      	nop			; (mov r8, r8)
10001582:	6167      	str	r7, [r4, #20]
10001584:	46c0      	nop			; (mov r8, r8)
10001586:	46c0      	nop			; (mov r8, r8)
10001588:	46c0      	nop			; (mov r8, r8)
1000158a:	2201      	movs	r2, #1
1000158c:	0031      	movs	r1, r6
1000158e:	4640      	mov	r0, r8
10001590:	f009 fe4e 	bl	1000b230 <__spi_write_blocking_veneer>
10001594:	46c0      	nop			; (mov r8, r8)
10001596:	46c0      	nop			; (mov r8, r8)
10001598:	46c0      	nop			; (mov r8, r8)
1000159a:	6165      	str	r5, [r4, #20]
1000159c:	46c0      	nop			; (mov r8, r8)
1000159e:	46c0      	nop			; (mov r8, r8)
100015a0:	46c0      	nop			; (mov r8, r8)
100015a2:	2308      	movs	r3, #8
100015a4:	7033      	strb	r3, [r6, #0]
100015a6:	46c0      	nop			; (mov r8, r8)
100015a8:	46c0      	nop			; (mov r8, r8)
100015aa:	46c0      	nop			; (mov r8, r8)
100015ac:	61a5      	str	r5, [r4, #24]
100015ae:	46c0      	nop			; (mov r8, r8)
100015b0:	46c0      	nop			; (mov r8, r8)
100015b2:	46c0      	nop			; (mov r8, r8)
100015b4:	46c0      	nop			; (mov r8, r8)
100015b6:	46c0      	nop			; (mov r8, r8)
100015b8:	46c0      	nop			; (mov r8, r8)
100015ba:	6167      	str	r7, [r4, #20]
100015bc:	46c0      	nop			; (mov r8, r8)
100015be:	46c0      	nop			; (mov r8, r8)
100015c0:	46c0      	nop			; (mov r8, r8)
100015c2:	2201      	movs	r2, #1
100015c4:	0031      	movs	r1, r6
100015c6:	4640      	mov	r0, r8
100015c8:	f009 fe32 	bl	1000b230 <__spi_write_blocking_veneer>
100015cc:	46c0      	nop			; (mov r8, r8)
100015ce:	46c0      	nop			; (mov r8, r8)
100015d0:	46c0      	nop			; (mov r8, r8)
100015d2:	6165      	str	r5, [r4, #20]
100015d4:	46c0      	nop			; (mov r8, r8)
100015d6:	46c0      	nop			; (mov r8, r8)
100015d8:	46c0      	nop			; (mov r8, r8)
100015da:	230f      	movs	r3, #15
100015dc:	469a      	mov	sl, r3
100015de:	7033      	strb	r3, [r6, #0]
100015e0:	46c0      	nop			; (mov r8, r8)
100015e2:	46c0      	nop			; (mov r8, r8)
100015e4:	46c0      	nop			; (mov r8, r8)
100015e6:	61a5      	str	r5, [r4, #24]
100015e8:	46c0      	nop			; (mov r8, r8)
100015ea:	46c0      	nop			; (mov r8, r8)
100015ec:	46c0      	nop			; (mov r8, r8)
100015ee:	46c0      	nop			; (mov r8, r8)
100015f0:	46c0      	nop			; (mov r8, r8)
100015f2:	46c0      	nop			; (mov r8, r8)
100015f4:	6167      	str	r7, [r4, #20]
100015f6:	46c0      	nop			; (mov r8, r8)
100015f8:	46c0      	nop			; (mov r8, r8)
100015fa:	46c0      	nop			; (mov r8, r8)
100015fc:	2201      	movs	r2, #1
100015fe:	0031      	movs	r1, r6
10001600:	4640      	mov	r0, r8
10001602:	f009 fe15 	bl	1000b230 <__spi_write_blocking_veneer>
10001606:	46c0      	nop			; (mov r8, r8)
10001608:	46c0      	nop			; (mov r8, r8)
1000160a:	46c0      	nop			; (mov r8, r8)
1000160c:	6165      	str	r5, [r4, #20]
1000160e:	46c0      	nop			; (mov r8, r8)
10001610:	46c0      	nop			; (mov r8, r8)
10001612:	46c0      	nop			; (mov r8, r8)
10001614:	230c      	movs	r3, #12
10001616:	7033      	strb	r3, [r6, #0]
10001618:	46c0      	nop			; (mov r8, r8)
1000161a:	46c0      	nop			; (mov r8, r8)
1000161c:	46c0      	nop			; (mov r8, r8)
1000161e:	61a5      	str	r5, [r4, #24]
10001620:	46c0      	nop			; (mov r8, r8)
10001622:	46c0      	nop			; (mov r8, r8)
10001624:	46c0      	nop			; (mov r8, r8)
10001626:	46c0      	nop			; (mov r8, r8)
10001628:	46c0      	nop			; (mov r8, r8)
1000162a:	46c0      	nop			; (mov r8, r8)
1000162c:	6167      	str	r7, [r4, #20]
1000162e:	46c0      	nop			; (mov r8, r8)
10001630:	46c0      	nop			; (mov r8, r8)
10001632:	46c0      	nop			; (mov r8, r8)
10001634:	2201      	movs	r2, #1
10001636:	0031      	movs	r1, r6
10001638:	4640      	mov	r0, r8
1000163a:	f009 fdf9 	bl	1000b230 <__spi_write_blocking_veneer>
1000163e:	46c0      	nop			; (mov r8, r8)
10001640:	46c0      	nop			; (mov r8, r8)
10001642:	46c0      	nop			; (mov r8, r8)
10001644:	6165      	str	r5, [r4, #20]
10001646:	46c0      	nop			; (mov r8, r8)
10001648:	46c0      	nop			; (mov r8, r8)
1000164a:	46c0      	nop			; (mov r8, r8)
1000164c:	2331      	movs	r3, #49	; 0x31
1000164e:	7033      	strb	r3, [r6, #0]
10001650:	46c0      	nop			; (mov r8, r8)
10001652:	46c0      	nop			; (mov r8, r8)
10001654:	46c0      	nop			; (mov r8, r8)
10001656:	61a5      	str	r5, [r4, #24]
10001658:	46c0      	nop			; (mov r8, r8)
1000165a:	46c0      	nop			; (mov r8, r8)
1000165c:	46c0      	nop			; (mov r8, r8)
1000165e:	46c0      	nop			; (mov r8, r8)
10001660:	46c0      	nop			; (mov r8, r8)
10001662:	46c0      	nop			; (mov r8, r8)
10001664:	6167      	str	r7, [r4, #20]
10001666:	46c0      	nop			; (mov r8, r8)
10001668:	46c0      	nop			; (mov r8, r8)
1000166a:	46c0      	nop			; (mov r8, r8)
1000166c:	2201      	movs	r2, #1
1000166e:	0031      	movs	r1, r6
10001670:	4640      	mov	r0, r8
10001672:	f009 fddd 	bl	1000b230 <__spi_write_blocking_veneer>
10001676:	46c0      	nop			; (mov r8, r8)
10001678:	46c0      	nop			; (mov r8, r8)
1000167a:	46c0      	nop			; (mov r8, r8)
1000167c:	6165      	str	r5, [r4, #20]
1000167e:	46c0      	nop			; (mov r8, r8)
10001680:	46c0      	nop			; (mov r8, r8)
10001682:	46c0      	nop			; (mov r8, r8)
10001684:	2336      	movs	r3, #54	; 0x36
10001686:	7033      	strb	r3, [r6, #0]
10001688:	46c0      	nop			; (mov r8, r8)
1000168a:	46c0      	nop			; (mov r8, r8)
1000168c:	46c0      	nop			; (mov r8, r8)
1000168e:	61a5      	str	r5, [r4, #24]
10001690:	46c0      	nop			; (mov r8, r8)
10001692:	46c0      	nop			; (mov r8, r8)
10001694:	46c0      	nop			; (mov r8, r8)
10001696:	46c0      	nop			; (mov r8, r8)
10001698:	46c0      	nop			; (mov r8, r8)
1000169a:	46c0      	nop			; (mov r8, r8)
1000169c:	6167      	str	r7, [r4, #20]
1000169e:	46c0      	nop			; (mov r8, r8)
100016a0:	46c0      	nop			; (mov r8, r8)
100016a2:	46c0      	nop			; (mov r8, r8)
100016a4:	2201      	movs	r2, #1
100016a6:	0031      	movs	r1, r6
100016a8:	4640      	mov	r0, r8
100016aa:	f009 fdc1 	bl	1000b230 <__spi_write_blocking_veneer>
100016ae:	46c0      	nop			; (mov r8, r8)
100016b0:	46c0      	nop			; (mov r8, r8)
100016b2:	46c0      	nop			; (mov r8, r8)
100016b4:	6165      	str	r5, [r4, #20]
100016b6:	46c0      	nop			; (mov r8, r8)
100016b8:	46c0      	nop			; (mov r8, r8)
100016ba:	46c0      	nop			; (mov r8, r8)
100016bc:	4653      	mov	r3, sl
100016be:	7033      	strb	r3, [r6, #0]
100016c0:	46c0      	nop			; (mov r8, r8)
100016c2:	46c0      	nop			; (mov r8, r8)
100016c4:	46c0      	nop			; (mov r8, r8)
100016c6:	61a5      	str	r5, [r4, #24]
100016c8:	46c0      	nop			; (mov r8, r8)
100016ca:	46c0      	nop			; (mov r8, r8)
100016cc:	46c0      	nop			; (mov r8, r8)
100016ce:	46c0      	nop			; (mov r8, r8)
100016d0:	46c0      	nop			; (mov r8, r8)
100016d2:	46c0      	nop			; (mov r8, r8)
100016d4:	6167      	str	r7, [r4, #20]
100016d6:	46c0      	nop			; (mov r8, r8)
100016d8:	46c0      	nop			; (mov r8, r8)
100016da:	46c0      	nop			; (mov r8, r8)
100016dc:	2201      	movs	r2, #1
100016de:	0031      	movs	r1, r6
100016e0:	4640      	mov	r0, r8
100016e2:	f009 fda5 	bl	1000b230 <__spi_write_blocking_veneer>
100016e6:	46c0      	nop			; (mov r8, r8)
100016e8:	46c0      	nop			; (mov r8, r8)
100016ea:	46c0      	nop			; (mov r8, r8)
100016ec:	6165      	str	r5, [r4, #20]
100016ee:	46c0      	nop			; (mov r8, r8)
100016f0:	46c0      	nop			; (mov r8, r8)
100016f2:	46c0      	nop			; (mov r8, r8)
100016f4:	464b      	mov	r3, r9
100016f6:	7033      	strb	r3, [r6, #0]
100016f8:	46c0      	nop			; (mov r8, r8)
100016fa:	46c0      	nop			; (mov r8, r8)
100016fc:	46c0      	nop			; (mov r8, r8)
100016fe:	61a7      	str	r7, [r4, #24]
10001700:	46c0      	nop			; (mov r8, r8)
10001702:	46c0      	nop			; (mov r8, r8)
10001704:	46c0      	nop			; (mov r8, r8)
10001706:	46c0      	nop			; (mov r8, r8)
10001708:	46c0      	nop			; (mov r8, r8)
1000170a:	46c0      	nop			; (mov r8, r8)
1000170c:	61a5      	str	r5, [r4, #24]
1000170e:	46c0      	nop			; (mov r8, r8)
10001710:	46c0      	nop			; (mov r8, r8)
10001712:	46c0      	nop			; (mov r8, r8)
10001714:	2201      	movs	r2, #1
10001716:	0031      	movs	r1, r6
10001718:	4640      	mov	r0, r8
1000171a:	f009 fd89 	bl	1000b230 <__spi_write_blocking_veneer>
1000171e:	46c0      	nop			; (mov r8, r8)
10001720:	46c0      	nop			; (mov r8, r8)
10001722:	46c0      	nop			; (mov r8, r8)
10001724:	6167      	str	r7, [r4, #20]
10001726:	46c0      	nop			; (mov r8, r8)
10001728:	46c0      	nop			; (mov r8, r8)
1000172a:	46c0      	nop			; (mov r8, r8)
1000172c:	46c0      	nop			; (mov r8, r8)
1000172e:	46c0      	nop			; (mov r8, r8)
10001730:	46c0      	nop			; (mov r8, r8)
10001732:	6165      	str	r5, [r4, #20]
10001734:	46c0      	nop			; (mov r8, r8)
10001736:	46c0      	nop			; (mov r8, r8)
10001738:	46c0      	nop			; (mov r8, r8)
1000173a:	2078      	movs	r0, #120	; 0x78
1000173c:	f003 fc0c 	bl	10004f58 <sleep_ms>
10001740:	2329      	movs	r3, #41	; 0x29
10001742:	7033      	strb	r3, [r6, #0]
10001744:	46c0      	nop			; (mov r8, r8)
10001746:	46c0      	nop			; (mov r8, r8)
10001748:	46c0      	nop			; (mov r8, r8)
1000174a:	61a7      	str	r7, [r4, #24]
1000174c:	46c0      	nop			; (mov r8, r8)
1000174e:	46c0      	nop			; (mov r8, r8)
10001750:	46c0      	nop			; (mov r8, r8)
10001752:	46c0      	nop			; (mov r8, r8)
10001754:	46c0      	nop			; (mov r8, r8)
10001756:	46c0      	nop			; (mov r8, r8)
10001758:	61a5      	str	r5, [r4, #24]
1000175a:	46c0      	nop			; (mov r8, r8)
1000175c:	46c0      	nop			; (mov r8, r8)
1000175e:	46c0      	nop			; (mov r8, r8)
10001760:	2201      	movs	r2, #1
10001762:	0031      	movs	r1, r6
10001764:	4640      	mov	r0, r8
10001766:	f009 fd63 	bl	1000b230 <__spi_write_blocking_veneer>
1000176a:	46c0      	nop			; (mov r8, r8)
1000176c:	46c0      	nop			; (mov r8, r8)
1000176e:	46c0      	nop			; (mov r8, r8)
10001770:	6167      	str	r7, [r4, #20]
10001772:	46c0      	nop			; (mov r8, r8)
10001774:	46c0      	nop			; (mov r8, r8)
10001776:	46c0      	nop			; (mov r8, r8)
10001778:	46c0      	nop			; (mov r8, r8)
1000177a:	46c0      	nop			; (mov r8, r8)
1000177c:	46c0      	nop			; (mov r8, r8)
1000177e:	6165      	str	r5, [r4, #20]
10001780:	46c0      	nop			; (mov r8, r8)
10001782:	46c0      	nop			; (mov r8, r8)
10001784:	46c0      	nop			; (mov r8, r8)
10001786:	2078      	movs	r0, #120	; 0x78
10001788:	f003 fbe6 	bl	10004f58 <sleep_ms>
1000178c:	2313      	movs	r3, #19
1000178e:	7033      	strb	r3, [r6, #0]
10001790:	46c0      	nop			; (mov r8, r8)
10001792:	46c0      	nop			; (mov r8, r8)
10001794:	46c0      	nop			; (mov r8, r8)
10001796:	61a7      	str	r7, [r4, #24]
10001798:	46c0      	nop			; (mov r8, r8)
1000179a:	46c0      	nop			; (mov r8, r8)
1000179c:	46c0      	nop			; (mov r8, r8)
1000179e:	46c0      	nop			; (mov r8, r8)
100017a0:	46c0      	nop			; (mov r8, r8)
100017a2:	46c0      	nop			; (mov r8, r8)
100017a4:	61a5      	str	r5, [r4, #24]
100017a6:	46c0      	nop			; (mov r8, r8)
100017a8:	46c0      	nop			; (mov r8, r8)
100017aa:	46c0      	nop			; (mov r8, r8)
100017ac:	2201      	movs	r2, #1
100017ae:	0031      	movs	r1, r6
100017b0:	4640      	mov	r0, r8
100017b2:	f009 fd3d 	bl	1000b230 <__spi_write_blocking_veneer>
100017b6:	46c0      	nop			; (mov r8, r8)
100017b8:	46c0      	nop			; (mov r8, r8)
100017ba:	46c0      	nop			; (mov r8, r8)
100017bc:	6167      	str	r7, [r4, #20]
100017be:	46c0      	nop			; (mov r8, r8)
100017c0:	46c0      	nop			; (mov r8, r8)
100017c2:	46c0      	nop			; (mov r8, r8)
100017c4:	46c0      	nop			; (mov r8, r8)
100017c6:	46c0      	nop			; (mov r8, r8)
100017c8:	46c0      	nop			; (mov r8, r8)
100017ca:	6165      	str	r5, [r4, #20]
100017cc:	46c0      	nop			; (mov r8, r8)
100017ce:	46c0      	nop			; (mov r8, r8)
100017d0:	46c0      	nop			; (mov r8, r8)
100017d2:	b003      	add	sp, #12
100017d4:	bcf0      	pop	{r4, r5, r6, r7}
100017d6:	46bb      	mov	fp, r7
100017d8:	46b2      	mov	sl, r6
100017da:	46a9      	mov	r9, r5
100017dc:	46a0      	mov	r8, r4
100017de:	bdf0      	pop	{r4, r5, r6, r7, pc}

100017e0 <ili9341_init_SPI>:
100017e0:	b510      	push	{r4, lr}
100017e2:	4914      	ldr	r1, [pc, #80]	; (10001834 <ili9341_init_SPI+0x54>)
100017e4:	4814      	ldr	r0, [pc, #80]	; (10001838 <ili9341_init_SPI+0x58>)
100017e6:	f009 fc45 	bl	1000b074 <spi_init>
100017ea:	2101      	movs	r1, #1
100017ec:	200c      	movs	r0, #12
100017ee:	f002 fbe1 	bl	10003fb4 <gpio_set_function>
100017f2:	2101      	movs	r1, #1
100017f4:	200a      	movs	r0, #10
100017f6:	f002 fbdd 	bl	10003fb4 <gpio_set_function>
100017fa:	2101      	movs	r1, #1
100017fc:	200b      	movs	r0, #11
100017fe:	f002 fbd9 	bl	10003fb4 <gpio_set_function>
10001802:	200d      	movs	r0, #13
10001804:	f002 fc9c 	bl	10004140 <gpio_init>
10001808:	200f      	movs	r0, #15
1000180a:	f002 fc99 	bl	10004140 <gpio_init>
1000180e:	200e      	movs	r0, #14
10001810:	f002 fc96 	bl	10004140 <gpio_init>
10001814:	23d0      	movs	r3, #208	; 0xd0
10001816:	2080      	movs	r0, #128	; 0x80
10001818:	2180      	movs	r1, #128	; 0x80
1000181a:	2280      	movs	r2, #128	; 0x80
1000181c:	061b      	lsls	r3, r3, #24
1000181e:	0180      	lsls	r0, r0, #6
10001820:	0209      	lsls	r1, r1, #8
10001822:	01d2      	lsls	r2, r2, #7
10001824:	6258      	str	r0, [r3, #36]	; 0x24
10001826:	6259      	str	r1, [r3, #36]	; 0x24
10001828:	625a      	str	r2, [r3, #36]	; 0x24
1000182a:	6158      	str	r0, [r3, #20]
1000182c:	6199      	str	r1, [r3, #24]
1000182e:	619a      	str	r2, [r3, #24]
10001830:	bd10      	pop	{r4, pc}
10001832:	46c0      	nop			; (mov r8, r8)
10001834:	000f4240 	.word	0x000f4240
10001838:	40040000 	.word	0x40040000

1000183c <ili9341_init_drawing>:
1000183c:	b5f0      	push	{r4, r5, r6, r7, lr}
1000183e:	46ce      	mov	lr, r9
10001840:	4647      	mov	r7, r8
10001842:	232a      	movs	r3, #42	; 0x2a
10001844:	b580      	push	{r7, lr}
10001846:	b083      	sub	sp, #12
10001848:	ae01      	add	r6, sp, #4
1000184a:	7033      	strb	r3, [r6, #0]
1000184c:	46c0      	nop			; (mov r8, r8)
1000184e:	46c0      	nop			; (mov r8, r8)
10001850:	46c0      	nop			; (mov r8, r8)
10001852:	24d0      	movs	r4, #208	; 0xd0
10001854:	2780      	movs	r7, #128	; 0x80
10001856:	0624      	lsls	r4, r4, #24
10001858:	023f      	lsls	r7, r7, #8
1000185a:	61a7      	str	r7, [r4, #24]
1000185c:	46c0      	nop			; (mov r8, r8)
1000185e:	46c0      	nop			; (mov r8, r8)
10001860:	46c0      	nop			; (mov r8, r8)
10001862:	46c0      	nop			; (mov r8, r8)
10001864:	46c0      	nop			; (mov r8, r8)
10001866:	46c0      	nop			; (mov r8, r8)
10001868:	2580      	movs	r5, #128	; 0x80
1000186a:	01ad      	lsls	r5, r5, #6
1000186c:	61a5      	str	r5, [r4, #24]
1000186e:	46c0      	nop			; (mov r8, r8)
10001870:	46c0      	nop			; (mov r8, r8)
10001872:	46c0      	nop			; (mov r8, r8)
10001874:	4b70      	ldr	r3, [pc, #448]	; (10001a38 <ili9341_init_drawing+0x1fc>)
10001876:	2201      	movs	r2, #1
10001878:	0031      	movs	r1, r6
1000187a:	0018      	movs	r0, r3
1000187c:	4698      	mov	r8, r3
1000187e:	f009 fcd7 	bl	1000b230 <__spi_write_blocking_veneer>
10001882:	46c0      	nop			; (mov r8, r8)
10001884:	46c0      	nop			; (mov r8, r8)
10001886:	46c0      	nop			; (mov r8, r8)
10001888:	6167      	str	r7, [r4, #20]
1000188a:	46c0      	nop			; (mov r8, r8)
1000188c:	46c0      	nop			; (mov r8, r8)
1000188e:	46c0      	nop			; (mov r8, r8)
10001890:	46c0      	nop			; (mov r8, r8)
10001892:	46c0      	nop			; (mov r8, r8)
10001894:	46c0      	nop			; (mov r8, r8)
10001896:	6165      	str	r5, [r4, #20]
10001898:	46c0      	nop			; (mov r8, r8)
1000189a:	46c0      	nop			; (mov r8, r8)
1000189c:	46c0      	nop			; (mov r8, r8)
1000189e:	46c0      	nop			; (mov r8, r8)
100018a0:	46c0      	nop			; (mov r8, r8)
100018a2:	46c0      	nop			; (mov r8, r8)
100018a4:	61a5      	str	r5, [r4, #24]
100018a6:	46c0      	nop			; (mov r8, r8)
100018a8:	46c0      	nop			; (mov r8, r8)
100018aa:	46c0      	nop			; (mov r8, r8)
100018ac:	46c0      	nop			; (mov r8, r8)
100018ae:	46c0      	nop			; (mov r8, r8)
100018b0:	46c0      	nop			; (mov r8, r8)
100018b2:	6167      	str	r7, [r4, #20]
100018b4:	46c0      	nop			; (mov r8, r8)
100018b6:	46c0      	nop			; (mov r8, r8)
100018b8:	46c0      	nop			; (mov r8, r8)
100018ba:	2300      	movs	r3, #0
100018bc:	2202      	movs	r2, #2
100018be:	0031      	movs	r1, r6
100018c0:	4640      	mov	r0, r8
100018c2:	4699      	mov	r9, r3
100018c4:	8033      	strh	r3, [r6, #0]
100018c6:	f009 fcb3 	bl	1000b230 <__spi_write_blocking_veneer>
100018ca:	46c0      	nop			; (mov r8, r8)
100018cc:	46c0      	nop			; (mov r8, r8)
100018ce:	46c0      	nop			; (mov r8, r8)
100018d0:	6165      	str	r5, [r4, #20]
100018d2:	46c0      	nop			; (mov r8, r8)
100018d4:	46c0      	nop			; (mov r8, r8)
100018d6:	46c0      	nop			; (mov r8, r8)
100018d8:	46c0      	nop			; (mov r8, r8)
100018da:	46c0      	nop			; (mov r8, r8)
100018dc:	46c0      	nop			; (mov r8, r8)
100018de:	61a5      	str	r5, [r4, #24]
100018e0:	46c0      	nop			; (mov r8, r8)
100018e2:	46c0      	nop			; (mov r8, r8)
100018e4:	46c0      	nop			; (mov r8, r8)
100018e6:	46c0      	nop			; (mov r8, r8)
100018e8:	46c0      	nop			; (mov r8, r8)
100018ea:	46c0      	nop			; (mov r8, r8)
100018ec:	6167      	str	r7, [r4, #20]
100018ee:	46c0      	nop			; (mov r8, r8)
100018f0:	46c0      	nop			; (mov r8, r8)
100018f2:	46c0      	nop			; (mov r8, r8)
100018f4:	4b51      	ldr	r3, [pc, #324]	; (10001a3c <ili9341_init_drawing+0x200>)
100018f6:	2202      	movs	r2, #2
100018f8:	0031      	movs	r1, r6
100018fa:	4640      	mov	r0, r8
100018fc:	8033      	strh	r3, [r6, #0]
100018fe:	f009 fc97 	bl	1000b230 <__spi_write_blocking_veneer>
10001902:	46c0      	nop			; (mov r8, r8)
10001904:	46c0      	nop			; (mov r8, r8)
10001906:	46c0      	nop			; (mov r8, r8)
10001908:	6165      	str	r5, [r4, #20]
1000190a:	46c0      	nop			; (mov r8, r8)
1000190c:	46c0      	nop			; (mov r8, r8)
1000190e:	46c0      	nop			; (mov r8, r8)
10001910:	232b      	movs	r3, #43	; 0x2b
10001912:	7033      	strb	r3, [r6, #0]
10001914:	46c0      	nop			; (mov r8, r8)
10001916:	46c0      	nop			; (mov r8, r8)
10001918:	46c0      	nop			; (mov r8, r8)
1000191a:	61a7      	str	r7, [r4, #24]
1000191c:	46c0      	nop			; (mov r8, r8)
1000191e:	46c0      	nop			; (mov r8, r8)
10001920:	46c0      	nop			; (mov r8, r8)
10001922:	46c0      	nop			; (mov r8, r8)
10001924:	46c0      	nop			; (mov r8, r8)
10001926:	46c0      	nop			; (mov r8, r8)
10001928:	61a5      	str	r5, [r4, #24]
1000192a:	46c0      	nop			; (mov r8, r8)
1000192c:	46c0      	nop			; (mov r8, r8)
1000192e:	46c0      	nop			; (mov r8, r8)
10001930:	2201      	movs	r2, #1
10001932:	0031      	movs	r1, r6
10001934:	4640      	mov	r0, r8
10001936:	f009 fc7b 	bl	1000b230 <__spi_write_blocking_veneer>
1000193a:	46c0      	nop			; (mov r8, r8)
1000193c:	46c0      	nop			; (mov r8, r8)
1000193e:	46c0      	nop			; (mov r8, r8)
10001940:	6167      	str	r7, [r4, #20]
10001942:	46c0      	nop			; (mov r8, r8)
10001944:	46c0      	nop			; (mov r8, r8)
10001946:	46c0      	nop			; (mov r8, r8)
10001948:	46c0      	nop			; (mov r8, r8)
1000194a:	46c0      	nop			; (mov r8, r8)
1000194c:	46c0      	nop			; (mov r8, r8)
1000194e:	6165      	str	r5, [r4, #20]
10001950:	46c0      	nop			; (mov r8, r8)
10001952:	46c0      	nop			; (mov r8, r8)
10001954:	46c0      	nop			; (mov r8, r8)
10001956:	46c0      	nop			; (mov r8, r8)
10001958:	46c0      	nop			; (mov r8, r8)
1000195a:	46c0      	nop			; (mov r8, r8)
1000195c:	61a5      	str	r5, [r4, #24]
1000195e:	46c0      	nop			; (mov r8, r8)
10001960:	46c0      	nop			; (mov r8, r8)
10001962:	46c0      	nop			; (mov r8, r8)
10001964:	46c0      	nop			; (mov r8, r8)
10001966:	46c0      	nop			; (mov r8, r8)
10001968:	46c0      	nop			; (mov r8, r8)
1000196a:	6167      	str	r7, [r4, #20]
1000196c:	46c0      	nop			; (mov r8, r8)
1000196e:	46c0      	nop			; (mov r8, r8)
10001970:	46c0      	nop			; (mov r8, r8)
10001972:	464b      	mov	r3, r9
10001974:	2202      	movs	r2, #2
10001976:	0031      	movs	r1, r6
10001978:	4640      	mov	r0, r8
1000197a:	8033      	strh	r3, [r6, #0]
1000197c:	f009 fc58 	bl	1000b230 <__spi_write_blocking_veneer>
10001980:	46c0      	nop			; (mov r8, r8)
10001982:	46c0      	nop			; (mov r8, r8)
10001984:	46c0      	nop			; (mov r8, r8)
10001986:	6165      	str	r5, [r4, #20]
10001988:	46c0      	nop			; (mov r8, r8)
1000198a:	46c0      	nop			; (mov r8, r8)
1000198c:	46c0      	nop			; (mov r8, r8)
1000198e:	46c0      	nop			; (mov r8, r8)
10001990:	46c0      	nop			; (mov r8, r8)
10001992:	46c0      	nop			; (mov r8, r8)
10001994:	61a5      	str	r5, [r4, #24]
10001996:	46c0      	nop			; (mov r8, r8)
10001998:	46c0      	nop			; (mov r8, r8)
1000199a:	46c0      	nop			; (mov r8, r8)
1000199c:	46c0      	nop			; (mov r8, r8)
1000199e:	46c0      	nop			; (mov r8, r8)
100019a0:	46c0      	nop			; (mov r8, r8)
100019a2:	6167      	str	r7, [r4, #20]
100019a4:	46c0      	nop			; (mov r8, r8)
100019a6:	46c0      	nop			; (mov r8, r8)
100019a8:	46c0      	nop			; (mov r8, r8)
100019aa:	4b25      	ldr	r3, [pc, #148]	; (10001a40 <ili9341_init_drawing+0x204>)
100019ac:	2202      	movs	r2, #2
100019ae:	0031      	movs	r1, r6
100019b0:	4640      	mov	r0, r8
100019b2:	8033      	strh	r3, [r6, #0]
100019b4:	f009 fc3c 	bl	1000b230 <__spi_write_blocking_veneer>
100019b8:	46c0      	nop			; (mov r8, r8)
100019ba:	46c0      	nop			; (mov r8, r8)
100019bc:	46c0      	nop			; (mov r8, r8)
100019be:	6165      	str	r5, [r4, #20]
100019c0:	46c0      	nop			; (mov r8, r8)
100019c2:	46c0      	nop			; (mov r8, r8)
100019c4:	46c0      	nop			; (mov r8, r8)
100019c6:	200a      	movs	r0, #10
100019c8:	f003 fac6 	bl	10004f58 <sleep_ms>
100019cc:	232c      	movs	r3, #44	; 0x2c
100019ce:	7033      	strb	r3, [r6, #0]
100019d0:	46c0      	nop			; (mov r8, r8)
100019d2:	46c0      	nop			; (mov r8, r8)
100019d4:	46c0      	nop			; (mov r8, r8)
100019d6:	61a7      	str	r7, [r4, #24]
100019d8:	46c0      	nop			; (mov r8, r8)
100019da:	46c0      	nop			; (mov r8, r8)
100019dc:	46c0      	nop			; (mov r8, r8)
100019de:	46c0      	nop			; (mov r8, r8)
100019e0:	46c0      	nop			; (mov r8, r8)
100019e2:	46c0      	nop			; (mov r8, r8)
100019e4:	61a5      	str	r5, [r4, #24]
100019e6:	46c0      	nop			; (mov r8, r8)
100019e8:	46c0      	nop			; (mov r8, r8)
100019ea:	46c0      	nop			; (mov r8, r8)
100019ec:	2201      	movs	r2, #1
100019ee:	0031      	movs	r1, r6
100019f0:	4640      	mov	r0, r8
100019f2:	f009 fc1d 	bl	1000b230 <__spi_write_blocking_veneer>
100019f6:	46c0      	nop			; (mov r8, r8)
100019f8:	46c0      	nop			; (mov r8, r8)
100019fa:	46c0      	nop			; (mov r8, r8)
100019fc:	6167      	str	r7, [r4, #20]
100019fe:	46c0      	nop			; (mov r8, r8)
10001a00:	46c0      	nop			; (mov r8, r8)
10001a02:	46c0      	nop			; (mov r8, r8)
10001a04:	46c0      	nop			; (mov r8, r8)
10001a06:	46c0      	nop			; (mov r8, r8)
10001a08:	46c0      	nop			; (mov r8, r8)
10001a0a:	6165      	str	r5, [r4, #20]
10001a0c:	46c0      	nop			; (mov r8, r8)
10001a0e:	46c0      	nop			; (mov r8, r8)
10001a10:	46c0      	nop			; (mov r8, r8)
10001a12:	46c0      	nop			; (mov r8, r8)
10001a14:	46c0      	nop			; (mov r8, r8)
10001a16:	46c0      	nop			; (mov r8, r8)
10001a18:	61a5      	str	r5, [r4, #24]
10001a1a:	46c0      	nop			; (mov r8, r8)
10001a1c:	46c0      	nop			; (mov r8, r8)
10001a1e:	46c0      	nop			; (mov r8, r8)
10001a20:	46c0      	nop			; (mov r8, r8)
10001a22:	46c0      	nop			; (mov r8, r8)
10001a24:	46c0      	nop			; (mov r8, r8)
10001a26:	6167      	str	r7, [r4, #20]
10001a28:	46c0      	nop			; (mov r8, r8)
10001a2a:	46c0      	nop			; (mov r8, r8)
10001a2c:	46c0      	nop			; (mov r8, r8)
10001a2e:	b003      	add	sp, #12
10001a30:	bcc0      	pop	{r6, r7}
10001a32:	46b9      	mov	r9, r7
10001a34:	46b0      	mov	r8, r6
10001a36:	bdf0      	pop	{r4, r5, r6, r7, pc}
10001a38:	40040000 	.word	0x40040000
10001a3c:	ffffef00 	.word	0xffffef00
10001a40:	00003f01 	.word	0x00003f01

10001a44 <ili9341_write_buffer>:
10001a44:	b510      	push	{r4, lr}
10001a46:	000a      	movs	r2, r1
10001a48:	0001      	movs	r1, r0
10001a4a:	4802      	ldr	r0, [pc, #8]	; (10001a54 <ili9341_write_buffer+0x10>)
10001a4c:	f009 fbf0 	bl	1000b230 <__spi_write_blocking_veneer>
10001a50:	bd10      	pop	{r4, pc}
10001a52:	46c0      	nop			; (mov r8, r8)
10001a54:	40040000 	.word	0x40040000

10001a58 <GPU_Init>:
10001a58:	2296      	movs	r2, #150	; 0x96
10001a5a:	b510      	push	{r4, lr}
10001a5c:	2100      	movs	r1, #0
10001a5e:	4802      	ldr	r0, [pc, #8]	; (10001a68 <GPU_Init+0x10>)
10001a60:	0292      	lsls	r2, r2, #10
10001a62:	f006 fcab 	bl	100083bc <__wrap_memset>
10001a66:	bd10      	pop	{r4, pc}
10001a68:	20000bb4 	.word	0x20000bb4

10001a6c <GPU_ClearFramebuffers>:
10001a6c:	2296      	movs	r2, #150	; 0x96
10001a6e:	b510      	push	{r4, lr}
10001a70:	2100      	movs	r1, #0
10001a72:	4802      	ldr	r0, [pc, #8]	; (10001a7c <GPU_ClearFramebuffers+0x10>)
10001a74:	0292      	lsls	r2, r2, #10
10001a76:	f006 fca1 	bl	100083bc <__wrap_memset>
10001a7a:	bd10      	pop	{r4, pc}
10001a7c:	20000bb4 	.word	0x20000bb4

10001a80 <GPU_Render>:
10001a80:	b5f0      	push	{r4, r5, r6, r7, lr}
10001a82:	46de      	mov	lr, fp
10001a84:	4657      	mov	r7, sl
10001a86:	464e      	mov	r6, r9
10001a88:	4645      	mov	r5, r8
10001a8a:	2300      	movs	r3, #0
10001a8c:	b5e0      	push	{r5, r6, r7, lr}
10001a8e:	b099      	sub	sp, #100	; 0x64
10001a90:	2215      	movs	r2, #21
10001a92:	2100      	movs	r1, #0
10001a94:	a812      	add	r0, sp, #72	; 0x48
10001a96:	9311      	str	r3, [sp, #68]	; 0x44
10001a98:	f006 fc90 	bl	100083bc <__wrap_memset>
10001a9c:	f001 fa60 	bl	10002f60 <IF_GetCurrentTime>
10001aa0:	4bc2      	ldr	r3, [pc, #776]	; (10001dac <GPU_Render+0x32c>)
10001aa2:	900e      	str	r0, [sp, #56]	; 0x38
10001aa4:	681b      	ldr	r3, [r3, #0]
10001aa6:	9301      	str	r3, [sp, #4]
10001aa8:	4283      	cmp	r3, r0
10001aaa:	d110      	bne.n	10001ace <GPU_Render+0x4e>
10001aac:	4bc0      	ldr	r3, [pc, #768]	; (10001db0 <GPU_Render+0x330>)
10001aae:	9308      	str	r3, [sp, #32]
10001ab0:	2196      	movs	r1, #150	; 0x96
10001ab2:	4bbe      	ldr	r3, [pc, #760]	; (10001dac <GPU_Render+0x32c>)
10001ab4:	9a0e      	ldr	r2, [sp, #56]	; 0x38
10001ab6:	9808      	ldr	r0, [sp, #32]
10001ab8:	0289      	lsls	r1, r1, #10
10001aba:	601a      	str	r2, [r3, #0]
10001abc:	f001 fa54 	bl	10002f68 <IF_DrawScreen>
10001ac0:	b019      	add	sp, #100	; 0x64
10001ac2:	bcf0      	pop	{r4, r5, r6, r7}
10001ac4:	46bb      	mov	fp, r7
10001ac6:	46b2      	mov	sl, r6
10001ac8:	46a9      	mov	r9, r5
10001aca:	46a0      	mov	r8, r4
10001acc:	bdf0      	pop	{r4, r5, r6, r7, pc}
10001ace:	49b9      	ldr	r1, [pc, #740]	; (10001db4 <GPU_Render+0x334>)
10001ad0:	0005      	movs	r5, r0
10001ad2:	f005 fc9d 	bl	10007410 <__wrap___aeabi_uidiv>
10001ad6:	213c      	movs	r1, #60	; 0x3c
10001ad8:	f005 fc9a 	bl	10007410 <__wrap___aeabi_uidiv>
10001adc:	0088      	lsls	r0, r1, #2
10001ade:	1840      	adds	r0, r0, r1
10001ae0:	0040      	lsls	r0, r0, #1
10001ae2:	213c      	movs	r1, #60	; 0x3c
10001ae4:	f005 fc94 	bl	10007410 <__wrap___aeabi_uidiv>
10001ae8:	0028      	movs	r0, r5
10001aea:	000c      	movs	r4, r1
10001aec:	49b2      	ldr	r1, [pc, #712]	; (10001db8 <GPU_Render+0x338>)
10001aee:	f005 fc8f 	bl	10007410 <__wrap___aeabi_uidiv>
10001af2:	0023      	movs	r3, r4
10001af4:	0002      	movs	r2, r0
10001af6:	49b1      	ldr	r1, [pc, #708]	; (10001dbc <GPU_Render+0x33c>)
10001af8:	a811      	add	r0, sp, #68	; 0x44
10001afa:	f005 fbe7 	bl	100072cc <__wrap_sprintf>
10001afe:	4aac      	ldr	r2, [pc, #688]	; (10001db0 <GPU_Render+0x330>)
10001b00:	4baf      	ldr	r3, [pc, #700]	; (10001dc0 <GPU_Render+0x340>)
10001b02:	9208      	str	r2, [sp, #32]
10001b04:	22aa      	movs	r2, #170	; 0xaa
10001b06:	881d      	ldrh	r5, [r3, #0]
10001b08:	00c1      	lsls	r1, r0, #3
10001b0a:	239b      	movs	r3, #155	; 0x9b
10001b0c:	1a09      	subs	r1, r1, r0
10001b0e:	b289      	uxth	r1, r1
10001b10:	24a0      	movs	r4, #160	; 0xa0
10001b12:	2640      	movs	r6, #64	; 0x40
10001b14:	0052      	lsls	r2, r2, #1
10001b16:	4694      	mov	ip, r2
10001b18:	4689      	mov	r9, r1
10001b1a:	005b      	lsls	r3, r3, #1
10001b1c:	1a5b      	subs	r3, r3, r1
10001b1e:	0428      	lsls	r0, r5, #16
10001b20:	b29b      	uxth	r3, r3
10001b22:	0064      	lsls	r4, r4, #1
10001b24:	4328      	orrs	r0, r5
10001b26:	36ff      	adds	r6, #255	; 0xff
10001b28:	42a3      	cmp	r3, r4
10001b2a:	d212      	bcs.n	10001b52 <GPU_Render+0xd2>
10001b2c:	9908      	ldr	r1, [sp, #32]
10001b2e:	1af7      	subs	r7, r6, r3
10001b30:	4688      	mov	r8, r1
10001b32:	013a      	lsls	r2, r7, #4
10001b34:	1bd2      	subs	r2, r2, r7
10001b36:	0157      	lsls	r7, r2, #5
10001b38:	3301      	adds	r3, #1
10001b3a:	0152      	lsls	r2, r2, #5
10001b3c:	4447      	add	r7, r8
10001b3e:	3214      	adds	r2, #20
10001b40:	b29b      	uxth	r3, r3
10001b42:	6038      	str	r0, [r7, #0]
10001b44:	6078      	str	r0, [r7, #4]
10001b46:	60b8      	str	r0, [r7, #8]
10001b48:	60f8      	str	r0, [r7, #12]
10001b4a:	6138      	str	r0, [r7, #16]
10001b4c:	528d      	strh	r5, [r1, r2]
10001b4e:	42a3      	cmp	r3, r4
10001b50:	d3ec      	bcc.n	10001b2c <GPU_Render+0xac>
10001b52:	3301      	adds	r3, #1
10001b54:	b29b      	uxth	r3, r3
10001b56:	4563      	cmp	r3, ip
10001b58:	d1e6      	bne.n	10001b28 <GPU_Render+0xa8>
10001b5a:	ab11      	add	r3, sp, #68	; 0x44
10001b5c:	9307      	str	r3, [sp, #28]
10001b5e:	2342      	movs	r3, #66	; 0x42
10001b60:	4649      	mov	r1, r9
10001b62:	33ff      	adds	r3, #255	; 0xff
10001b64:	1a5a      	subs	r2, r3, r1
10001b66:	b292      	uxth	r2, r2
10001b68:	9204      	str	r2, [sp, #16]
10001b6a:	22a1      	movs	r2, #161	; 0xa1
10001b6c:	0052      	lsls	r2, r2, #1
10001b6e:	1a52      	subs	r2, r2, r1
10001b70:	b292      	uxth	r2, r2
10001b72:	9201      	str	r2, [sp, #4]
10001b74:	2244      	movs	r2, #68	; 0x44
10001b76:	32ff      	adds	r2, #255	; 0xff
10001b78:	1a52      	subs	r2, r2, r1
10001b7a:	b292      	uxth	r2, r2
10001b7c:	9202      	str	r2, [sp, #8]
10001b7e:	22a2      	movs	r2, #162	; 0xa2
10001b80:	0052      	lsls	r2, r2, #1
10001b82:	1a52      	subs	r2, r2, r1
10001b84:	b292      	uxth	r2, r2
10001b86:	9203      	str	r2, [sp, #12]
10001b88:	2246      	movs	r2, #70	; 0x46
10001b8a:	32ff      	adds	r2, #255	; 0xff
10001b8c:	1a52      	subs	r2, r2, r1
10001b8e:	b292      	uxth	r2, r2
10001b90:	9205      	str	r2, [sp, #20]
10001b92:	930c      	str	r3, [sp, #48]	; 0x30
10001b94:	22a3      	movs	r2, #163	; 0xa3
10001b96:	4b8b      	ldr	r3, [pc, #556]	; (10001dc4 <GPU_Render+0x344>)
10001b98:	0052      	lsls	r2, r2, #1
10001b9a:	469a      	mov	sl, r3
10001b9c:	2380      	movs	r3, #128	; 0x80
10001b9e:	1a51      	subs	r1, r2, r1
10001ba0:	b28a      	uxth	r2, r1
10001ba2:	01db      	lsls	r3, r3, #7
10001ba4:	469b      	mov	fp, r3
10001ba6:	9206      	str	r2, [sp, #24]
10001ba8:	2380      	movs	r3, #128	; 0x80
10001baa:	22a0      	movs	r2, #160	; 0xa0
10001bac:	019b      	lsls	r3, r3, #6
10001bae:	0052      	lsls	r2, r2, #1
10001bb0:	4690      	mov	r8, r2
10001bb2:	4699      	mov	r9, r3
10001bb4:	9b07      	ldr	r3, [sp, #28]
10001bb6:	9d03      	ldr	r5, [sp, #12]
10001bb8:	781b      	ldrb	r3, [r3, #0]
10001bba:	9c01      	ldr	r4, [sp, #4]
10001bbc:	3b20      	subs	r3, #32
10001bbe:	009a      	lsls	r2, r3, #2
10001bc0:	18d3      	adds	r3, r2, r3
10001bc2:	2240      	movs	r2, #64	; 0x40
10001bc4:	32ff      	adds	r2, #255	; 0xff
10001bc6:	1b56      	subs	r6, r2, r5
10001bc8:	1b14      	subs	r4, r2, r4
10001bca:	9f05      	ldr	r7, [sp, #20]
10001bcc:	9904      	ldr	r1, [sp, #16]
10001bce:	9409      	str	r4, [sp, #36]	; 0x24
10001bd0:	960a      	str	r6, [sp, #40]	; 0x28
10001bd2:	9c02      	ldr	r4, [sp, #8]
10001bd4:	9e06      	ldr	r6, [sp, #24]
10001bd6:	1bd5      	subs	r5, r2, r7
10001bd8:	950b      	str	r5, [sp, #44]	; 0x2c
10001bda:	1a50      	subs	r0, r2, r1
10001bdc:	1b14      	subs	r4, r2, r4
10001bde:	1b95      	subs	r5, r2, r6
10001be0:	4546      	cmp	r6, r8
10001be2:	d300      	bcc.n	10001be6 <GPU_Render+0x166>
10001be4:	e085      	b.n	10001cf2 <GPU_Render+0x272>
10001be6:	4547      	cmp	r7, r8
10001be8:	d300      	bcc.n	10001bec <GPU_Render+0x16c>
10001bea:	e0f1      	b.n	10001dd0 <GPU_Render+0x350>
10001bec:	4541      	cmp	r1, r8
10001bee:	d300      	bcc.n	10001bf2 <GPU_Render+0x172>
10001bf0:	e148      	b.n	10001e84 <GPU_Render+0x404>
10001bf2:	9a03      	ldr	r2, [sp, #12]
10001bf4:	009b      	lsls	r3, r3, #2
10001bf6:	4542      	cmp	r2, r8
10001bf8:	d300      	bcc.n	10001bfc <GPU_Render+0x17c>
10001bfa:	e1f8      	b.n	10001fee <GPU_Render+0x56e>
10001bfc:	4a72      	ldr	r2, [pc, #456]	; (10001dc8 <GPU_Render+0x348>)
10001bfe:	012e      	lsls	r6, r5, #4
10001c00:	4694      	mov	ip, r2
10001c02:	1b77      	subs	r7, r6, r5
10001c04:	4971      	ldr	r1, [pc, #452]	; (10001dcc <GPU_Render+0x34c>)
10001c06:	1bad      	subs	r5, r5, r6
10001c08:	0106      	lsls	r6, r0, #4
10001c0a:	1a30      	subs	r0, r6, r0
10001c0c:	4463      	add	r3, ip
10001c0e:	468c      	mov	ip, r1
10001c10:	0141      	lsls	r1, r0, #5
10001c12:	910d      	str	r1, [sp, #52]	; 0x34
10001c14:	9909      	ldr	r1, [sp, #36]	; 0x24
10001c16:	9a08      	ldr	r2, [sp, #32]
10001c18:	0108      	lsls	r0, r1, #4
10001c1a:	1a41      	subs	r1, r0, r1
10001c1c:	0149      	lsls	r1, r1, #5
10001c1e:	9109      	str	r1, [sp, #36]	; 0x24
10001c20:	0121      	lsls	r1, r4, #4
10001c22:	980a      	ldr	r0, [sp, #40]	; 0x28
10001c24:	1b09      	subs	r1, r1, r4
10001c26:	0149      	lsls	r1, r1, #5
10001c28:	910f      	str	r1, [sp, #60]	; 0x3c
10001c2a:	0101      	lsls	r1, r0, #4
10001c2c:	1a09      	subs	r1, r1, r0
10001c2e:	980b      	ldr	r0, [sp, #44]	; 0x2c
10001c30:	0149      	lsls	r1, r1, #5
10001c32:	910a      	str	r1, [sp, #40]	; 0x28
10001c34:	0101      	lsls	r1, r0, #4
10001c36:	1a09      	subs	r1, r1, r0
10001c38:	0149      	lsls	r1, r1, #5
10001c3a:	910b      	str	r1, [sp, #44]	; 0x2c
10001c3c:	2180      	movs	r1, #128	; 0x80
10001c3e:	017f      	lsls	r7, r7, #5
10001c40:	0149      	lsls	r1, r1, #5
10001c42:	19d2      	adds	r2, r2, r7
10001c44:	4467      	add	r7, ip
10001c46:	468c      	mov	ip, r1
10001c48:	016d      	lsls	r5, r5, #5
10001c4a:	8819      	ldrh	r1, [r3, #0]
10001c4c:	0bc8      	lsrs	r0, r1, #15
10001c4e:	d003      	beq.n	10001c58 <GPU_Render+0x1d8>
10001c50:	4656      	mov	r6, sl
10001c52:	9c0d      	ldr	r4, [sp, #52]	; 0x34
10001c54:	1950      	adds	r0, r2, r5
10001c56:	5306      	strh	r6, [r0, r4]
10001c58:	4658      	mov	r0, fp
10001c5a:	4201      	tst	r1, r0
10001c5c:	d006      	beq.n	10001c6c <GPU_Render+0x1ec>
10001c5e:	9801      	ldr	r0, [sp, #4]
10001c60:	4540      	cmp	r0, r8
10001c62:	d203      	bcs.n	10001c6c <GPU_Render+0x1ec>
10001c64:	4656      	mov	r6, sl
10001c66:	9c09      	ldr	r4, [sp, #36]	; 0x24
10001c68:	1950      	adds	r0, r2, r5
10001c6a:	5306      	strh	r6, [r0, r4]
10001c6c:	4648      	mov	r0, r9
10001c6e:	4201      	tst	r1, r0
10001c70:	d006      	beq.n	10001c80 <GPU_Render+0x200>
10001c72:	9802      	ldr	r0, [sp, #8]
10001c74:	4540      	cmp	r0, r8
10001c76:	d203      	bcs.n	10001c80 <GPU_Render+0x200>
10001c78:	4656      	mov	r6, sl
10001c7a:	9c0f      	ldr	r4, [sp, #60]	; 0x3c
10001c7c:	1950      	adds	r0, r2, r5
10001c7e:	5306      	strh	r6, [r0, r4]
10001c80:	4660      	mov	r0, ip
10001c82:	4201      	tst	r1, r0
10001c84:	d003      	beq.n	10001c8e <GPU_Render+0x20e>
10001c86:	4656      	mov	r6, sl
10001c88:	9c0a      	ldr	r4, [sp, #40]	; 0x28
10001c8a:	1950      	adds	r0, r2, r5
10001c8c:	5306      	strh	r6, [r0, r4]
10001c8e:	2080      	movs	r0, #128	; 0x80
10001c90:	0100      	lsls	r0, r0, #4
10001c92:	4201      	tst	r1, r0
10001c94:	d003      	beq.n	10001c9e <GPU_Render+0x21e>
10001c96:	4656      	mov	r6, sl
10001c98:	9c0b      	ldr	r4, [sp, #44]	; 0x2c
10001c9a:	1950      	adds	r0, r2, r5
10001c9c:	5306      	strh	r6, [r0, r4]
10001c9e:	2080      	movs	r0, #128	; 0x80
10001ca0:	00c0      	lsls	r0, r0, #3
10001ca2:	4201      	tst	r1, r0
10001ca4:	d001      	beq.n	10001caa <GPU_Render+0x22a>
10001ca6:	4651      	mov	r1, sl
10001ca8:	8011      	strh	r1, [r2, #0]
10001caa:	3202      	adds	r2, #2
10001cac:	3302      	adds	r3, #2
10001cae:	42ba      	cmp	r2, r7
10001cb0:	d1cb      	bne.n	10001c4a <GPU_Render+0x1ca>
10001cb2:	9b07      	ldr	r3, [sp, #28]
10001cb4:	3301      	adds	r3, #1
10001cb6:	9307      	str	r3, [sp, #28]
10001cb8:	9b04      	ldr	r3, [sp, #16]
10001cba:	3307      	adds	r3, #7
10001cbc:	b29a      	uxth	r2, r3
10001cbe:	9b01      	ldr	r3, [sp, #4]
10001cc0:	9204      	str	r2, [sp, #16]
10001cc2:	3307      	adds	r3, #7
10001cc4:	b29b      	uxth	r3, r3
10001cc6:	9301      	str	r3, [sp, #4]
10001cc8:	9b02      	ldr	r3, [sp, #8]
10001cca:	3307      	adds	r3, #7
10001ccc:	b29b      	uxth	r3, r3
10001cce:	9302      	str	r3, [sp, #8]
10001cd0:	9b03      	ldr	r3, [sp, #12]
10001cd2:	3307      	adds	r3, #7
10001cd4:	b29b      	uxth	r3, r3
10001cd6:	9303      	str	r3, [sp, #12]
10001cd8:	9b05      	ldr	r3, [sp, #20]
10001cda:	3307      	adds	r3, #7
10001cdc:	b29b      	uxth	r3, r3
10001cde:	9305      	str	r3, [sp, #20]
10001ce0:	9b06      	ldr	r3, [sp, #24]
10001ce2:	3307      	adds	r3, #7
10001ce4:	b29b      	uxth	r3, r3
10001ce6:	9306      	str	r3, [sp, #24]
10001ce8:	9b0c      	ldr	r3, [sp, #48]	; 0x30
10001cea:	429a      	cmp	r2, r3
10001cec:	d000      	beq.n	10001cf0 <GPU_Render+0x270>
10001cee:	e761      	b.n	10001bb4 <GPU_Render+0x134>
10001cf0:	e6de      	b.n	10001ab0 <GPU_Render+0x30>
10001cf2:	4547      	cmp	r7, r8
10001cf4:	d300      	bcc.n	10001cf8 <GPU_Render+0x278>
10001cf6:	e139      	b.n	10001f6c <GPU_Render+0x4ec>
10001cf8:	9a03      	ldr	r2, [sp, #12]
10001cfa:	4542      	cmp	r2, r8
10001cfc:	d300      	bcc.n	10001d00 <GPU_Render+0x280>
10001cfe:	e1cc      	b.n	1000209a <GPU_Render+0x61a>
10001d00:	009b      	lsls	r3, r3, #2
10001d02:	4541      	cmp	r1, r8
10001d04:	d300      	bcc.n	10001d08 <GPU_Render+0x288>
10001d06:	e2ce      	b.n	100022a6 <GPU_Render+0x826>
10001d08:	4a2f      	ldr	r2, [pc, #188]	; (10001dc8 <GPU_Render+0x348>)
10001d0a:	990b      	ldr	r1, [sp, #44]	; 0x2c
10001d0c:	4694      	mov	ip, r2
10001d0e:	010d      	lsls	r5, r1, #4
10001d10:	1a6e      	subs	r6, r5, r1
10001d12:	9f08      	ldr	r7, [sp, #32]
10001d14:	0176      	lsls	r6, r6, #5
10001d16:	1b4d      	subs	r5, r1, r5
10001d18:	19ba      	adds	r2, r7, r6
10001d1a:	3714      	adds	r7, #20
10001d1c:	19be      	adds	r6, r7, r6
10001d1e:	016f      	lsls	r7, r5, #5
10001d20:	0105      	lsls	r5, r0, #4
10001d22:	1a28      	subs	r0, r5, r0
10001d24:	0141      	lsls	r1, r0, #5
10001d26:	910b      	str	r1, [sp, #44]	; 0x2c
10001d28:	9909      	ldr	r1, [sp, #36]	; 0x24
10001d2a:	2580      	movs	r5, #128	; 0x80
10001d2c:	0108      	lsls	r0, r1, #4
10001d2e:	1a41      	subs	r1, r0, r1
10001d30:	0149      	lsls	r1, r1, #5
10001d32:	910d      	str	r1, [sp, #52]	; 0x34
10001d34:	0121      	lsls	r1, r4, #4
10001d36:	980a      	ldr	r0, [sp, #40]	; 0x28
10001d38:	1b09      	subs	r1, r1, r4
10001d3a:	0149      	lsls	r1, r1, #5
10001d3c:	910f      	str	r1, [sp, #60]	; 0x3c
10001d3e:	0101      	lsls	r1, r0, #4
10001d40:	1a09      	subs	r1, r1, r0
10001d42:	0149      	lsls	r1, r1, #5
10001d44:	4463      	add	r3, ip
10001d46:	468c      	mov	ip, r1
10001d48:	016d      	lsls	r5, r5, #5
10001d4a:	9709      	str	r7, [sp, #36]	; 0x24
10001d4c:	8819      	ldrh	r1, [r3, #0]
10001d4e:	0bc8      	lsrs	r0, r1, #15
10001d50:	d004      	beq.n	10001d5c <GPU_Render+0x2dc>
10001d52:	4654      	mov	r4, sl
10001d54:	9809      	ldr	r0, [sp, #36]	; 0x24
10001d56:	9f0b      	ldr	r7, [sp, #44]	; 0x2c
10001d58:	1810      	adds	r0, r2, r0
10001d5a:	53c4      	strh	r4, [r0, r7]
10001d5c:	4658      	mov	r0, fp
10001d5e:	4201      	tst	r1, r0
10001d60:	d007      	beq.n	10001d72 <GPU_Render+0x2f2>
10001d62:	9801      	ldr	r0, [sp, #4]
10001d64:	4540      	cmp	r0, r8
10001d66:	d204      	bcs.n	10001d72 <GPU_Render+0x2f2>
10001d68:	4657      	mov	r7, sl
10001d6a:	9809      	ldr	r0, [sp, #36]	; 0x24
10001d6c:	9c0d      	ldr	r4, [sp, #52]	; 0x34
10001d6e:	1810      	adds	r0, r2, r0
10001d70:	5307      	strh	r7, [r0, r4]
10001d72:	4648      	mov	r0, r9
10001d74:	4201      	tst	r1, r0
10001d76:	d007      	beq.n	10001d88 <GPU_Render+0x308>
10001d78:	9802      	ldr	r0, [sp, #8]
10001d7a:	4540      	cmp	r0, r8
10001d7c:	d204      	bcs.n	10001d88 <GPU_Render+0x308>
10001d7e:	4657      	mov	r7, sl
10001d80:	9809      	ldr	r0, [sp, #36]	; 0x24
10001d82:	9c0f      	ldr	r4, [sp, #60]	; 0x3c
10001d84:	1810      	adds	r0, r2, r0
10001d86:	5307      	strh	r7, [r0, r4]
10001d88:	4229      	tst	r1, r5
10001d8a:	d004      	beq.n	10001d96 <GPU_Render+0x316>
10001d8c:	4664      	mov	r4, ip
10001d8e:	4657      	mov	r7, sl
10001d90:	9809      	ldr	r0, [sp, #36]	; 0x24
10001d92:	1810      	adds	r0, r2, r0
10001d94:	5307      	strh	r7, [r0, r4]
10001d96:	2080      	movs	r0, #128	; 0x80
10001d98:	0100      	lsls	r0, r0, #4
10001d9a:	4201      	tst	r1, r0
10001d9c:	d001      	beq.n	10001da2 <GPU_Render+0x322>
10001d9e:	4651      	mov	r1, sl
10001da0:	8011      	strh	r1, [r2, #0]
10001da2:	3202      	adds	r2, #2
10001da4:	3302      	adds	r3, #2
10001da6:	42b2      	cmp	r2, r6
10001da8:	d1d0      	bne.n	10001d4c <GPU_Render+0x2cc>
10001daa:	e782      	b.n	10001cb2 <GPU_Render+0x232>
10001dac:	20026b20 	.word	0x20026b20
10001db0:	20000bb4 	.word	0x20000bb4
10001db4:	00989680 	.word	0x00989680
10001db8:	03938700 	.word	0x03938700
10001dbc:	1000b260 	.word	0x1000b260
10001dc0:	20026b88 	.word	0x20026b88
10001dc4:	000007de 	.word	0x000007de
10001dc8:	1000d920 	.word	0x1000d920
10001dcc:	20000bc8 	.word	0x20000bc8
10001dd0:	9a03      	ldr	r2, [sp, #12]
10001dd2:	4542      	cmp	r2, r8
10001dd4:	d300      	bcc.n	10001dd8 <GPU_Render+0x358>
10001dd6:	e1a1      	b.n	1000211c <GPU_Render+0x69c>
10001dd8:	009b      	lsls	r3, r3, #2
10001dda:	4541      	cmp	r1, r8
10001ddc:	d300      	bcc.n	10001de0 <GPU_Render+0x360>
10001dde:	e2ec      	b.n	100023ba <GPU_Render+0x93a>
10001de0:	4acc      	ldr	r2, [pc, #816]	; (10002114 <GPU_Render+0x694>)
10001de2:	49cd      	ldr	r1, [pc, #820]	; (10002118 <GPU_Render+0x698>)
10001de4:	4694      	mov	ip, r2
10001de6:	4463      	add	r3, ip
10001de8:	468c      	mov	ip, r1
10001dea:	012e      	lsls	r6, r5, #4
10001dec:	1b77      	subs	r7, r6, r5
10001dee:	1bae      	subs	r6, r5, r6
10001df0:	0105      	lsls	r5, r0, #4
10001df2:	1a28      	subs	r0, r5, r0
10001df4:	0141      	lsls	r1, r0, #5
10001df6:	910b      	str	r1, [sp, #44]	; 0x2c
10001df8:	9909      	ldr	r1, [sp, #36]	; 0x24
10001dfa:	9a08      	ldr	r2, [sp, #32]
10001dfc:	0108      	lsls	r0, r1, #4
10001dfe:	1a41      	subs	r1, r0, r1
10001e00:	0149      	lsls	r1, r1, #5
10001e02:	910d      	str	r1, [sp, #52]	; 0x34
10001e04:	0121      	lsls	r1, r4, #4
10001e06:	980a      	ldr	r0, [sp, #40]	; 0x28
10001e08:	1b09      	subs	r1, r1, r4
10001e0a:	0149      	lsls	r1, r1, #5
10001e0c:	910f      	str	r1, [sp, #60]	; 0x3c
10001e0e:	0101      	lsls	r1, r0, #4
10001e10:	1a09      	subs	r1, r1, r0
10001e12:	017f      	lsls	r7, r7, #5
10001e14:	2580      	movs	r5, #128	; 0x80
10001e16:	0149      	lsls	r1, r1, #5
10001e18:	19d2      	adds	r2, r2, r7
10001e1a:	4467      	add	r7, ip
10001e1c:	468c      	mov	ip, r1
10001e1e:	0176      	lsls	r6, r6, #5
10001e20:	016d      	lsls	r5, r5, #5
10001e22:	9609      	str	r6, [sp, #36]	; 0x24
10001e24:	8819      	ldrh	r1, [r3, #0]
10001e26:	0bc8      	lsrs	r0, r1, #15
10001e28:	d004      	beq.n	10001e34 <GPU_Render+0x3b4>
10001e2a:	4654      	mov	r4, sl
10001e2c:	9809      	ldr	r0, [sp, #36]	; 0x24
10001e2e:	9e0b      	ldr	r6, [sp, #44]	; 0x2c
10001e30:	1810      	adds	r0, r2, r0
10001e32:	5384      	strh	r4, [r0, r6]
10001e34:	4658      	mov	r0, fp
10001e36:	4201      	tst	r1, r0
10001e38:	d007      	beq.n	10001e4a <GPU_Render+0x3ca>
10001e3a:	9801      	ldr	r0, [sp, #4]
10001e3c:	4540      	cmp	r0, r8
10001e3e:	d204      	bcs.n	10001e4a <GPU_Render+0x3ca>
10001e40:	4656      	mov	r6, sl
10001e42:	9809      	ldr	r0, [sp, #36]	; 0x24
10001e44:	9c0d      	ldr	r4, [sp, #52]	; 0x34
10001e46:	1810      	adds	r0, r2, r0
10001e48:	5306      	strh	r6, [r0, r4]
10001e4a:	4648      	mov	r0, r9
10001e4c:	4201      	tst	r1, r0
10001e4e:	d007      	beq.n	10001e60 <GPU_Render+0x3e0>
10001e50:	9802      	ldr	r0, [sp, #8]
10001e52:	4540      	cmp	r0, r8
10001e54:	d204      	bcs.n	10001e60 <GPU_Render+0x3e0>
10001e56:	4656      	mov	r6, sl
10001e58:	9809      	ldr	r0, [sp, #36]	; 0x24
10001e5a:	9c0f      	ldr	r4, [sp, #60]	; 0x3c
10001e5c:	1810      	adds	r0, r2, r0
10001e5e:	5306      	strh	r6, [r0, r4]
10001e60:	4229      	tst	r1, r5
10001e62:	d004      	beq.n	10001e6e <GPU_Render+0x3ee>
10001e64:	4664      	mov	r4, ip
10001e66:	4656      	mov	r6, sl
10001e68:	9809      	ldr	r0, [sp, #36]	; 0x24
10001e6a:	1810      	adds	r0, r2, r0
10001e6c:	5306      	strh	r6, [r0, r4]
10001e6e:	2080      	movs	r0, #128	; 0x80
10001e70:	00c0      	lsls	r0, r0, #3
10001e72:	4201      	tst	r1, r0
10001e74:	d001      	beq.n	10001e7a <GPU_Render+0x3fa>
10001e76:	4651      	mov	r1, sl
10001e78:	8011      	strh	r1, [r2, #0]
10001e7a:	3202      	adds	r2, #2
10001e7c:	3302      	adds	r3, #2
10001e7e:	42ba      	cmp	r2, r7
10001e80:	d1d0      	bne.n	10001e24 <GPU_Render+0x3a4>
10001e82:	e716      	b.n	10001cb2 <GPU_Render+0x232>
10001e84:	9a01      	ldr	r2, [sp, #4]
10001e86:	009b      	lsls	r3, r3, #2
10001e88:	4542      	cmp	r2, r8
10001e8a:	d300      	bcc.n	10001e8e <GPU_Render+0x40e>
10001e8c:	e250      	b.n	10002330 <GPU_Render+0x8b0>
10001e8e:	4aa1      	ldr	r2, [pc, #644]	; (10002114 <GPU_Render+0x694>)
10001e90:	0128      	lsls	r0, r5, #4
10001e92:	4694      	mov	ip, r2
10001e94:	1b46      	subs	r6, r0, r5
10001e96:	9908      	ldr	r1, [sp, #32]
10001e98:	0176      	lsls	r6, r6, #5
10001e9a:	1a28      	subs	r0, r5, r0
10001e9c:	198a      	adds	r2, r1, r6
10001e9e:	3114      	adds	r1, #20
10001ea0:	198f      	adds	r7, r1, r6
10001ea2:	0141      	lsls	r1, r0, #5
10001ea4:	910d      	str	r1, [sp, #52]	; 0x34
10001ea6:	9909      	ldr	r1, [sp, #36]	; 0x24
10001ea8:	2580      	movs	r5, #128	; 0x80
10001eaa:	0108      	lsls	r0, r1, #4
10001eac:	1a41      	subs	r1, r0, r1
10001eae:	0149      	lsls	r1, r1, #5
10001eb0:	9109      	str	r1, [sp, #36]	; 0x24
10001eb2:	0121      	lsls	r1, r4, #4
10001eb4:	980a      	ldr	r0, [sp, #40]	; 0x28
10001eb6:	1b09      	subs	r1, r1, r4
10001eb8:	0149      	lsls	r1, r1, #5
10001eba:	910f      	str	r1, [sp, #60]	; 0x3c
10001ebc:	0101      	lsls	r1, r0, #4
10001ebe:	1a09      	subs	r1, r1, r0
10001ec0:	980b      	ldr	r0, [sp, #44]	; 0x2c
10001ec2:	0149      	lsls	r1, r1, #5
10001ec4:	910a      	str	r1, [sp, #40]	; 0x28
10001ec6:	0101      	lsls	r1, r0, #4
10001ec8:	1a09      	subs	r1, r1, r0
10001eca:	0149      	lsls	r1, r1, #5
10001ecc:	4463      	add	r3, ip
10001ece:	468c      	mov	ip, r1
10001ed0:	016d      	lsls	r5, r5, #5
10001ed2:	465e      	mov	r6, fp
10001ed4:	8819      	ldrh	r1, [r3, #0]
10001ed6:	4231      	tst	r1, r6
10001ed8:	d004      	beq.n	10001ee4 <GPU_Render+0x464>
10001eda:	4654      	mov	r4, sl
10001edc:	9e0d      	ldr	r6, [sp, #52]	; 0x34
10001ede:	9809      	ldr	r0, [sp, #36]	; 0x24
10001ee0:	18b6      	adds	r6, r6, r2
10001ee2:	5234      	strh	r4, [r6, r0]
10001ee4:	464e      	mov	r6, r9
10001ee6:	4231      	tst	r1, r6
10001ee8:	d007      	beq.n	10001efa <GPU_Render+0x47a>
10001eea:	9e02      	ldr	r6, [sp, #8]
10001eec:	4546      	cmp	r6, r8
10001eee:	d204      	bcs.n	10001efa <GPU_Render+0x47a>
10001ef0:	4654      	mov	r4, sl
10001ef2:	980d      	ldr	r0, [sp, #52]	; 0x34
10001ef4:	1886      	adds	r6, r0, r2
10001ef6:	980f      	ldr	r0, [sp, #60]	; 0x3c
10001ef8:	5234      	strh	r4, [r6, r0]
10001efa:	4229      	tst	r1, r5
10001efc:	d007      	beq.n	10001f0e <GPU_Render+0x48e>
10001efe:	9e03      	ldr	r6, [sp, #12]
10001f00:	4546      	cmp	r6, r8
10001f02:	d204      	bcs.n	10001f0e <GPU_Render+0x48e>
10001f04:	4654      	mov	r4, sl
10001f06:	980d      	ldr	r0, [sp, #52]	; 0x34
10001f08:	1886      	adds	r6, r0, r2
10001f0a:	980a      	ldr	r0, [sp, #40]	; 0x28
10001f0c:	5234      	strh	r4, [r6, r0]
10001f0e:	2080      	movs	r0, #128	; 0x80
10001f10:	0100      	lsls	r0, r0, #4
10001f12:	4201      	tst	r1, r0
10001f14:	d004      	beq.n	10001f20 <GPU_Render+0x4a0>
10001f16:	980d      	ldr	r0, [sp, #52]	; 0x34
10001f18:	4654      	mov	r4, sl
10001f1a:	1886      	adds	r6, r0, r2
10001f1c:	4660      	mov	r0, ip
10001f1e:	5234      	strh	r4, [r6, r0]
10001f20:	2080      	movs	r0, #128	; 0x80
10001f22:	00c0      	lsls	r0, r0, #3
10001f24:	4201      	tst	r1, r0
10001f26:	d001      	beq.n	10001f2c <GPU_Render+0x4ac>
10001f28:	4651      	mov	r1, sl
10001f2a:	8011      	strh	r1, [r2, #0]
10001f2c:	3202      	adds	r2, #2
10001f2e:	3302      	adds	r3, #2
10001f30:	4297      	cmp	r7, r2
10001f32:	d1ce      	bne.n	10001ed2 <GPU_Render+0x452>
10001f34:	9b07      	ldr	r3, [sp, #28]
10001f36:	3301      	adds	r3, #1
10001f38:	9307      	str	r3, [sp, #28]
10001f3a:	9b04      	ldr	r3, [sp, #16]
10001f3c:	3307      	adds	r3, #7
10001f3e:	b29b      	uxth	r3, r3
10001f40:	9304      	str	r3, [sp, #16]
10001f42:	9b01      	ldr	r3, [sp, #4]
10001f44:	3307      	adds	r3, #7
10001f46:	b29b      	uxth	r3, r3
10001f48:	9301      	str	r3, [sp, #4]
10001f4a:	9b02      	ldr	r3, [sp, #8]
10001f4c:	3307      	adds	r3, #7
10001f4e:	b29b      	uxth	r3, r3
10001f50:	9302      	str	r3, [sp, #8]
10001f52:	9b03      	ldr	r3, [sp, #12]
10001f54:	3307      	adds	r3, #7
10001f56:	b29b      	uxth	r3, r3
10001f58:	9303      	str	r3, [sp, #12]
10001f5a:	9b05      	ldr	r3, [sp, #20]
10001f5c:	3307      	adds	r3, #7
10001f5e:	b29b      	uxth	r3, r3
10001f60:	9305      	str	r3, [sp, #20]
10001f62:	9b06      	ldr	r3, [sp, #24]
10001f64:	3307      	adds	r3, #7
10001f66:	b29b      	uxth	r3, r3
10001f68:	9306      	str	r3, [sp, #24]
10001f6a:	e623      	b.n	10001bb4 <GPU_Render+0x134>
10001f6c:	9a03      	ldr	r2, [sp, #12]
10001f6e:	4542      	cmp	r2, r8
10001f70:	d300      	bcc.n	10001f74 <GPU_Render+0x4f4>
10001f72:	e269      	b.n	10002448 <GPU_Render+0x9c8>
10001f74:	9a02      	ldr	r2, [sp, #8]
10001f76:	009b      	lsls	r3, r3, #2
10001f78:	4542      	cmp	r2, r8
10001f7a:	d300      	bcc.n	10001f7e <GPU_Render+0x4fe>
10001f7c:	e138      	b.n	100021f0 <GPU_Render+0x770>
10001f7e:	4a65      	ldr	r2, [pc, #404]	; (10002114 <GPU_Render+0x694>)
10001f80:	0127      	lsls	r7, r4, #4
10001f82:	4694      	mov	ip, r2
10001f84:	0102      	lsls	r2, r0, #4
10001f86:	1a10      	subs	r0, r2, r0
10001f88:	9a08      	ldr	r2, [sp, #32]
10001f8a:	4463      	add	r3, ip
10001f8c:	4694      	mov	ip, r2
10001f8e:	9909      	ldr	r1, [sp, #36]	; 0x24
10001f90:	1b3f      	subs	r7, r7, r4
10001f92:	9c0a      	ldr	r4, [sp, #40]	; 0x28
10001f94:	010e      	lsls	r6, r1, #4
10001f96:	0122      	lsls	r2, r4, #4
10001f98:	1a76      	subs	r6, r6, r1
10001f9a:	1b12      	subs	r2, r2, r4
10001f9c:	0152      	lsls	r2, r2, #5
10001f9e:	2580      	movs	r5, #128	; 0x80
10001fa0:	0140      	lsls	r0, r0, #5
10001fa2:	0176      	lsls	r6, r6, #5
10001fa4:	017f      	lsls	r7, r7, #5
10001fa6:	4460      	add	r0, ip
10001fa8:	4466      	add	r6, ip
10001faa:	4467      	add	r7, ip
10001fac:	4494      	add	ip, r2
10001fae:	2200      	movs	r2, #0
10001fb0:	016d      	lsls	r5, r5, #5
10001fb2:	5a99      	ldrh	r1, [r3, r2]
10001fb4:	0bcc      	lsrs	r4, r1, #15
10001fb6:	d004      	beq.n	10001fc2 <GPU_Render+0x542>
10001fb8:	9c04      	ldr	r4, [sp, #16]
10001fba:	4544      	cmp	r4, r8
10001fbc:	d201      	bcs.n	10001fc2 <GPU_Render+0x542>
10001fbe:	4654      	mov	r4, sl
10001fc0:	5284      	strh	r4, [r0, r2]
10001fc2:	465c      	mov	r4, fp
10001fc4:	4221      	tst	r1, r4
10001fc6:	d004      	beq.n	10001fd2 <GPU_Render+0x552>
10001fc8:	9c01      	ldr	r4, [sp, #4]
10001fca:	4544      	cmp	r4, r8
10001fcc:	d201      	bcs.n	10001fd2 <GPU_Render+0x552>
10001fce:	4654      	mov	r4, sl
10001fd0:	52b4      	strh	r4, [r6, r2]
10001fd2:	464c      	mov	r4, r9
10001fd4:	4221      	tst	r1, r4
10001fd6:	d001      	beq.n	10001fdc <GPU_Render+0x55c>
10001fd8:	4654      	mov	r4, sl
10001fda:	52bc      	strh	r4, [r7, r2]
10001fdc:	4229      	tst	r1, r5
10001fde:	d002      	beq.n	10001fe6 <GPU_Render+0x566>
10001fe0:	4661      	mov	r1, ip
10001fe2:	4654      	mov	r4, sl
10001fe4:	528c      	strh	r4, [r1, r2]
10001fe6:	3202      	adds	r2, #2
10001fe8:	2a14      	cmp	r2, #20
10001fea:	d1e2      	bne.n	10001fb2 <GPU_Render+0x532>
10001fec:	e661      	b.n	10001cb2 <GPU_Render+0x232>
10001fee:	4a49      	ldr	r2, [pc, #292]	; (10002114 <GPU_Render+0x694>)
10001ff0:	9908      	ldr	r1, [sp, #32]
10001ff2:	4694      	mov	ip, r2
10001ff4:	4463      	add	r3, ip
10001ff6:	930f      	str	r3, [sp, #60]	; 0x3c
10001ff8:	468c      	mov	ip, r1
10001ffa:	2314      	movs	r3, #20
10001ffc:	4463      	add	r3, ip
10001ffe:	469c      	mov	ip, r3
10002000:	012e      	lsls	r6, r5, #4
10002002:	1b77      	subs	r7, r6, r5
10002004:	1bae      	subs	r6, r5, r6
10002006:	0105      	lsls	r5, r0, #4
10002008:	1a28      	subs	r0, r5, r0
1000200a:	2580      	movs	r5, #128	; 0x80
1000200c:	017f      	lsls	r7, r7, #5
1000200e:	19ca      	adds	r2, r1, r7
10002010:	9909      	ldr	r1, [sp, #36]	; 0x24
10002012:	0143      	lsls	r3, r0, #5
10002014:	0108      	lsls	r0, r1, #4
10002016:	1a41      	subs	r1, r0, r1
10002018:	4467      	add	r7, ip
1000201a:	469c      	mov	ip, r3
1000201c:	014b      	lsls	r3, r1, #5
1000201e:	0121      	lsls	r1, r4, #4
10002020:	1b09      	subs	r1, r1, r4
10002022:	930a      	str	r3, [sp, #40]	; 0x28
10002024:	014b      	lsls	r3, r1, #5
10002026:	930d      	str	r3, [sp, #52]	; 0x34
10002028:	9b0b      	ldr	r3, [sp, #44]	; 0x2c
1000202a:	0176      	lsls	r6, r6, #5
1000202c:	0119      	lsls	r1, r3, #4
1000202e:	1ac9      	subs	r1, r1, r3
10002030:	014b      	lsls	r3, r1, #5
10002032:	930b      	str	r3, [sp, #44]	; 0x2c
10002034:	9b0f      	ldr	r3, [sp, #60]	; 0x3c
10002036:	012d      	lsls	r5, r5, #4
10002038:	9609      	str	r6, [sp, #36]	; 0x24
1000203a:	8819      	ldrh	r1, [r3, #0]
1000203c:	0bc8      	lsrs	r0, r1, #15
1000203e:	d004      	beq.n	1000204a <GPU_Render+0x5ca>
10002040:	4666      	mov	r6, ip
10002042:	4654      	mov	r4, sl
10002044:	9809      	ldr	r0, [sp, #36]	; 0x24
10002046:	1880      	adds	r0, r0, r2
10002048:	5384      	strh	r4, [r0, r6]
1000204a:	4658      	mov	r0, fp
1000204c:	4201      	tst	r1, r0
1000204e:	d007      	beq.n	10002060 <GPU_Render+0x5e0>
10002050:	9801      	ldr	r0, [sp, #4]
10002052:	4540      	cmp	r0, r8
10002054:	d204      	bcs.n	10002060 <GPU_Render+0x5e0>
10002056:	4656      	mov	r6, sl
10002058:	9809      	ldr	r0, [sp, #36]	; 0x24
1000205a:	9c0a      	ldr	r4, [sp, #40]	; 0x28
1000205c:	1880      	adds	r0, r0, r2
1000205e:	5306      	strh	r6, [r0, r4]
10002060:	4648      	mov	r0, r9
10002062:	4201      	tst	r1, r0
10002064:	d007      	beq.n	10002076 <GPU_Render+0x5f6>
10002066:	9802      	ldr	r0, [sp, #8]
10002068:	4540      	cmp	r0, r8
1000206a:	d204      	bcs.n	10002076 <GPU_Render+0x5f6>
1000206c:	4656      	mov	r6, sl
1000206e:	9809      	ldr	r0, [sp, #36]	; 0x24
10002070:	9c0d      	ldr	r4, [sp, #52]	; 0x34
10002072:	1880      	adds	r0, r0, r2
10002074:	5306      	strh	r6, [r0, r4]
10002076:	4229      	tst	r1, r5
10002078:	d004      	beq.n	10002084 <GPU_Render+0x604>
1000207a:	4656      	mov	r6, sl
1000207c:	9809      	ldr	r0, [sp, #36]	; 0x24
1000207e:	9c0b      	ldr	r4, [sp, #44]	; 0x2c
10002080:	1880      	adds	r0, r0, r2
10002082:	5306      	strh	r6, [r0, r4]
10002084:	2080      	movs	r0, #128	; 0x80
10002086:	00c0      	lsls	r0, r0, #3
10002088:	4201      	tst	r1, r0
1000208a:	d001      	beq.n	10002090 <GPU_Render+0x610>
1000208c:	4651      	mov	r1, sl
1000208e:	8011      	strh	r1, [r2, #0]
10002090:	3202      	adds	r2, #2
10002092:	3302      	adds	r3, #2
10002094:	4297      	cmp	r7, r2
10002096:	d1d0      	bne.n	1000203a <GPU_Render+0x5ba>
10002098:	e60b      	b.n	10001cb2 <GPU_Render+0x232>
1000209a:	9a02      	ldr	r2, [sp, #8]
1000209c:	009b      	lsls	r3, r3, #2
1000209e:	4542      	cmp	r2, r8
100020a0:	d278      	bcs.n	10002194 <GPU_Render+0x714>
100020a2:	4a1c      	ldr	r2, [pc, #112]	; (10002114 <GPU_Render+0x694>)
100020a4:	0127      	lsls	r7, r4, #4
100020a6:	4694      	mov	ip, r2
100020a8:	0102      	lsls	r2, r0, #4
100020aa:	1a10      	subs	r0, r2, r0
100020ac:	9a08      	ldr	r2, [sp, #32]
100020ae:	4463      	add	r3, ip
100020b0:	4694      	mov	ip, r2
100020b2:	9909      	ldr	r1, [sp, #36]	; 0x24
100020b4:	1b3f      	subs	r7, r7, r4
100020b6:	9c0b      	ldr	r4, [sp, #44]	; 0x2c
100020b8:	010e      	lsls	r6, r1, #4
100020ba:	0122      	lsls	r2, r4, #4
100020bc:	1a76      	subs	r6, r6, r1
100020be:	1b12      	subs	r2, r2, r4
100020c0:	0152      	lsls	r2, r2, #5
100020c2:	2580      	movs	r5, #128	; 0x80
100020c4:	0140      	lsls	r0, r0, #5
100020c6:	0176      	lsls	r6, r6, #5
100020c8:	017f      	lsls	r7, r7, #5
100020ca:	4460      	add	r0, ip
100020cc:	4466      	add	r6, ip
100020ce:	4467      	add	r7, ip
100020d0:	4494      	add	ip, r2
100020d2:	2200      	movs	r2, #0
100020d4:	012d      	lsls	r5, r5, #4
100020d6:	5a99      	ldrh	r1, [r3, r2]
100020d8:	0bcc      	lsrs	r4, r1, #15
100020da:	d004      	beq.n	100020e6 <GPU_Render+0x666>
100020dc:	9c04      	ldr	r4, [sp, #16]
100020de:	4544      	cmp	r4, r8
100020e0:	d201      	bcs.n	100020e6 <GPU_Render+0x666>
100020e2:	4654      	mov	r4, sl
100020e4:	5284      	strh	r4, [r0, r2]
100020e6:	465c      	mov	r4, fp
100020e8:	4221      	tst	r1, r4
100020ea:	d004      	beq.n	100020f6 <GPU_Render+0x676>
100020ec:	9c01      	ldr	r4, [sp, #4]
100020ee:	4544      	cmp	r4, r8
100020f0:	d201      	bcs.n	100020f6 <GPU_Render+0x676>
100020f2:	4654      	mov	r4, sl
100020f4:	52b4      	strh	r4, [r6, r2]
100020f6:	464c      	mov	r4, r9
100020f8:	4221      	tst	r1, r4
100020fa:	d001      	beq.n	10002100 <GPU_Render+0x680>
100020fc:	4654      	mov	r4, sl
100020fe:	52bc      	strh	r4, [r7, r2]
10002100:	4229      	tst	r1, r5
10002102:	d002      	beq.n	1000210a <GPU_Render+0x68a>
10002104:	4661      	mov	r1, ip
10002106:	4654      	mov	r4, sl
10002108:	528c      	strh	r4, [r1, r2]
1000210a:	3202      	adds	r2, #2
1000210c:	2a14      	cmp	r2, #20
1000210e:	d1e2      	bne.n	100020d6 <GPU_Render+0x656>
10002110:	e5cf      	b.n	10001cb2 <GPU_Render+0x232>
10002112:	46c0      	nop			; (mov r8, r8)
10002114:	1000d920 	.word	0x1000d920
10002118:	20000bc8 	.word	0x20000bc8
1000211c:	9a02      	ldr	r2, [sp, #8]
1000211e:	009b      	lsls	r3, r3, #2
10002120:	4542      	cmp	r2, r8
10002122:	d300      	bcc.n	10002126 <GPU_Render+0x6a6>
10002124:	e092      	b.n	1000224c <GPU_Render+0x7cc>
10002126:	4ac7      	ldr	r2, [pc, #796]	; (10002444 <GPU_Render+0x9c4>)
10002128:	9909      	ldr	r1, [sp, #36]	; 0x24
1000212a:	4694      	mov	ip, r2
1000212c:	0102      	lsls	r2, r0, #4
1000212e:	1a10      	subs	r0, r2, r0
10002130:	9a08      	ldr	r2, [sp, #32]
10002132:	4463      	add	r3, ip
10002134:	4694      	mov	ip, r2
10002136:	010e      	lsls	r6, r1, #4
10002138:	012a      	lsls	r2, r5, #4
1000213a:	0127      	lsls	r7, r4, #4
1000213c:	1b52      	subs	r2, r2, r5
1000213e:	1a76      	subs	r6, r6, r1
10002140:	1b3f      	subs	r7, r7, r4
10002142:	0152      	lsls	r2, r2, #5
10002144:	2580      	movs	r5, #128	; 0x80
10002146:	0140      	lsls	r0, r0, #5
10002148:	0176      	lsls	r6, r6, #5
1000214a:	017f      	lsls	r7, r7, #5
1000214c:	4460      	add	r0, ip
1000214e:	4466      	add	r6, ip
10002150:	4467      	add	r7, ip
10002152:	4494      	add	ip, r2
10002154:	2200      	movs	r2, #0
10002156:	00ed      	lsls	r5, r5, #3
10002158:	5a99      	ldrh	r1, [r3, r2]
1000215a:	0bcc      	lsrs	r4, r1, #15
1000215c:	d004      	beq.n	10002168 <GPU_Render+0x6e8>
1000215e:	9c04      	ldr	r4, [sp, #16]
10002160:	4544      	cmp	r4, r8
10002162:	d201      	bcs.n	10002168 <GPU_Render+0x6e8>
10002164:	4654      	mov	r4, sl
10002166:	5284      	strh	r4, [r0, r2]
10002168:	465c      	mov	r4, fp
1000216a:	4221      	tst	r1, r4
1000216c:	d004      	beq.n	10002178 <GPU_Render+0x6f8>
1000216e:	9c01      	ldr	r4, [sp, #4]
10002170:	4544      	cmp	r4, r8
10002172:	d201      	bcs.n	10002178 <GPU_Render+0x6f8>
10002174:	4654      	mov	r4, sl
10002176:	52b4      	strh	r4, [r6, r2]
10002178:	464c      	mov	r4, r9
1000217a:	4221      	tst	r1, r4
1000217c:	d001      	beq.n	10002182 <GPU_Render+0x702>
1000217e:	4654      	mov	r4, sl
10002180:	52bc      	strh	r4, [r7, r2]
10002182:	4229      	tst	r1, r5
10002184:	d002      	beq.n	1000218c <GPU_Render+0x70c>
10002186:	4661      	mov	r1, ip
10002188:	4654      	mov	r4, sl
1000218a:	528c      	strh	r4, [r1, r2]
1000218c:	3202      	adds	r2, #2
1000218e:	2a14      	cmp	r2, #20
10002190:	d1e2      	bne.n	10002158 <GPU_Render+0x6d8>
10002192:	e58e      	b.n	10001cb2 <GPU_Render+0x232>
10002194:	4aab      	ldr	r2, [pc, #684]	; (10002444 <GPU_Render+0x9c4>)
10002196:	2580      	movs	r5, #128	; 0x80
10002198:	4694      	mov	ip, r2
1000219a:	0102      	lsls	r2, r0, #4
1000219c:	1a10      	subs	r0, r2, r0
1000219e:	9a08      	ldr	r2, [sp, #32]
100021a0:	4463      	add	r3, ip
100021a2:	4694      	mov	ip, r2
100021a4:	2200      	movs	r2, #0
100021a6:	9909      	ldr	r1, [sp, #36]	; 0x24
100021a8:	0140      	lsls	r0, r0, #5
100021aa:	010e      	lsls	r6, r1, #4
100021ac:	1a76      	subs	r6, r6, r1
100021ae:	990b      	ldr	r1, [sp, #44]	; 0x2c
100021b0:	0176      	lsls	r6, r6, #5
100021b2:	010f      	lsls	r7, r1, #4
100021b4:	1a7f      	subs	r7, r7, r1
100021b6:	017f      	lsls	r7, r7, #5
100021b8:	4460      	add	r0, ip
100021ba:	4466      	add	r6, ip
100021bc:	4467      	add	r7, ip
100021be:	012d      	lsls	r5, r5, #4
100021c0:	5a99      	ldrh	r1, [r3, r2]
100021c2:	0bcc      	lsrs	r4, r1, #15
100021c4:	d004      	beq.n	100021d0 <GPU_Render+0x750>
100021c6:	9c04      	ldr	r4, [sp, #16]
100021c8:	4544      	cmp	r4, r8
100021ca:	d201      	bcs.n	100021d0 <GPU_Render+0x750>
100021cc:	4654      	mov	r4, sl
100021ce:	5284      	strh	r4, [r0, r2]
100021d0:	465c      	mov	r4, fp
100021d2:	4221      	tst	r1, r4
100021d4:	d004      	beq.n	100021e0 <GPU_Render+0x760>
100021d6:	9c01      	ldr	r4, [sp, #4]
100021d8:	4544      	cmp	r4, r8
100021da:	d201      	bcs.n	100021e0 <GPU_Render+0x760>
100021dc:	4654      	mov	r4, sl
100021de:	52b4      	strh	r4, [r6, r2]
100021e0:	4229      	tst	r1, r5
100021e2:	d001      	beq.n	100021e8 <GPU_Render+0x768>
100021e4:	4651      	mov	r1, sl
100021e6:	52b9      	strh	r1, [r7, r2]
100021e8:	3202      	adds	r2, #2
100021ea:	2a14      	cmp	r2, #20
100021ec:	d1e8      	bne.n	100021c0 <GPU_Render+0x740>
100021ee:	e560      	b.n	10001cb2 <GPU_Render+0x232>
100021f0:	4a94      	ldr	r2, [pc, #592]	; (10002444 <GPU_Render+0x9c4>)
100021f2:	2580      	movs	r5, #128	; 0x80
100021f4:	4694      	mov	ip, r2
100021f6:	0102      	lsls	r2, r0, #4
100021f8:	1a10      	subs	r0, r2, r0
100021fa:	9a08      	ldr	r2, [sp, #32]
100021fc:	4463      	add	r3, ip
100021fe:	4694      	mov	ip, r2
10002200:	2200      	movs	r2, #0
10002202:	9909      	ldr	r1, [sp, #36]	; 0x24
10002204:	0140      	lsls	r0, r0, #5
10002206:	010e      	lsls	r6, r1, #4
10002208:	1a76      	subs	r6, r6, r1
1000220a:	990a      	ldr	r1, [sp, #40]	; 0x28
1000220c:	0176      	lsls	r6, r6, #5
1000220e:	010f      	lsls	r7, r1, #4
10002210:	1a7f      	subs	r7, r7, r1
10002212:	017f      	lsls	r7, r7, #5
10002214:	4460      	add	r0, ip
10002216:	4466      	add	r6, ip
10002218:	4467      	add	r7, ip
1000221a:	016d      	lsls	r5, r5, #5
1000221c:	5a99      	ldrh	r1, [r3, r2]
1000221e:	0bcc      	lsrs	r4, r1, #15
10002220:	d004      	beq.n	1000222c <GPU_Render+0x7ac>
10002222:	9c04      	ldr	r4, [sp, #16]
10002224:	4544      	cmp	r4, r8
10002226:	d201      	bcs.n	1000222c <GPU_Render+0x7ac>
10002228:	4654      	mov	r4, sl
1000222a:	5284      	strh	r4, [r0, r2]
1000222c:	465c      	mov	r4, fp
1000222e:	4221      	tst	r1, r4
10002230:	d004      	beq.n	1000223c <GPU_Render+0x7bc>
10002232:	9c01      	ldr	r4, [sp, #4]
10002234:	4544      	cmp	r4, r8
10002236:	d201      	bcs.n	1000223c <GPU_Render+0x7bc>
10002238:	4654      	mov	r4, sl
1000223a:	52b4      	strh	r4, [r6, r2]
1000223c:	4229      	tst	r1, r5
1000223e:	d001      	beq.n	10002244 <GPU_Render+0x7c4>
10002240:	4651      	mov	r1, sl
10002242:	52b9      	strh	r1, [r7, r2]
10002244:	3202      	adds	r2, #2
10002246:	2a14      	cmp	r2, #20
10002248:	d1e8      	bne.n	1000221c <GPU_Render+0x79c>
1000224a:	e532      	b.n	10001cb2 <GPU_Render+0x232>
1000224c:	4a7d      	ldr	r2, [pc, #500]	; (10002444 <GPU_Render+0x9c4>)
1000224e:	012f      	lsls	r7, r5, #4
10002250:	4694      	mov	ip, r2
10002252:	0102      	lsls	r2, r0, #4
10002254:	1a10      	subs	r0, r2, r0
10002256:	9a08      	ldr	r2, [sp, #32]
10002258:	1b7f      	subs	r7, r7, r5
1000225a:	4463      	add	r3, ip
1000225c:	2580      	movs	r5, #128	; 0x80
1000225e:	4694      	mov	ip, r2
10002260:	2200      	movs	r2, #0
10002262:	9909      	ldr	r1, [sp, #36]	; 0x24
10002264:	0140      	lsls	r0, r0, #5
10002266:	010e      	lsls	r6, r1, #4
10002268:	1a76      	subs	r6, r6, r1
1000226a:	0176      	lsls	r6, r6, #5
1000226c:	017f      	lsls	r7, r7, #5
1000226e:	4460      	add	r0, ip
10002270:	4466      	add	r6, ip
10002272:	4467      	add	r7, ip
10002274:	00ed      	lsls	r5, r5, #3
10002276:	5a99      	ldrh	r1, [r3, r2]
10002278:	0bcc      	lsrs	r4, r1, #15
1000227a:	d004      	beq.n	10002286 <GPU_Render+0x806>
1000227c:	9c04      	ldr	r4, [sp, #16]
1000227e:	4544      	cmp	r4, r8
10002280:	d201      	bcs.n	10002286 <GPU_Render+0x806>
10002282:	4654      	mov	r4, sl
10002284:	5284      	strh	r4, [r0, r2]
10002286:	465c      	mov	r4, fp
10002288:	4221      	tst	r1, r4
1000228a:	d004      	beq.n	10002296 <GPU_Render+0x816>
1000228c:	9c01      	ldr	r4, [sp, #4]
1000228e:	4544      	cmp	r4, r8
10002290:	d201      	bcs.n	10002296 <GPU_Render+0x816>
10002292:	4654      	mov	r4, sl
10002294:	52b4      	strh	r4, [r6, r2]
10002296:	4229      	tst	r1, r5
10002298:	d001      	beq.n	1000229e <GPU_Render+0x81e>
1000229a:	4651      	mov	r1, sl
1000229c:	52b9      	strh	r1, [r7, r2]
1000229e:	3202      	adds	r2, #2
100022a0:	2a14      	cmp	r2, #20
100022a2:	d1e8      	bne.n	10002276 <GPU_Render+0x7f6>
100022a4:	e505      	b.n	10001cb2 <GPU_Render+0x232>
100022a6:	4a67      	ldr	r2, [pc, #412]	; (10002444 <GPU_Render+0x9c4>)
100022a8:	980a      	ldr	r0, [sp, #40]	; 0x28
100022aa:	4694      	mov	ip, r2
100022ac:	9a09      	ldr	r2, [sp, #36]	; 0x24
100022ae:	4463      	add	r3, ip
100022b0:	0116      	lsls	r6, r2, #4
100022b2:	1ab6      	subs	r6, r6, r2
100022b4:	9a08      	ldr	r2, [sp, #32]
100022b6:	0127      	lsls	r7, r4, #4
100022b8:	4694      	mov	ip, r2
100022ba:	0011      	movs	r1, r2
100022bc:	0102      	lsls	r2, r0, #4
100022be:	1b3f      	subs	r7, r7, r4
100022c0:	1a12      	subs	r2, r2, r0
100022c2:	0152      	lsls	r2, r2, #5
100022c4:	0176      	lsls	r6, r6, #5
100022c6:	017f      	lsls	r7, r7, #5
100022c8:	4466      	add	r6, ip
100022ca:	4467      	add	r7, ip
100022cc:	4494      	add	ip, r2
100022ce:	4662      	mov	r2, ip
100022d0:	468c      	mov	ip, r1
100022d2:	9209      	str	r2, [sp, #36]	; 0x24
100022d4:	9a0b      	ldr	r2, [sp, #44]	; 0x2c
100022d6:	9909      	ldr	r1, [sp, #36]	; 0x24
100022d8:	0110      	lsls	r0, r2, #4
100022da:	1a80      	subs	r0, r0, r2
100022dc:	2580      	movs	r5, #128	; 0x80
100022de:	2480      	movs	r4, #128	; 0x80
100022e0:	0140      	lsls	r0, r0, #5
100022e2:	4460      	add	r0, ip
100022e4:	2200      	movs	r2, #0
100022e6:	468c      	mov	ip, r1
100022e8:	016d      	lsls	r5, r5, #5
100022ea:	0124      	lsls	r4, r4, #4
100022ec:	900a      	str	r0, [sp, #40]	; 0x28
100022ee:	9609      	str	r6, [sp, #36]	; 0x24
100022f0:	4658      	mov	r0, fp
100022f2:	5a99      	ldrh	r1, [r3, r2]
100022f4:	4201      	tst	r1, r0
100022f6:	d005      	beq.n	10002304 <GPU_Render+0x884>
100022f8:	9801      	ldr	r0, [sp, #4]
100022fa:	4540      	cmp	r0, r8
100022fc:	d202      	bcs.n	10002304 <GPU_Render+0x884>
100022fe:	4650      	mov	r0, sl
10002300:	9e09      	ldr	r6, [sp, #36]	; 0x24
10002302:	52b0      	strh	r0, [r6, r2]
10002304:	4648      	mov	r0, r9
10002306:	4201      	tst	r1, r0
10002308:	d004      	beq.n	10002314 <GPU_Render+0x894>
1000230a:	9802      	ldr	r0, [sp, #8]
1000230c:	4540      	cmp	r0, r8
1000230e:	d201      	bcs.n	10002314 <GPU_Render+0x894>
10002310:	4650      	mov	r0, sl
10002312:	52b8      	strh	r0, [r7, r2]
10002314:	4229      	tst	r1, r5
10002316:	d002      	beq.n	1000231e <GPU_Render+0x89e>
10002318:	4660      	mov	r0, ip
1000231a:	4656      	mov	r6, sl
1000231c:	5286      	strh	r6, [r0, r2]
1000231e:	4221      	tst	r1, r4
10002320:	d002      	beq.n	10002328 <GPU_Render+0x8a8>
10002322:	4651      	mov	r1, sl
10002324:	980a      	ldr	r0, [sp, #40]	; 0x28
10002326:	5281      	strh	r1, [r0, r2]
10002328:	3202      	adds	r2, #2
1000232a:	2a14      	cmp	r2, #20
1000232c:	d1e0      	bne.n	100022f0 <GPU_Render+0x870>
1000232e:	e601      	b.n	10001f34 <GPU_Render+0x4b4>
10002330:	4a44      	ldr	r2, [pc, #272]	; (10002444 <GPU_Render+0x9c4>)
10002332:	990a      	ldr	r1, [sp, #40]	; 0x28
10002334:	18d6      	adds	r6, r2, r3
10002336:	9a08      	ldr	r2, [sp, #32]
10002338:	0127      	lsls	r7, r4, #4
1000233a:	4694      	mov	ip, r2
1000233c:	010b      	lsls	r3, r1, #4
1000233e:	1b3f      	subs	r7, r7, r4
10002340:	1a5b      	subs	r3, r3, r1
10002342:	015b      	lsls	r3, r3, #5
10002344:	017f      	lsls	r7, r7, #5
10002346:	4467      	add	r7, ip
10002348:	449c      	add	ip, r3
1000234a:	4663      	mov	r3, ip
1000234c:	4694      	mov	ip, r2
1000234e:	990b      	ldr	r1, [sp, #44]	; 0x2c
10002350:	9309      	str	r3, [sp, #36]	; 0x24
10002352:	010b      	lsls	r3, r1, #4
10002354:	1a5b      	subs	r3, r3, r1
10002356:	0129      	lsls	r1, r5, #4
10002358:	9a09      	ldr	r2, [sp, #36]	; 0x24
1000235a:	1b49      	subs	r1, r1, r5
1000235c:	015b      	lsls	r3, r3, #5
1000235e:	4463      	add	r3, ip
10002360:	2580      	movs	r5, #128	; 0x80
10002362:	2480      	movs	r4, #128	; 0x80
10002364:	2080      	movs	r0, #128	; 0x80
10002366:	0149      	lsls	r1, r1, #5
10002368:	4461      	add	r1, ip
1000236a:	930a      	str	r3, [sp, #40]	; 0x28
1000236c:	4694      	mov	ip, r2
1000236e:	2300      	movs	r3, #0
10002370:	016d      	lsls	r5, r5, #5
10002372:	0124      	lsls	r4, r4, #4
10002374:	00c0      	lsls	r0, r0, #3
10002376:	970b      	str	r7, [sp, #44]	; 0x2c
10002378:	9109      	str	r1, [sp, #36]	; 0x24
1000237a:	4649      	mov	r1, r9
1000237c:	5af2      	ldrh	r2, [r6, r3]
1000237e:	420a      	tst	r2, r1
10002380:	d005      	beq.n	1000238e <GPU_Render+0x90e>
10002382:	9902      	ldr	r1, [sp, #8]
10002384:	4541      	cmp	r1, r8
10002386:	d202      	bcs.n	1000238e <GPU_Render+0x90e>
10002388:	4651      	mov	r1, sl
1000238a:	9f0b      	ldr	r7, [sp, #44]	; 0x2c
1000238c:	52f9      	strh	r1, [r7, r3]
1000238e:	422a      	tst	r2, r5
10002390:	d005      	beq.n	1000239e <GPU_Render+0x91e>
10002392:	9903      	ldr	r1, [sp, #12]
10002394:	4541      	cmp	r1, r8
10002396:	d202      	bcs.n	1000239e <GPU_Render+0x91e>
10002398:	4661      	mov	r1, ip
1000239a:	4657      	mov	r7, sl
1000239c:	52cf      	strh	r7, [r1, r3]
1000239e:	4222      	tst	r2, r4
100023a0:	d002      	beq.n	100023a8 <GPU_Render+0x928>
100023a2:	4657      	mov	r7, sl
100023a4:	990a      	ldr	r1, [sp, #40]	; 0x28
100023a6:	52cf      	strh	r7, [r1, r3]
100023a8:	4202      	tst	r2, r0
100023aa:	d002      	beq.n	100023b2 <GPU_Render+0x932>
100023ac:	4652      	mov	r2, sl
100023ae:	9909      	ldr	r1, [sp, #36]	; 0x24
100023b0:	52ca      	strh	r2, [r1, r3]
100023b2:	3302      	adds	r3, #2
100023b4:	2b14      	cmp	r3, #20
100023b6:	d1e0      	bne.n	1000237a <GPU_Render+0x8fa>
100023b8:	e5bc      	b.n	10001f34 <GPU_Render+0x4b4>
100023ba:	4a22      	ldr	r2, [pc, #136]	; (10002444 <GPU_Render+0x9c4>)
100023bc:	980a      	ldr	r0, [sp, #40]	; 0x28
100023be:	4694      	mov	ip, r2
100023c0:	9a09      	ldr	r2, [sp, #36]	; 0x24
100023c2:	4463      	add	r3, ip
100023c4:	0116      	lsls	r6, r2, #4
100023c6:	1ab6      	subs	r6, r6, r2
100023c8:	9a08      	ldr	r2, [sp, #32]
100023ca:	0127      	lsls	r7, r4, #4
100023cc:	4694      	mov	ip, r2
100023ce:	0011      	movs	r1, r2
100023d0:	0102      	lsls	r2, r0, #4
100023d2:	1b3f      	subs	r7, r7, r4
100023d4:	1a12      	subs	r2, r2, r0
100023d6:	0152      	lsls	r2, r2, #5
100023d8:	0176      	lsls	r6, r6, #5
100023da:	017f      	lsls	r7, r7, #5
100023dc:	4466      	add	r6, ip
100023de:	4467      	add	r7, ip
100023e0:	4494      	add	ip, r2
100023e2:	4662      	mov	r2, ip
100023e4:	468c      	mov	ip, r1
100023e6:	9209      	str	r2, [sp, #36]	; 0x24
100023e8:	0128      	lsls	r0, r5, #4
100023ea:	9909      	ldr	r1, [sp, #36]	; 0x24
100023ec:	1b40      	subs	r0, r0, r5
100023ee:	2480      	movs	r4, #128	; 0x80
100023f0:	2580      	movs	r5, #128	; 0x80
100023f2:	0140      	lsls	r0, r0, #5
100023f4:	4460      	add	r0, ip
100023f6:	2200      	movs	r2, #0
100023f8:	468c      	mov	ip, r1
100023fa:	016d      	lsls	r5, r5, #5
100023fc:	00e4      	lsls	r4, r4, #3
100023fe:	900a      	str	r0, [sp, #40]	; 0x28
10002400:	9609      	str	r6, [sp, #36]	; 0x24
10002402:	4658      	mov	r0, fp
10002404:	5a99      	ldrh	r1, [r3, r2]
10002406:	4201      	tst	r1, r0
10002408:	d005      	beq.n	10002416 <GPU_Render+0x996>
1000240a:	9801      	ldr	r0, [sp, #4]
1000240c:	4540      	cmp	r0, r8
1000240e:	d202      	bcs.n	10002416 <GPU_Render+0x996>
10002410:	4650      	mov	r0, sl
10002412:	9e09      	ldr	r6, [sp, #36]	; 0x24
10002414:	52b0      	strh	r0, [r6, r2]
10002416:	4648      	mov	r0, r9
10002418:	4201      	tst	r1, r0
1000241a:	d004      	beq.n	10002426 <GPU_Render+0x9a6>
1000241c:	9802      	ldr	r0, [sp, #8]
1000241e:	4540      	cmp	r0, r8
10002420:	d201      	bcs.n	10002426 <GPU_Render+0x9a6>
10002422:	4650      	mov	r0, sl
10002424:	52b8      	strh	r0, [r7, r2]
10002426:	4229      	tst	r1, r5
10002428:	d002      	beq.n	10002430 <GPU_Render+0x9b0>
1000242a:	4660      	mov	r0, ip
1000242c:	4656      	mov	r6, sl
1000242e:	5286      	strh	r6, [r0, r2]
10002430:	4221      	tst	r1, r4
10002432:	d002      	beq.n	1000243a <GPU_Render+0x9ba>
10002434:	4651      	mov	r1, sl
10002436:	980a      	ldr	r0, [sp, #40]	; 0x28
10002438:	5281      	strh	r1, [r0, r2]
1000243a:	3202      	adds	r2, #2
1000243c:	2a14      	cmp	r2, #20
1000243e:	d1e0      	bne.n	10002402 <GPU_Render+0x982>
10002440:	e578      	b.n	10001f34 <GPU_Render+0x4b4>
10002442:	46c0      	nop			; (mov r8, r8)
10002444:	1000d920 	.word	0x1000d920
10002448:	9a02      	ldr	r2, [sp, #8]
1000244a:	009b      	lsls	r3, r3, #2
1000244c:	4542      	cmp	r2, r8
1000244e:	d22c      	bcs.n	100024aa <GPU_Render+0xa2a>
10002450:	4a28      	ldr	r2, [pc, #160]	; (100024f4 <GPU_Render+0xa74>)
10002452:	9909      	ldr	r1, [sp, #36]	; 0x24
10002454:	4694      	mov	ip, r2
10002456:	9d08      	ldr	r5, [sp, #32]
10002458:	0102      	lsls	r2, r0, #4
1000245a:	1a10      	subs	r0, r2, r0
1000245c:	4463      	add	r3, ip
1000245e:	010a      	lsls	r2, r1, #4
10002460:	46ac      	mov	ip, r5
10002462:	1a51      	subs	r1, r2, r1
10002464:	2200      	movs	r2, #0
10002466:	0126      	lsls	r6, r4, #4
10002468:	1b36      	subs	r6, r6, r4
1000246a:	0140      	lsls	r0, r0, #5
1000246c:	0149      	lsls	r1, r1, #5
1000246e:	0176      	lsls	r6, r6, #5
10002470:	4460      	add	r0, ip
10002472:	4461      	add	r1, ip
10002474:	4466      	add	r6, ip
10002476:	5a9c      	ldrh	r4, [r3, r2]
10002478:	0be5      	lsrs	r5, r4, #15
1000247a:	d004      	beq.n	10002486 <GPU_Render+0xa06>
1000247c:	9d04      	ldr	r5, [sp, #16]
1000247e:	4545      	cmp	r5, r8
10002480:	d201      	bcs.n	10002486 <GPU_Render+0xa06>
10002482:	4655      	mov	r5, sl
10002484:	5285      	strh	r5, [r0, r2]
10002486:	465d      	mov	r5, fp
10002488:	422c      	tst	r4, r5
1000248a:	d004      	beq.n	10002496 <GPU_Render+0xa16>
1000248c:	9d01      	ldr	r5, [sp, #4]
1000248e:	4545      	cmp	r5, r8
10002490:	d201      	bcs.n	10002496 <GPU_Render+0xa16>
10002492:	4655      	mov	r5, sl
10002494:	528d      	strh	r5, [r1, r2]
10002496:	464d      	mov	r5, r9
10002498:	422c      	tst	r4, r5
1000249a:	d001      	beq.n	100024a0 <GPU_Render+0xa20>
1000249c:	4654      	mov	r4, sl
1000249e:	52b4      	strh	r4, [r6, r2]
100024a0:	3202      	adds	r2, #2
100024a2:	2a14      	cmp	r2, #20
100024a4:	d1e7      	bne.n	10002476 <GPU_Render+0x9f6>
100024a6:	f7ff fc04 	bl	10001cb2 <GPU_Render+0x232>
100024aa:	4a12      	ldr	r2, [pc, #72]	; (100024f4 <GPU_Render+0xa74>)
100024ac:	9908      	ldr	r1, [sp, #32]
100024ae:	4694      	mov	ip, r2
100024b0:	4463      	add	r3, ip
100024b2:	468c      	mov	ip, r1
100024b4:	2100      	movs	r1, #0
100024b6:	9c09      	ldr	r4, [sp, #36]	; 0x24
100024b8:	0102      	lsls	r2, r0, #4
100024ba:	1a10      	subs	r0, r2, r0
100024bc:	0122      	lsls	r2, r4, #4
100024be:	1b12      	subs	r2, r2, r4
100024c0:	0140      	lsls	r0, r0, #5
100024c2:	0152      	lsls	r2, r2, #5
100024c4:	4460      	add	r0, ip
100024c6:	4462      	add	r2, ip
100024c8:	5a5c      	ldrh	r4, [r3, r1]
100024ca:	0be5      	lsrs	r5, r4, #15
100024cc:	d004      	beq.n	100024d8 <GPU_Render+0xa58>
100024ce:	9d04      	ldr	r5, [sp, #16]
100024d0:	4545      	cmp	r5, r8
100024d2:	d201      	bcs.n	100024d8 <GPU_Render+0xa58>
100024d4:	4655      	mov	r5, sl
100024d6:	5245      	strh	r5, [r0, r1]
100024d8:	465d      	mov	r5, fp
100024da:	422c      	tst	r4, r5
100024dc:	d004      	beq.n	100024e8 <GPU_Render+0xa68>
100024de:	9c01      	ldr	r4, [sp, #4]
100024e0:	4544      	cmp	r4, r8
100024e2:	d201      	bcs.n	100024e8 <GPU_Render+0xa68>
100024e4:	4654      	mov	r4, sl
100024e6:	5254      	strh	r4, [r2, r1]
100024e8:	3102      	adds	r1, #2
100024ea:	2914      	cmp	r1, #20
100024ec:	d1ec      	bne.n	100024c8 <GPU_Render+0xa48>
100024ee:	f7ff fbe0 	bl	10001cb2 <GPU_Render+0x232>
100024f2:	46c0      	nop			; (mov r8, r8)
100024f4:	1000d920 	.word	0x1000d920

100024f8 <GPU_DrawLine>:
100024f8:	b5f0      	push	{r4, r5, r6, r7, lr}
100024fa:	4645      	mov	r5, r8
100024fc:	46de      	mov	lr, fp
100024fe:	4657      	mov	r7, sl
10002500:	464e      	mov	r6, r9
10002502:	b5e0      	push	{r5, r6, r7, lr}
10002504:	25a0      	movs	r5, #160	; 0xa0
10002506:	b087      	sub	sp, #28
10002508:	9004      	str	r0, [sp, #16]
1000250a:	a810      	add	r0, sp, #64	; 0x40
1000250c:	2400      	movs	r4, #0
1000250e:	5f00      	ldrsh	r0, [r0, r4]
10002510:	006d      	lsls	r5, r5, #1
10002512:	1c0c      	adds	r4, r1, #0
10002514:	42a9      	cmp	r1, r5
10002516:	db02      	blt.n	1000251e <GPU_DrawLine+0x26>
10002518:	2140      	movs	r1, #64	; 0x40
1000251a:	31ff      	adds	r1, #255	; 0xff
1000251c:	1c0c      	adds	r4, r1, #0
1000251e:	21a0      	movs	r1, #160	; 0xa0
10002520:	b224      	sxth	r4, r4
10002522:	1c1d      	adds	r5, r3, #0
10002524:	0049      	lsls	r1, r1, #1
10002526:	428b      	cmp	r3, r1
10002528:	db02      	blt.n	10002530 <GPU_DrawLine+0x38>
1000252a:	2340      	movs	r3, #64	; 0x40
1000252c:	33ff      	adds	r3, #255	; 0xff
1000252e:	1c1d      	adds	r5, r3, #0
10002530:	b22d      	sxth	r5, r5
10002532:	1c13      	adds	r3, r2, #0
10002534:	2aef      	cmp	r2, #239	; 0xef
10002536:	dd00      	ble.n	1000253a <GPU_DrawLine+0x42>
10002538:	23ef      	movs	r3, #239	; 0xef
1000253a:	b21b      	sxth	r3, r3
1000253c:	469c      	mov	ip, r3
1000253e:	1c03      	adds	r3, r0, #0
10002540:	28ef      	cmp	r0, #239	; 0xef
10002542:	dd00      	ble.n	10002546 <GPU_DrawLine+0x4e>
10002544:	23ef      	movs	r3, #239	; 0xef
10002546:	b21b      	sxth	r3, r3
10002548:	9305      	str	r3, [sp, #20]
1000254a:	42ac      	cmp	r4, r5
1000254c:	da5e      	bge.n	1000260c <GPU_DrawLine+0x114>
1000254e:	1b2e      	subs	r6, r5, r4
10002550:	b2b3      	uxth	r3, r6
10002552:	469a      	mov	sl, r3
10002554:	b233      	sxth	r3, r6
10002556:	469b      	mov	fp, r3
10002558:	2301      	movs	r3, #1
1000255a:	9302      	str	r3, [sp, #8]
1000255c:	9b05      	ldr	r3, [sp, #20]
1000255e:	4662      	mov	r2, ip
10002560:	459c      	cmp	ip, r3
10002562:	da4b      	bge.n	100025fc <GPU_DrawLine+0x104>
10002564:	1ad7      	subs	r7, r2, r3
10002566:	b2bb      	uxth	r3, r7
10002568:	4699      	mov	r9, r3
1000256a:	2301      	movs	r3, #1
1000256c:	b23f      	sxth	r7, r7
1000256e:	9303      	str	r3, [sp, #12]
10002570:	4662      	mov	r2, ip
10002572:	b290      	uxth	r0, r2
10002574:	22a0      	movs	r2, #160	; 0xa0
10002576:	4653      	mov	r3, sl
10002578:	0052      	lsls	r2, r2, #1
1000257a:	4690      	mov	r8, r2
1000257c:	464a      	mov	r2, r9
1000257e:	444b      	add	r3, r9
10002580:	b21b      	sxth	r3, r3
10002582:	b2a1      	uxth	r1, r4
10002584:	9201      	str	r2, [sp, #4]
10002586:	9700      	str	r7, [sp, #0]
10002588:	4541      	cmp	r1, r8
1000258a:	d20c      	bcs.n	100025a6 <GPU_DrawLine+0xae>
1000258c:	28ef      	cmp	r0, #239	; 0xef
1000258e:	d80a      	bhi.n	100025a6 <GPU_DrawLine+0xae>
10002590:	2240      	movs	r2, #64	; 0x40
10002592:	32ff      	adds	r2, #255	; 0xff
10002594:	1a56      	subs	r6, r2, r1
10002596:	0132      	lsls	r2, r6, #4
10002598:	1b92      	subs	r2, r2, r6
1000259a:	0112      	lsls	r2, r2, #4
1000259c:	4e20      	ldr	r6, [pc, #128]	; (10002620 <GPU_DrawLine+0x128>)
1000259e:	9f04      	ldr	r7, [sp, #16]
100025a0:	1812      	adds	r2, r2, r0
100025a2:	0052      	lsls	r2, r2, #1
100025a4:	5397      	strh	r7, [r2, r6]
100025a6:	42ac      	cmp	r4, r5
100025a8:	d01e      	beq.n	100025e8 <GPU_DrawLine+0xf0>
100025aa:	b29e      	uxth	r6, r3
100025ac:	0072      	lsls	r2, r6, #1
100025ae:	9f00      	ldr	r7, [sp, #0]
100025b0:	b212      	sxth	r2, r2
100025b2:	42ba      	cmp	r2, r7
100025b4:	db0a      	blt.n	100025cc <GPU_DrawLine+0xd4>
100025b6:	9c01      	ldr	r4, [sp, #4]
100025b8:	0033      	movs	r3, r6
100025ba:	46a1      	mov	r9, r4
100025bc:	9c02      	ldr	r4, [sp, #8]
100025be:	444b      	add	r3, r9
100025c0:	46a1      	mov	r9, r4
100025c2:	4449      	add	r1, r9
100025c4:	b29e      	uxth	r6, r3
100025c6:	b20c      	sxth	r4, r1
100025c8:	b21b      	sxth	r3, r3
100025ca:	b289      	uxth	r1, r1
100025cc:	455a      	cmp	r2, fp
100025ce:	dcdb      	bgt.n	10002588 <GPU_DrawLine+0x90>
100025d0:	9a03      	ldr	r2, [sp, #12]
100025d2:	4456      	add	r6, sl
100025d4:	4694      	mov	ip, r2
100025d6:	4460      	add	r0, ip
100025d8:	b202      	sxth	r2, r0
100025da:	4694      	mov	ip, r2
100025dc:	b233      	sxth	r3, r6
100025de:	b280      	uxth	r0, r0
100025e0:	4541      	cmp	r1, r8
100025e2:	d3d3      	bcc.n	1000258c <GPU_DrawLine+0x94>
100025e4:	42ac      	cmp	r4, r5
100025e6:	d1e0      	bne.n	100025aa <GPU_DrawLine+0xb2>
100025e8:	9a05      	ldr	r2, [sp, #20]
100025ea:	4594      	cmp	ip, r2
100025ec:	d1dd      	bne.n	100025aa <GPU_DrawLine+0xb2>
100025ee:	b007      	add	sp, #28
100025f0:	bcf0      	pop	{r4, r5, r6, r7}
100025f2:	46bb      	mov	fp, r7
100025f4:	46b2      	mov	sl, r6
100025f6:	46a9      	mov	r9, r5
100025f8:	46a0      	mov	r8, r4
100025fa:	bdf0      	pop	{r4, r5, r6, r7, pc}
100025fc:	1a9f      	subs	r7, r3, r2
100025fe:	b2bb      	uxth	r3, r7
10002600:	4699      	mov	r9, r3
10002602:	2301      	movs	r3, #1
10002604:	425b      	negs	r3, r3
10002606:	b23f      	sxth	r7, r7
10002608:	9303      	str	r3, [sp, #12]
1000260a:	e7b1      	b.n	10002570 <GPU_DrawLine+0x78>
1000260c:	1b66      	subs	r6, r4, r5
1000260e:	b2b3      	uxth	r3, r6
10002610:	469a      	mov	sl, r3
10002612:	b233      	sxth	r3, r6
10002614:	469b      	mov	fp, r3
10002616:	2301      	movs	r3, #1
10002618:	425b      	negs	r3, r3
1000261a:	9302      	str	r3, [sp, #8]
1000261c:	e79e      	b.n	1000255c <GPU_DrawLine+0x64>
1000261e:	46c0      	nop			; (mov r8, r8)
10002620:	20000bb4 	.word	0x20000bb4

10002624 <GPU_DrawText>:
10002624:	b5f0      	push	{r4, r5, r6, r7, lr}
10002626:	4645      	mov	r5, r8
10002628:	46de      	mov	lr, fp
1000262a:	4657      	mov	r7, sl
1000262c:	464e      	mov	r6, r9
1000262e:	b5e0      	push	{r5, r6, r7, lr}
10002630:	b08d      	sub	sp, #52	; 0x34
10002632:	4680      	mov	r8, r0
10002634:	a816      	add	r0, sp, #88	; 0x58
10002636:	c810      	ldmia	r0!, {r4}
10002638:	8800      	ldrh	r0, [r0, #0]
1000263a:	9409      	str	r4, [sp, #36]	; 0x24
1000263c:	900a      	str	r0, [sp, #40]	; 0x28
1000263e:	2800      	cmp	r0, #0
10002640:	d065      	beq.n	1000270e <GPU_DrawText+0xea>
10002642:	7908      	ldrb	r0, [r1, #4]
10002644:	b292      	uxth	r2, r2
10002646:	9006      	str	r0, [sp, #24]
10002648:	794c      	ldrb	r4, [r1, #5]
1000264a:	9407      	str	r4, [sp, #28]
1000264c:	794c      	ldrb	r4, [r1, #5]
1000264e:	9403      	str	r4, [sp, #12]
10002650:	2c00      	cmp	r4, #0
10002652:	d05c      	beq.n	1000270e <GPU_DrawText+0xea>
10002654:	b29b      	uxth	r3, r3
10002656:	930b      	str	r3, [sp, #44]	; 0x2c
10002658:	2301      	movs	r3, #1
1000265a:	3201      	adds	r2, #1
1000265c:	b292      	uxth	r2, r2
1000265e:	9204      	str	r2, [sp, #16]
10002660:	680a      	ldr	r2, [r1, #0]
10002662:	469c      	mov	ip, r3
10002664:	3340      	adds	r3, #64	; 0x40
10002666:	9208      	str	r2, [sp, #32]
10002668:	33ff      	adds	r3, #255	; 0xff
1000266a:	2200      	movs	r2, #0
1000266c:	469b      	mov	fp, r3
1000266e:	9205      	str	r2, [sp, #20]
10002670:	9a05      	ldr	r2, [sp, #20]
10002672:	9b09      	ldr	r3, [sp, #36]	; 0x24
10002674:	2700      	movs	r7, #0
10002676:	5c9b      	ldrb	r3, [r3, r2]
10002678:	9a07      	ldr	r2, [sp, #28]
1000267a:	3b20      	subs	r3, #32
1000267c:	4353      	muls	r3, r2
1000267e:	9a08      	ldr	r2, [sp, #32]
10002680:	005b      	lsls	r3, r3, #1
10002682:	4691      	mov	r9, r2
10002684:	9c0b      	ldr	r4, [sp, #44]	; 0x2c
10002686:	4499      	add	r9, r3
10002688:	464b      	mov	r3, r9
1000268a:	881d      	ldrh	r5, [r3, #0]
1000268c:	2800      	cmp	r0, #0
1000268e:	d027      	beq.n	100026e0 <GPU_DrawText+0xbc>
10002690:	2cef      	cmp	r4, #239	; 0xef
10002692:	d825      	bhi.n	100026e0 <GPU_DrawText+0xbc>
10002694:	2801      	cmp	r0, #1
10002696:	d023      	beq.n	100026e0 <GPU_DrawText+0xbc>
10002698:	220f      	movs	r2, #15
1000269a:	2610      	movs	r6, #16
1000269c:	9b04      	ldr	r3, [sp, #16]
1000269e:	9401      	str	r4, [sp, #4]
100026a0:	9702      	str	r7, [sp, #8]
100026a2:	0029      	movs	r1, r5
100026a4:	4667      	mov	r7, ip
100026a6:	4111      	asrs	r1, r2
100026a8:	420f      	tst	r7, r1
100026aa:	d010      	beq.n	100026ce <GPU_DrawText+0xaa>
100026ac:	455b      	cmp	r3, fp
100026ae:	d20e      	bcs.n	100026ce <GPU_DrawText+0xaa>
100026b0:	2140      	movs	r1, #64	; 0x40
100026b2:	31ff      	adds	r1, #255	; 0xff
100026b4:	1ac9      	subs	r1, r1, r3
100026b6:	468a      	mov	sl, r1
100026b8:	9c01      	ldr	r4, [sp, #4]
100026ba:	4657      	mov	r7, sl
100026bc:	46a2      	mov	sl, r4
100026be:	4644      	mov	r4, r8
100026c0:	0109      	lsls	r1, r1, #4
100026c2:	1bc9      	subs	r1, r1, r7
100026c4:	0109      	lsls	r1, r1, #4
100026c6:	4f15      	ldr	r7, [pc, #84]	; (1000271c <GPU_DrawText+0xf8>)
100026c8:	4451      	add	r1, sl
100026ca:	0049      	lsls	r1, r1, #1
100026cc:	53cc      	strh	r4, [r1, r7]
100026ce:	3a01      	subs	r2, #1
100026d0:	1ab1      	subs	r1, r6, r2
100026d2:	3301      	adds	r3, #1
100026d4:	b2c9      	uxtb	r1, r1
100026d6:	b29b      	uxth	r3, r3
100026d8:	4288      	cmp	r0, r1
100026da:	d8e2      	bhi.n	100026a2 <GPU_DrawText+0x7e>
100026dc:	9c01      	ldr	r4, [sp, #4]
100026de:	9f02      	ldr	r7, [sp, #8]
100026e0:	2302      	movs	r3, #2
100026e2:	469a      	mov	sl, r3
100026e4:	3701      	adds	r7, #1
100026e6:	9b03      	ldr	r3, [sp, #12]
100026e8:	3401      	adds	r4, #1
100026ea:	b2bf      	uxth	r7, r7
100026ec:	44d1      	add	r9, sl
100026ee:	b2a4      	uxth	r4, r4
100026f0:	42bb      	cmp	r3, r7
100026f2:	d8c9      	bhi.n	10002688 <GPU_DrawText+0x64>
100026f4:	9906      	ldr	r1, [sp, #24]
100026f6:	9b04      	ldr	r3, [sp, #16]
100026f8:	4689      	mov	r9, r1
100026fa:	9a05      	ldr	r2, [sp, #20]
100026fc:	444b      	add	r3, r9
100026fe:	3201      	adds	r2, #1
10002700:	b29b      	uxth	r3, r3
10002702:	9205      	str	r2, [sp, #20]
10002704:	9304      	str	r3, [sp, #16]
10002706:	b293      	uxth	r3, r2
10002708:	9a0a      	ldr	r2, [sp, #40]	; 0x28
1000270a:	4293      	cmp	r3, r2
1000270c:	d3b0      	bcc.n	10002670 <GPU_DrawText+0x4c>
1000270e:	b00d      	add	sp, #52	; 0x34
10002710:	bcf0      	pop	{r4, r5, r6, r7}
10002712:	46bb      	mov	fp, r7
10002714:	46b2      	mov	sl, r6
10002716:	46a9      	mov	r9, r5
10002718:	46a0      	mov	r8, r4
1000271a:	bdf0      	pop	{r4, r5, r6, r7, pc}
1000271c:	20000bb4 	.word	0x20000bb4

10002720 <GPU_DrawFilledRectangle>:
10002720:	b5f0      	push	{r4, r5, r6, r7, lr}
10002722:	4645      	mov	r5, r8
10002724:	46de      	mov	lr, fp
10002726:	4657      	mov	r7, sl
10002728:	464e      	mov	r6, r9
1000272a:	469c      	mov	ip, r3
1000272c:	b5e0      	push	{r5, r6, r7, lr}
1000272e:	ab09      	add	r3, sp, #36	; 0x24
10002730:	0005      	movs	r5, r0
10002732:	2000      	movs	r0, #0
10002734:	5e1b      	ldrsh	r3, [r3, r0]
10002736:	4698      	mov	r8, r3
10002738:	4663      	mov	r3, ip
1000273a:	2b00      	cmp	r3, #0
1000273c:	dd28      	ble.n	10002790 <GPU_DrawFilledRectangle+0x70>
1000273e:	2340      	movs	r3, #64	; 0x40
10002740:	33ff      	adds	r3, #255	; 0xff
10002742:	469a      	mov	sl, r3
10002744:	b293      	uxth	r3, r2
10002746:	469b      	mov	fp, r3
10002748:	23a0      	movs	r3, #160	; 0xa0
1000274a:	465c      	mov	r4, fp
1000274c:	005b      	lsls	r3, r3, #1
1000274e:	b288      	uxth	r0, r1
10002750:	4699      	mov	r9, r3
10002752:	2100      	movs	r1, #0
10002754:	4444      	add	r4, r8
10002756:	4e11      	ldr	r6, [pc, #68]	; (1000279c <GPU_DrawFilledRectangle+0x7c>)
10002758:	b2a4      	uxth	r4, r4
1000275a:	4643      	mov	r3, r8
1000275c:	b289      	uxth	r1, r1
1000275e:	2b00      	cmp	r3, #0
10002760:	dd10      	ble.n	10002784 <GPU_DrawFilledRectangle+0x64>
10002762:	4653      	mov	r3, sl
10002764:	1a1a      	subs	r2, r3, r0
10002766:	0113      	lsls	r3, r2, #4
10002768:	1a9b      	subs	r3, r3, r2
1000276a:	011b      	lsls	r3, r3, #4
1000276c:	465a      	mov	r2, fp
1000276e:	4548      	cmp	r0, r9
10002770:	d208      	bcs.n	10002784 <GPU_DrawFilledRectangle+0x64>
10002772:	2aef      	cmp	r2, #239	; 0xef
10002774:	d802      	bhi.n	1000277c <GPU_DrawFilledRectangle+0x5c>
10002776:	18d7      	adds	r7, r2, r3
10002778:	007f      	lsls	r7, r7, #1
1000277a:	53bd      	strh	r5, [r7, r6]
1000277c:	3201      	adds	r2, #1
1000277e:	b292      	uxth	r2, r2
10002780:	4294      	cmp	r4, r2
10002782:	d1f6      	bne.n	10002772 <GPU_DrawFilledRectangle+0x52>
10002784:	3101      	adds	r1, #1
10002786:	3001      	adds	r0, #1
10002788:	b209      	sxth	r1, r1
1000278a:	b280      	uxth	r0, r0
1000278c:	458c      	cmp	ip, r1
1000278e:	d1e4      	bne.n	1000275a <GPU_DrawFilledRectangle+0x3a>
10002790:	bcf0      	pop	{r4, r5, r6, r7}
10002792:	46bb      	mov	fp, r7
10002794:	46b2      	mov	sl, r6
10002796:	46a9      	mov	r9, r5
10002798:	46a0      	mov	r8, r4
1000279a:	bdf0      	pop	{r4, r5, r6, r7, pc}
1000279c:	20000bb4 	.word	0x20000bb4

100027a0 <DrawVerticalRectangle>:
100027a0:	b5f0      	push	{r4, r5, r6, r7, lr}
100027a2:	4645      	mov	r5, r8
100027a4:	46de      	mov	lr, fp
100027a6:	4657      	mov	r7, sl
100027a8:	464e      	mov	r6, r9
100027aa:	469c      	mov	ip, r3
100027ac:	b5e0      	push	{r5, r6, r7, lr}
100027ae:	ab09      	add	r3, sp, #36	; 0x24
100027b0:	0005      	movs	r5, r0
100027b2:	2000      	movs	r0, #0
100027b4:	5e1b      	ldrsh	r3, [r3, r0]
100027b6:	4698      	mov	r8, r3
100027b8:	4663      	mov	r3, ip
100027ba:	2b00      	cmp	r3, #0
100027bc:	dd29      	ble.n	10002812 <DrawVerticalRectangle+0x72>
100027be:	2340      	movs	r3, #64	; 0x40
100027c0:	33ff      	adds	r3, #255	; 0xff
100027c2:	469a      	mov	sl, r3
100027c4:	b293      	uxth	r3, r2
100027c6:	469b      	mov	fp, r3
100027c8:	23a0      	movs	r3, #160	; 0xa0
100027ca:	005b      	lsls	r3, r3, #1
100027cc:	4699      	mov	r9, r3
100027ce:	4642      	mov	r2, r8
100027d0:	465b      	mov	r3, fp
100027d2:	b288      	uxth	r0, r1
100027d4:	2100      	movs	r1, #0
100027d6:	1a9c      	subs	r4, r3, r2
100027d8:	4e11      	ldr	r6, [pc, #68]	; (10002820 <DrawVerticalRectangle+0x80>)
100027da:	b2a4      	uxth	r4, r4
100027dc:	4643      	mov	r3, r8
100027de:	b289      	uxth	r1, r1
100027e0:	2b00      	cmp	r3, #0
100027e2:	dd10      	ble.n	10002806 <DrawVerticalRectangle+0x66>
100027e4:	4653      	mov	r3, sl
100027e6:	1a1a      	subs	r2, r3, r0
100027e8:	0113      	lsls	r3, r2, #4
100027ea:	1a9b      	subs	r3, r3, r2
100027ec:	011b      	lsls	r3, r3, #4
100027ee:	465a      	mov	r2, fp
100027f0:	4548      	cmp	r0, r9
100027f2:	d208      	bcs.n	10002806 <DrawVerticalRectangle+0x66>
100027f4:	2aef      	cmp	r2, #239	; 0xef
100027f6:	d802      	bhi.n	100027fe <DrawVerticalRectangle+0x5e>
100027f8:	18d7      	adds	r7, r2, r3
100027fa:	007f      	lsls	r7, r7, #1
100027fc:	53bd      	strh	r5, [r7, r6]
100027fe:	3a01      	subs	r2, #1
10002800:	b292      	uxth	r2, r2
10002802:	4294      	cmp	r4, r2
10002804:	d1f6      	bne.n	100027f4 <DrawVerticalRectangle+0x54>
10002806:	3101      	adds	r1, #1
10002808:	3001      	adds	r0, #1
1000280a:	b209      	sxth	r1, r1
1000280c:	b280      	uxth	r0, r0
1000280e:	458c      	cmp	ip, r1
10002810:	d1e4      	bne.n	100027dc <DrawVerticalRectangle+0x3c>
10002812:	bcf0      	pop	{r4, r5, r6, r7}
10002814:	46bb      	mov	fp, r7
10002816:	46b2      	mov	sl, r6
10002818:	46a9      	mov	r9, r5
1000281a:	46a0      	mov	r8, r4
1000281c:	bdf0      	pop	{r4, r5, r6, r7, pc}
1000281e:	46c0      	nop			; (mov r8, r8)
10002820:	20000bb4 	.word	0x20000bb4

10002824 <DrawFilledTriangle>:
10002824:	b5f0      	push	{r4, r5, r6, r7, lr}
10002826:	4657      	mov	r7, sl
10002828:	46de      	mov	lr, fp
1000282a:	464e      	mov	r6, r9
1000282c:	4645      	mov	r5, r8
1000282e:	b5e0      	push	{r5, r6, r7, lr}
10002830:	b085      	sub	sp, #20
10002832:	9201      	str	r2, [sp, #4]
10002834:	aa0e      	add	r2, sp, #56	; 0x38
10002836:	2700      	movs	r7, #0
10002838:	5fd7      	ldrsh	r7, [r2, r7]
1000283a:	9c0f      	ldr	r4, [sp, #60]	; 0x3c
1000283c:	4a7b      	ldr	r2, [pc, #492]	; (10002a2c <DrawFilledTriangle+0x208>)
1000283e:	4294      	cmp	r4, r2
10002840:	d100      	bne.n	10002844 <DrawFilledTriangle+0x20>
10002842:	e07d      	b.n	10002940 <DrawFilledTriangle+0x11c>
10002844:	4a7a      	ldr	r2, [pc, #488]	; (10002a30 <DrawFilledTriangle+0x20c>)
10002846:	4294      	cmp	r4, r2
10002848:	d006      	beq.n	10002858 <DrawFilledTriangle+0x34>
1000284a:	b005      	add	sp, #20
1000284c:	bcf0      	pop	{r4, r5, r6, r7}
1000284e:	46bb      	mov	fp, r7
10002850:	46b2      	mov	sl, r6
10002852:	46a9      	mov	r9, r5
10002854:	46a0      	mov	r8, r4
10002856:	bdf0      	pop	{r4, r5, r6, r7, pc}
10002858:	2f00      	cmp	r7, #0
1000285a:	ddf6      	ble.n	1000284a <DrawFilledTriangle+0x26>
1000285c:	0fda      	lsrs	r2, r3, #31
1000285e:	18d3      	adds	r3, r2, r3
10002860:	2200      	movs	r2, #0
10002862:	4694      	mov	ip, r2
10002864:	2240      	movs	r2, #64	; 0x40
10002866:	32ff      	adds	r2, #255	; 0xff
10002868:	4693      	mov	fp, r2
1000286a:	466a      	mov	r2, sp
1000286c:	8896      	ldrh	r6, [r2, #4]
1000286e:	105b      	asrs	r3, r3, #1
10002870:	4698      	mov	r8, r3
10002872:	9303      	str	r3, [sp, #12]
10002874:	1af3      	subs	r3, r6, r3
10002876:	9302      	str	r3, [sp, #8]
10002878:	4b6e      	ldr	r3, [pc, #440]	; (10002a34 <DrawFilledTriangle+0x210>)
1000287a:	b289      	uxth	r1, r1
1000287c:	469a      	mov	sl, r3
1000287e:	003b      	movs	r3, r7
10002880:	000d      	movs	r5, r1
10002882:	0007      	movs	r7, r0
10002884:	4689      	mov	r9, r1
10002886:	4640      	mov	r0, r8
10002888:	4661      	mov	r1, ip
1000288a:	469c      	mov	ip, r3
1000288c:	2800      	cmp	r0, #0
1000288e:	db19      	blt.n	100028c4 <DrawFilledTriangle+0xa0>
10002890:	465b      	mov	r3, fp
10002892:	1b5b      	subs	r3, r3, r5
10002894:	011c      	lsls	r4, r3, #4
10002896:	1ae4      	subs	r4, r4, r3
10002898:	23a0      	movs	r3, #160	; 0xa0
1000289a:	0124      	lsls	r4, r4, #4
1000289c:	005b      	lsls	r3, r3, #1
1000289e:	429d      	cmp	r5, r3
100028a0:	d210      	bcs.n	100028c4 <DrawFilledTriangle+0xa0>
100028a2:	9b02      	ldr	r3, [sp, #8]
100028a4:	9100      	str	r1, [sp, #0]
100028a6:	185b      	adds	r3, r3, r1
100028a8:	b29b      	uxth	r3, r3
100028aa:	e000      	b.n	100028ae <DrawFilledTriangle+0x8a>
100028ac:	0013      	movs	r3, r2
100028ae:	2bef      	cmp	r3, #239	; 0xef
100028b0:	d803      	bhi.n	100028ba <DrawFilledTriangle+0x96>
100028b2:	4651      	mov	r1, sl
100028b4:	191a      	adds	r2, r3, r4
100028b6:	0052      	lsls	r2, r2, #1
100028b8:	5257      	strh	r7, [r2, r1]
100028ba:	1c5a      	adds	r2, r3, #1
100028bc:	b292      	uxth	r2, r2
100028be:	429e      	cmp	r6, r3
100028c0:	d1f4      	bne.n	100028ac <DrawFilledTriangle+0x88>
100028c2:	9900      	ldr	r1, [sp, #0]
100028c4:	3d01      	subs	r5, #1
100028c6:	3101      	adds	r1, #1
100028c8:	3801      	subs	r0, #1
100028ca:	b2ad      	uxth	r5, r5
100028cc:	4561      	cmp	r1, ip
100028ce:	dbdd      	blt.n	1000288c <DrawFilledTriangle+0x68>
100028d0:	2340      	movs	r3, #64	; 0x40
100028d2:	33ff      	adds	r3, #255	; 0xff
100028d4:	4649      	mov	r1, r9
100028d6:	4699      	mov	r9, r3
100028d8:	466b      	mov	r3, sp
100028da:	889d      	ldrh	r5, [r3, #4]
100028dc:	23a0      	movs	r3, #160	; 0xa0
100028de:	0038      	movs	r0, r7
100028e0:	4667      	mov	r7, ip
100028e2:	005b      	lsls	r3, r3, #1
100028e4:	469a      	mov	sl, r3
100028e6:	9b03      	ldr	r3, [sp, #12]
100028e8:	4642      	mov	r2, r8
100028ea:	469b      	mov	fp, r3
100028ec:	4b51      	ldr	r3, [pc, #324]	; (10002a34 <DrawFilledTriangle+0x210>)
100028ee:	2600      	movs	r6, #0
100028f0:	469c      	mov	ip, r3
100028f2:	003b      	movs	r3, r7
100028f4:	0007      	movs	r7, r0
100028f6:	4698      	mov	r8, r3
100028f8:	44ab      	add	fp, r5
100028fa:	9200      	str	r2, [sp, #0]
100028fc:	9b00      	ldr	r3, [sp, #0]
100028fe:	2b00      	cmp	r3, #0
10002900:	db15      	blt.n	1000292e <DrawFilledTriangle+0x10a>
10002902:	464b      	mov	r3, r9
10002904:	1a5b      	subs	r3, r3, r1
10002906:	011c      	lsls	r4, r3, #4
10002908:	1ae4      	subs	r4, r4, r3
1000290a:	0124      	lsls	r4, r4, #4
1000290c:	4551      	cmp	r1, sl
1000290e:	d20e      	bcs.n	1000292e <DrawFilledTriangle+0x10a>
10002910:	465b      	mov	r3, fp
10002912:	1b9b      	subs	r3, r3, r6
10002914:	b29b      	uxth	r3, r3
10002916:	e000      	b.n	1000291a <DrawFilledTriangle+0xf6>
10002918:	0013      	movs	r3, r2
1000291a:	2bef      	cmp	r3, #239	; 0xef
1000291c:	d803      	bhi.n	10002926 <DrawFilledTriangle+0x102>
1000291e:	4660      	mov	r0, ip
10002920:	191a      	adds	r2, r3, r4
10002922:	0052      	lsls	r2, r2, #1
10002924:	5217      	strh	r7, [r2, r0]
10002926:	1e5a      	subs	r2, r3, #1
10002928:	b292      	uxth	r2, r2
1000292a:	429d      	cmp	r5, r3
1000292c:	d1f4      	bne.n	10002918 <DrawFilledTriangle+0xf4>
1000292e:	9b00      	ldr	r3, [sp, #0]
10002930:	3901      	subs	r1, #1
10002932:	3b01      	subs	r3, #1
10002934:	3601      	adds	r6, #1
10002936:	9300      	str	r3, [sp, #0]
10002938:	b289      	uxth	r1, r1
1000293a:	4546      	cmp	r6, r8
1000293c:	dbde      	blt.n	100028fc <DrawFilledTriangle+0xd8>
1000293e:	e784      	b.n	1000284a <DrawFilledTriangle+0x26>
10002940:	2f00      	cmp	r7, #0
10002942:	dc00      	bgt.n	10002946 <DrawFilledTriangle+0x122>
10002944:	e781      	b.n	1000284a <DrawFilledTriangle+0x26>
10002946:	0fda      	lsrs	r2, r3, #31
10002948:	18d3      	adds	r3, r2, r3
1000294a:	2200      	movs	r2, #0
1000294c:	4694      	mov	ip, r2
1000294e:	2240      	movs	r2, #64	; 0x40
10002950:	32ff      	adds	r2, #255	; 0xff
10002952:	4693      	mov	fp, r2
10002954:	466a      	mov	r2, sp
10002956:	8896      	ldrh	r6, [r2, #4]
10002958:	105b      	asrs	r3, r3, #1
1000295a:	4698      	mov	r8, r3
1000295c:	9303      	str	r3, [sp, #12]
1000295e:	1af3      	subs	r3, r6, r3
10002960:	9302      	str	r3, [sp, #8]
10002962:	4b34      	ldr	r3, [pc, #208]	; (10002a34 <DrawFilledTriangle+0x210>)
10002964:	b289      	uxth	r1, r1
10002966:	469a      	mov	sl, r3
10002968:	003b      	movs	r3, r7
1000296a:	000d      	movs	r5, r1
1000296c:	0007      	movs	r7, r0
1000296e:	4689      	mov	r9, r1
10002970:	4640      	mov	r0, r8
10002972:	4661      	mov	r1, ip
10002974:	469c      	mov	ip, r3
10002976:	2800      	cmp	r0, #0
10002978:	db19      	blt.n	100029ae <DrawFilledTriangle+0x18a>
1000297a:	465b      	mov	r3, fp
1000297c:	1b5b      	subs	r3, r3, r5
1000297e:	011c      	lsls	r4, r3, #4
10002980:	1ae4      	subs	r4, r4, r3
10002982:	23a0      	movs	r3, #160	; 0xa0
10002984:	0124      	lsls	r4, r4, #4
10002986:	005b      	lsls	r3, r3, #1
10002988:	429d      	cmp	r5, r3
1000298a:	d210      	bcs.n	100029ae <DrawFilledTriangle+0x18a>
1000298c:	9b02      	ldr	r3, [sp, #8]
1000298e:	9100      	str	r1, [sp, #0]
10002990:	185b      	adds	r3, r3, r1
10002992:	b29b      	uxth	r3, r3
10002994:	e000      	b.n	10002998 <DrawFilledTriangle+0x174>
10002996:	0013      	movs	r3, r2
10002998:	2bef      	cmp	r3, #239	; 0xef
1000299a:	d803      	bhi.n	100029a4 <DrawFilledTriangle+0x180>
1000299c:	4651      	mov	r1, sl
1000299e:	191a      	adds	r2, r3, r4
100029a0:	0052      	lsls	r2, r2, #1
100029a2:	5257      	strh	r7, [r2, r1]
100029a4:	1c5a      	adds	r2, r3, #1
100029a6:	b292      	uxth	r2, r2
100029a8:	42b3      	cmp	r3, r6
100029aa:	d1f4      	bne.n	10002996 <DrawFilledTriangle+0x172>
100029ac:	9900      	ldr	r1, [sp, #0]
100029ae:	3501      	adds	r5, #1
100029b0:	3101      	adds	r1, #1
100029b2:	3801      	subs	r0, #1
100029b4:	b2ad      	uxth	r5, r5
100029b6:	4561      	cmp	r1, ip
100029b8:	dbdd      	blt.n	10002976 <DrawFilledTriangle+0x152>
100029ba:	2340      	movs	r3, #64	; 0x40
100029bc:	33ff      	adds	r3, #255	; 0xff
100029be:	4649      	mov	r1, r9
100029c0:	4699      	mov	r9, r3
100029c2:	466b      	mov	r3, sp
100029c4:	889d      	ldrh	r5, [r3, #4]
100029c6:	23a0      	movs	r3, #160	; 0xa0
100029c8:	0038      	movs	r0, r7
100029ca:	4667      	mov	r7, ip
100029cc:	005b      	lsls	r3, r3, #1
100029ce:	469a      	mov	sl, r3
100029d0:	9b03      	ldr	r3, [sp, #12]
100029d2:	4642      	mov	r2, r8
100029d4:	469b      	mov	fp, r3
100029d6:	4b17      	ldr	r3, [pc, #92]	; (10002a34 <DrawFilledTriangle+0x210>)
100029d8:	2600      	movs	r6, #0
100029da:	469c      	mov	ip, r3
100029dc:	003b      	movs	r3, r7
100029de:	0007      	movs	r7, r0
100029e0:	4698      	mov	r8, r3
100029e2:	44ab      	add	fp, r5
100029e4:	9200      	str	r2, [sp, #0]
100029e6:	9b00      	ldr	r3, [sp, #0]
100029e8:	2b00      	cmp	r3, #0
100029ea:	db15      	blt.n	10002a18 <DrawFilledTriangle+0x1f4>
100029ec:	464b      	mov	r3, r9
100029ee:	1a5b      	subs	r3, r3, r1
100029f0:	011c      	lsls	r4, r3, #4
100029f2:	1ae4      	subs	r4, r4, r3
100029f4:	0124      	lsls	r4, r4, #4
100029f6:	4551      	cmp	r1, sl
100029f8:	d20e      	bcs.n	10002a18 <DrawFilledTriangle+0x1f4>
100029fa:	465b      	mov	r3, fp
100029fc:	1b9b      	subs	r3, r3, r6
100029fe:	b29b      	uxth	r3, r3
10002a00:	e000      	b.n	10002a04 <DrawFilledTriangle+0x1e0>
10002a02:	0013      	movs	r3, r2
10002a04:	2bef      	cmp	r3, #239	; 0xef
10002a06:	d803      	bhi.n	10002a10 <DrawFilledTriangle+0x1ec>
10002a08:	4660      	mov	r0, ip
10002a0a:	191a      	adds	r2, r3, r4
10002a0c:	0052      	lsls	r2, r2, #1
10002a0e:	5217      	strh	r7, [r2, r0]
10002a10:	1e5a      	subs	r2, r3, #1
10002a12:	b292      	uxth	r2, r2
10002a14:	42ab      	cmp	r3, r5
10002a16:	d1f4      	bne.n	10002a02 <DrawFilledTriangle+0x1de>
10002a18:	9b00      	ldr	r3, [sp, #0]
10002a1a:	3101      	adds	r1, #1
10002a1c:	3b01      	subs	r3, #1
10002a1e:	3601      	adds	r6, #1
10002a20:	9300      	str	r3, [sp, #0]
10002a22:	b289      	uxth	r1, r1
10002a24:	4546      	cmp	r6, r8
10002a26:	dbde      	blt.n	100029e6 <DrawFilledTriangle+0x1c2>
10002a28:	e70f      	b.n	1000284a <DrawFilledTriangle+0x26>
10002a2a:	46c0      	nop			; (mov r8, r8)
10002a2c:	1000b278 	.word	0x1000b278
10002a30:	1000b280 	.word	0x1000b280
10002a34:	20000bb4 	.word	0x20000bb4

10002a38 <LeftHalfFilledCircle>:
10002a38:	b5f0      	push	{r4, r5, r6, r7, lr}
10002a3a:	46de      	mov	lr, fp
10002a3c:	4657      	mov	r7, sl
10002a3e:	464e      	mov	r6, r9
10002a40:	4645      	mov	r5, r8
10002a42:	b5e0      	push	{r5, r6, r7, lr}
10002a44:	2603      	movs	r6, #3
10002a46:	b29d      	uxth	r5, r3
10002a48:	006b      	lsls	r3, r5, #1
10002a4a:	1af6      	subs	r6, r6, r3
10002a4c:	43cb      	mvns	r3, r1
10002a4e:	0014      	movs	r4, r2
10002a50:	000a      	movs	r2, r1
10002a52:	17db      	asrs	r3, r3, #31
10002a54:	401a      	ands	r2, r3
10002a56:	4691      	mov	r9, r2
10002a58:	1b62      	subs	r2, r4, r5
10002a5a:	43d3      	mvns	r3, r2
10002a5c:	1b4f      	subs	r7, r1, r5
10002a5e:	17db      	asrs	r3, r3, #31
10002a60:	401a      	ands	r2, r3
10002a62:	43fb      	mvns	r3, r7
10002a64:	17db      	asrs	r3, r3, #31
10002a66:	401f      	ands	r7, r3
10002a68:	43e3      	mvns	r3, r4
10002a6a:	17db      	asrs	r3, r3, #31
10002a6c:	b085      	sub	sp, #20
10002a6e:	b212      	sxth	r2, r2
10002a70:	4023      	ands	r3, r4
10002a72:	4688      	mov	r8, r1
10002a74:	9303      	str	r3, [sp, #12]
10002a76:	9200      	str	r2, [sp, #0]
10002a78:	000b      	movs	r3, r1
10002a7a:	4649      	mov	r1, r9
10002a7c:	4682      	mov	sl, r0
10002a7e:	f7ff fd3b 	bl	100024f8 <GPU_DrawLine>
10002a82:	b2a1      	uxth	r1, r4
10002a84:	468b      	mov	fp, r1
10002a86:	0029      	movs	r1, r5
10002a88:	4459      	add	r1, fp
10002a8a:	b20a      	sxth	r2, r1
10002a8c:	4643      	mov	r3, r8
10002a8e:	4650      	mov	r0, sl
10002a90:	9102      	str	r1, [sp, #8]
10002a92:	9200      	str	r2, [sp, #0]
10002a94:	4649      	mov	r1, r9
10002a96:	f7ff fd2f 	bl	100024f8 <GPU_DrawLine>
10002a9a:	9a03      	ldr	r2, [sp, #12]
10002a9c:	b23f      	sxth	r7, r7
10002a9e:	4643      	mov	r3, r8
10002aa0:	0039      	movs	r1, r7
10002aa2:	4650      	mov	r0, sl
10002aa4:	9200      	str	r2, [sp, #0]
10002aa6:	f7ff fd27 	bl	100024f8 <GPU_DrawLine>
10002aaa:	4643      	mov	r3, r8
10002aac:	0022      	movs	r2, r4
10002aae:	9400      	str	r4, [sp, #0]
10002ab0:	0039      	movs	r1, r7
10002ab2:	4650      	mov	r0, sl
10002ab4:	f7ff fd20 	bl	100024f8 <GPU_DrawLine>
10002ab8:	4643      	mov	r3, r8
10002aba:	b236      	sxth	r6, r6
10002abc:	b29b      	uxth	r3, r3
10002abe:	2400      	movs	r4, #0
10002ac0:	46b1      	mov	r9, r6
10002ac2:	9303      	str	r3, [sp, #12]
10002ac4:	e037      	b.n	10002b36 <LeftHalfFilledCircle+0xfe>
10002ac6:	464a      	mov	r2, r9
10002ac8:	3d01      	subs	r5, #1
10002aca:	b2ad      	uxth	r5, r5
10002acc:	1b63      	subs	r3, r4, r5
10002ace:	009b      	lsls	r3, r3, #2
10002ad0:	320a      	adds	r2, #10
10002ad2:	189b      	adds	r3, r3, r2
10002ad4:	b21b      	sxth	r3, r3
10002ad6:	4699      	mov	r9, r3
10002ad8:	002b      	movs	r3, r5
10002ada:	445b      	add	r3, fp
10002adc:	9302      	str	r3, [sp, #8]
10002ade:	465b      	mov	r3, fp
10002ae0:	9f03      	ldr	r7, [sp, #12]
10002ae2:	1b5a      	subs	r2, r3, r5
10002ae4:	1b3e      	subs	r6, r7, r4
10002ae6:	b236      	sxth	r6, r6
10002ae8:	b212      	sxth	r2, r2
10002aea:	0031      	movs	r1, r6
10002aec:	4643      	mov	r3, r8
10002aee:	4650      	mov	r0, sl
10002af0:	9200      	str	r2, [sp, #0]
10002af2:	f7ff fd01 	bl	100024f8 <GPU_DrawLine>
10002af6:	466b      	mov	r3, sp
10002af8:	2208      	movs	r2, #8
10002afa:	5e9a      	ldrsh	r2, [r3, r2]
10002afc:	0031      	movs	r1, r6
10002afe:	4643      	mov	r3, r8
10002b00:	4650      	mov	r0, sl
10002b02:	9200      	str	r2, [sp, #0]
10002b04:	f7ff fcf8 	bl	100024f8 <GPU_DrawLine>
10002b08:	465b      	mov	r3, fp
10002b0a:	1b7e      	subs	r6, r7, r5
10002b0c:	1b1a      	subs	r2, r3, r4
10002b0e:	b236      	sxth	r6, r6
10002b10:	b297      	uxth	r7, r2
10002b12:	b212      	sxth	r2, r2
10002b14:	4643      	mov	r3, r8
10002b16:	0031      	movs	r1, r6
10002b18:	4650      	mov	r0, sl
10002b1a:	9200      	str	r2, [sp, #0]
10002b1c:	f7ff fcec 	bl	100024f8 <GPU_DrawLine>
10002b20:	0062      	lsls	r2, r4, #1
10002b22:	18ba      	adds	r2, r7, r2
10002b24:	b212      	sxth	r2, r2
10002b26:	4643      	mov	r3, r8
10002b28:	0031      	movs	r1, r6
10002b2a:	4650      	mov	r0, sl
10002b2c:	9200      	str	r2, [sp, #0]
10002b2e:	f7ff fce3 	bl	100024f8 <GPU_DrawLine>
10002b32:	42a5      	cmp	r5, r4
10002b34:	d30a      	bcc.n	10002b4c <LeftHalfFilledCircle+0x114>
10002b36:	464b      	mov	r3, r9
10002b38:	3401      	adds	r4, #1
10002b3a:	b2a4      	uxth	r4, r4
10002b3c:	2b00      	cmp	r3, #0
10002b3e:	dcc2      	bgt.n	10002ac6 <LeftHalfFilledCircle+0x8e>
10002b40:	00a3      	lsls	r3, r4, #2
10002b42:	3306      	adds	r3, #6
10002b44:	444b      	add	r3, r9
10002b46:	b21b      	sxth	r3, r3
10002b48:	4699      	mov	r9, r3
10002b4a:	e7c8      	b.n	10002ade <LeftHalfFilledCircle+0xa6>
10002b4c:	b005      	add	sp, #20
10002b4e:	bcf0      	pop	{r4, r5, r6, r7}
10002b50:	46bb      	mov	fp, r7
10002b52:	46b2      	mov	sl, r6
10002b54:	46a9      	mov	r9, r5
10002b56:	46a0      	mov	r8, r4
10002b58:	bdf0      	pop	{r4, r5, r6, r7, pc}
10002b5a:	46c0      	nop			; (mov r8, r8)

10002b5c <GPU_DrawFilledCircle>:
10002b5c:	b5f0      	push	{r4, r5, r6, r7, lr}
10002b5e:	46de      	mov	lr, fp
10002b60:	4657      	mov	r7, sl
10002b62:	464e      	mov	r6, r9
10002b64:	4645      	mov	r5, r8
10002b66:	b5e0      	push	{r5, r6, r7, lr}
10002b68:	2703      	movs	r7, #3
10002b6a:	b29e      	uxth	r6, r3
10002b6c:	0073      	lsls	r3, r6, #1
10002b6e:	1aff      	subs	r7, r7, r3
10002b70:	43cb      	mvns	r3, r1
10002b72:	17db      	asrs	r3, r3, #31
10002b74:	0014      	movs	r4, r2
10002b76:	400b      	ands	r3, r1
10002b78:	1b92      	subs	r2, r2, r6
10002b7a:	4699      	mov	r9, r3
10002b7c:	43d3      	mvns	r3, r2
10002b7e:	17db      	asrs	r3, r3, #31
10002b80:	401a      	ands	r2, r3
10002b82:	1b8b      	subs	r3, r1, r6
10002b84:	000d      	movs	r5, r1
10002b86:	43d9      	mvns	r1, r3
10002b88:	17c9      	asrs	r1, r1, #31
10002b8a:	400b      	ands	r3, r1
10002b8c:	b087      	sub	sp, #28
10002b8e:	b21b      	sxth	r3, r3
10002b90:	9303      	str	r3, [sp, #12]
10002b92:	43e3      	mvns	r3, r4
10002b94:	17db      	asrs	r3, r3, #31
10002b96:	b212      	sxth	r2, r2
10002b98:	b2a9      	uxth	r1, r5
10002b9a:	4023      	ands	r3, r4
10002b9c:	4698      	mov	r8, r3
10002b9e:	468b      	mov	fp, r1
10002ba0:	002b      	movs	r3, r5
10002ba2:	4649      	mov	r1, r9
10002ba4:	9200      	str	r2, [sp, #0]
10002ba6:	4682      	mov	sl, r0
10002ba8:	f7ff fca6 	bl	100024f8 <GPU_DrawLine>
10002bac:	b2a3      	uxth	r3, r4
10002bae:	469c      	mov	ip, r3
10002bb0:	44b4      	add	ip, r6
10002bb2:	9302      	str	r3, [sp, #8]
10002bb4:	4663      	mov	r3, ip
10002bb6:	b21a      	sxth	r2, r3
10002bb8:	4649      	mov	r1, r9
10002bba:	4650      	mov	r0, sl
10002bbc:	9305      	str	r3, [sp, #20]
10002bbe:	9200      	str	r2, [sp, #0]
10002bc0:	002b      	movs	r3, r5
10002bc2:	f7ff fc99 	bl	100024f8 <GPU_DrawLine>
10002bc6:	0033      	movs	r3, r6
10002bc8:	9903      	ldr	r1, [sp, #12]
10002bca:	4642      	mov	r2, r8
10002bcc:	4688      	mov	r8, r1
10002bce:	445b      	add	r3, fp
10002bd0:	b21d      	sxth	r5, r3
10002bd2:	4650      	mov	r0, sl
10002bd4:	9304      	str	r3, [sp, #16]
10002bd6:	9200      	str	r2, [sp, #0]
10002bd8:	002b      	movs	r3, r5
10002bda:	f7ff fc8d 	bl	100024f8 <GPU_DrawLine>
10002bde:	b23f      	sxth	r7, r7
10002be0:	002b      	movs	r3, r5
10002be2:	4641      	mov	r1, r8
10002be4:	0022      	movs	r2, r4
10002be6:	4650      	mov	r0, sl
10002be8:	9400      	str	r4, [sp, #0]
10002bea:	f7ff fc85 	bl	100024f8 <GPU_DrawLine>
10002bee:	2500      	movs	r5, #0
10002bf0:	46b8      	mov	r8, r7
10002bf2:	e046      	b.n	10002c82 <GPU_DrawFilledCircle+0x126>
10002bf4:	4642      	mov	r2, r8
10002bf6:	3e01      	subs	r6, #1
10002bf8:	b2b6      	uxth	r6, r6
10002bfa:	1bab      	subs	r3, r5, r6
10002bfc:	009b      	lsls	r3, r3, #2
10002bfe:	320a      	adds	r2, #10
10002c00:	189b      	adds	r3, r3, r2
10002c02:	b21b      	sxth	r3, r3
10002c04:	4698      	mov	r8, r3
10002c06:	9b02      	ldr	r3, [sp, #8]
10002c08:	469c      	mov	ip, r3
10002c0a:	44b4      	add	ip, r6
10002c0c:	4663      	mov	r3, ip
10002c0e:	9305      	str	r3, [sp, #20]
10002c10:	0033      	movs	r3, r6
10002c12:	445b      	add	r3, fp
10002c14:	9304      	str	r3, [sp, #16]
10002c16:	465b      	mov	r3, fp
10002c18:	1b5c      	subs	r4, r3, r5
10002c1a:	9b02      	ldr	r3, [sp, #8]
10002c1c:	b227      	sxth	r7, r4
10002c1e:	1b9a      	subs	r2, r3, r6
10002c20:	006b      	lsls	r3, r5, #1
10002c22:	b299      	uxth	r1, r3
10002c24:	4689      	mov	r9, r1
10002c26:	444c      	add	r4, r9
10002c28:	b212      	sxth	r2, r2
10002c2a:	b224      	sxth	r4, r4
10002c2c:	0039      	movs	r1, r7
10002c2e:	0023      	movs	r3, r4
10002c30:	4650      	mov	r0, sl
10002c32:	9200      	str	r2, [sp, #0]
10002c34:	f7ff fc60 	bl	100024f8 <GPU_DrawLine>
10002c38:	466b      	mov	r3, sp
10002c3a:	2114      	movs	r1, #20
10002c3c:	5e5a      	ldrsh	r2, [r3, r1]
10002c3e:	4650      	mov	r0, sl
10002c40:	0023      	movs	r3, r4
10002c42:	0039      	movs	r1, r7
10002c44:	9200      	str	r2, [sp, #0]
10002c46:	f7ff fc57 	bl	100024f8 <GPU_DrawLine>
10002c4a:	465a      	mov	r2, fp
10002c4c:	9b02      	ldr	r3, [sp, #8]
10002c4e:	1b94      	subs	r4, r2, r6
10002c50:	1b5a      	subs	r2, r3, r5
10002c52:	b293      	uxth	r3, r2
10002c54:	9303      	str	r3, [sp, #12]
10002c56:	466b      	mov	r3, sp
10002c58:	2110      	movs	r1, #16
10002c5a:	5e5f      	ldrsh	r7, [r3, r1]
10002c5c:	b212      	sxth	r2, r2
10002c5e:	b224      	sxth	r4, r4
10002c60:	003b      	movs	r3, r7
10002c62:	0021      	movs	r1, r4
10002c64:	4650      	mov	r0, sl
10002c66:	9200      	str	r2, [sp, #0]
10002c68:	f7ff fc46 	bl	100024f8 <GPU_DrawLine>
10002c6c:	9a03      	ldr	r2, [sp, #12]
10002c6e:	003b      	movs	r3, r7
10002c70:	444a      	add	r2, r9
10002c72:	b212      	sxth	r2, r2
10002c74:	0021      	movs	r1, r4
10002c76:	4650      	mov	r0, sl
10002c78:	9200      	str	r2, [sp, #0]
10002c7a:	f7ff fc3d 	bl	100024f8 <GPU_DrawLine>
10002c7e:	42ae      	cmp	r6, r5
10002c80:	d30a      	bcc.n	10002c98 <GPU_DrawFilledCircle+0x13c>
10002c82:	4643      	mov	r3, r8
10002c84:	3501      	adds	r5, #1
10002c86:	b2ad      	uxth	r5, r5
10002c88:	2b00      	cmp	r3, #0
10002c8a:	dcb3      	bgt.n	10002bf4 <GPU_DrawFilledCircle+0x98>
10002c8c:	00ab      	lsls	r3, r5, #2
10002c8e:	3306      	adds	r3, #6
10002c90:	4443      	add	r3, r8
10002c92:	b21b      	sxth	r3, r3
10002c94:	4698      	mov	r8, r3
10002c96:	e7be      	b.n	10002c16 <GPU_DrawFilledCircle+0xba>
10002c98:	b007      	add	sp, #28
10002c9a:	bcf0      	pop	{r4, r5, r6, r7}
10002c9c:	46bb      	mov	fp, r7
10002c9e:	46b2      	mov	sl, r6
10002ca0:	46a9      	mov	r9, r5
10002ca2:	46a0      	mov	r8, r4
10002ca4:	bdf0      	pop	{r4, r5, r6, r7, pc}
10002ca6:	46c0      	nop			; (mov r8, r8)

10002ca8 <DrawSmoothBar>:
10002ca8:	b5f0      	push	{r4, r5, r6, r7, lr}
10002caa:	4657      	mov	r7, sl
10002cac:	464e      	mov	r6, r9
10002cae:	4645      	mov	r5, r8
10002cb0:	46de      	mov	lr, fp
10002cb2:	b5e0      	push	{r5, r6, r7, lr}
10002cb4:	b087      	sub	sp, #28
10002cb6:	001f      	movs	r7, r3
10002cb8:	ab10      	add	r3, sp, #64	; 0x40
10002cba:	0006      	movs	r6, r0
10002cbc:	2000      	movs	r0, #0
10002cbe:	5e1b      	ldrsh	r3, [r3, r0]
10002cc0:	b288      	uxth	r0, r1
10002cc2:	4698      	mov	r8, r3
10002cc4:	0fdb      	lsrs	r3, r3, #31
10002cc6:	4443      	add	r3, r8
10002cc8:	105b      	asrs	r3, r3, #1
10002cca:	9301      	str	r3, [sp, #4]
10002ccc:	b29b      	uxth	r3, r3
10002cce:	0019      	movs	r1, r3
10002cd0:	4684      	mov	ip, r0
10002cd2:	4461      	add	r1, ip
10002cd4:	9302      	str	r3, [sp, #8]
10002cd6:	b20b      	sxth	r3, r1
10002cd8:	9205      	str	r2, [sp, #20]
10002cda:	9003      	str	r0, [sp, #12]
10002cdc:	b28c      	uxth	r4, r1
10002cde:	9304      	str	r3, [sp, #16]
10002ce0:	2f00      	cmp	r7, #0
10002ce2:	dd2b      	ble.n	10002d3c <DrawSmoothBar+0x94>
10002ce4:	b293      	uxth	r3, r2
10002ce6:	2240      	movs	r2, #64	; 0x40
10002ce8:	469b      	mov	fp, r3
10002cea:	2300      	movs	r3, #0
10002cec:	32ff      	adds	r2, #255	; 0xff
10002cee:	4692      	mov	sl, r2
10002cf0:	3201      	adds	r2, #1
10002cf2:	4691      	mov	r9, r2
10002cf4:	465d      	mov	r5, fp
10002cf6:	4a20      	ldr	r2, [pc, #128]	; (10002d78 <DrawSmoothBar+0xd0>)
10002cf8:	4445      	add	r5, r8
10002cfa:	4694      	mov	ip, r2
10002cfc:	001a      	movs	r2, r3
10002cfe:	b2ad      	uxth	r5, r5
10002d00:	4643      	mov	r3, r8
10002d02:	b292      	uxth	r2, r2
10002d04:	2b00      	cmp	r3, #0
10002d06:	dd13      	ble.n	10002d30 <DrawSmoothBar+0x88>
10002d08:	4653      	mov	r3, sl
10002d0a:	1b1b      	subs	r3, r3, r4
10002d0c:	0119      	lsls	r1, r3, #4
10002d0e:	1ac9      	subs	r1, r1, r3
10002d10:	0109      	lsls	r1, r1, #4
10002d12:	454c      	cmp	r4, r9
10002d14:	d20c      	bcs.n	10002d30 <DrawSmoothBar+0x88>
10002d16:	465b      	mov	r3, fp
10002d18:	9200      	str	r2, [sp, #0]
10002d1a:	2bef      	cmp	r3, #239	; 0xef
10002d1c:	d803      	bhi.n	10002d26 <DrawSmoothBar+0x7e>
10002d1e:	4662      	mov	r2, ip
10002d20:	1858      	adds	r0, r3, r1
10002d22:	0040      	lsls	r0, r0, #1
10002d24:	5286      	strh	r6, [r0, r2]
10002d26:	3301      	adds	r3, #1
10002d28:	b29b      	uxth	r3, r3
10002d2a:	429d      	cmp	r5, r3
10002d2c:	d1f5      	bne.n	10002d1a <DrawSmoothBar+0x72>
10002d2e:	9a00      	ldr	r2, [sp, #0]
10002d30:	3201      	adds	r2, #1
10002d32:	3401      	adds	r4, #1
10002d34:	b212      	sxth	r2, r2
10002d36:	b2a4      	uxth	r4, r4
10002d38:	4297      	cmp	r7, r2
10002d3a:	d1e1      	bne.n	10002d00 <DrawSmoothBar+0x58>
10002d3c:	9d02      	ldr	r5, [sp, #8]
10002d3e:	9c05      	ldr	r4, [sp, #20]
10002d40:	46ac      	mov	ip, r5
10002d42:	4464      	add	r4, ip
10002d44:	9b01      	ldr	r3, [sp, #4]
10002d46:	b224      	sxth	r4, r4
10002d48:	0022      	movs	r2, r4
10002d4a:	0030      	movs	r0, r6
10002d4c:	9904      	ldr	r1, [sp, #16]
10002d4e:	4698      	mov	r8, r3
10002d50:	f7ff ff04 	bl	10002b5c <GPU_DrawFilledCircle>
10002d54:	9a03      	ldr	r2, [sp, #12]
10002d56:	4643      	mov	r3, r8
10002d58:	4694      	mov	ip, r2
10002d5a:	4467      	add	r7, ip
10002d5c:	46ac      	mov	ip, r5
10002d5e:	4467      	add	r7, ip
10002d60:	0022      	movs	r2, r4
10002d62:	0030      	movs	r0, r6
10002d64:	b239      	sxth	r1, r7
10002d66:	f7ff fef9 	bl	10002b5c <GPU_DrawFilledCircle>
10002d6a:	b007      	add	sp, #28
10002d6c:	bcf0      	pop	{r4, r5, r6, r7}
10002d6e:	46bb      	mov	fp, r7
10002d70:	46b2      	mov	sl, r6
10002d72:	46a9      	mov	r9, r5
10002d74:	46a0      	mov	r8, r4
10002d76:	bdf0      	pop	{r4, r5, r6, r7, pc}
10002d78:	20000bb4 	.word	0x20000bb4

10002d7c <display_png>:
10002d7c:	23e1      	movs	r3, #225	; 0xe1
10002d7e:	019b      	lsls	r3, r3, #6
10002d80:	b570      	push	{r4, r5, r6, lr}
10002d82:	469c      	mov	ip, r3
10002d84:	25d2      	movs	r5, #210	; 0xd2
10002d86:	490a      	ldr	r1, [pc, #40]	; (10002db0 <display_png+0x34>)
10002d88:	4c0a      	ldr	r4, [pc, #40]	; (10002db4 <display_png+0x38>)
10002d8a:	480b      	ldr	r0, [pc, #44]	; (10002db8 <display_png+0x3c>)
10002d8c:	4461      	add	r1, ip
10002d8e:	022d      	lsls	r5, r5, #8
10002d90:	0022      	movs	r2, r4
10002d92:	4b0a      	ldr	r3, [pc, #40]	; (10002dbc <display_png+0x40>)
10002d94:	18cb      	adds	r3, r1, r3
10002d96:	681e      	ldr	r6, [r3, #0]
10002d98:	33f0      	adds	r3, #240	; 0xf0
10002d9a:	8016      	strh	r6, [r2, #0]
10002d9c:	3202      	adds	r2, #2
10002d9e:	428b      	cmp	r3, r1
10002da0:	d1f9      	bne.n	10002d96 <display_png+0x1a>
10002da2:	3ce1      	subs	r4, #225	; 0xe1
10002da4:	38f0      	subs	r0, #240	; 0xf0
10002da6:	3cff      	subs	r4, #255	; 0xff
10002da8:	1d19      	adds	r1, r3, #4
10002daa:	42a8      	cmp	r0, r5
10002dac:	d1f0      	bne.n	10002d90 <display_png+0x14>
10002dae:	bd70      	pop	{r4, r5, r6, pc}
10002db0:	1000eebc 	.word	0x1000eebc
10002db4:	200220b6 	.word	0x200220b6
10002db8:	00010a40 	.word	0x00010a40
10002dbc:	ffffc7c0 	.word	0xffffc7c0

10002dc0 <cross_sign>:
10002dc0:	b530      	push	{r4, r5, lr}
10002dc2:	4b0b      	ldr	r3, [pc, #44]	; (10002df0 <cross_sign+0x30>)
10002dc4:	4d0b      	ldr	r5, [pc, #44]	; (10002df4 <cross_sign+0x34>)
10002dc6:	469c      	mov	ip, r3
10002dc8:	0028      	movs	r0, r5
10002dca:	4c0b      	ldr	r4, [pc, #44]	; (10002df8 <cross_sign+0x38>)
10002dcc:	3078      	adds	r0, #120	; 0x78
10002dce:	4465      	add	r5, ip
10002dd0:	0003      	movs	r3, r0
10002dd2:	0022      	movs	r2, r4
10002dd4:	3b78      	subs	r3, #120	; 0x78
10002dd6:	cb02      	ldmia	r3!, {r1}
10002dd8:	8011      	strh	r1, [r2, #0]
10002dda:	3202      	adds	r2, #2
10002ddc:	4283      	cmp	r3, r0
10002dde:	d1fa      	bne.n	10002dd6 <cross_sign+0x16>
10002de0:	3ce1      	subs	r4, #225	; 0xe1
10002de2:	3378      	adds	r3, #120	; 0x78
10002de4:	0018      	movs	r0, r3
10002de6:	3cff      	subs	r4, #255	; 0xff
10002de8:	42ab      	cmp	r3, r5
10002dea:	d1f1      	bne.n	10002dd0 <cross_sign+0x10>
10002dec:	bd30      	pop	{r4, r5, pc}
10002dee:	46c0      	nop			; (mov r8, r8)
10002df0:	00000e88 	.word	0x00000e88
10002df4:	1000e08c 	.word	0x1000e08c
10002df8:	2000a970 	.word	0x2000a970

10002dfc <Interrup_callback>:
10002dfc:	b570      	push	{r4, r5, r6, lr}
10002dfe:	4b37      	ldr	r3, [pc, #220]	; (10002edc <Interrup_callback+0xe0>)
10002e00:	4c37      	ldr	r4, [pc, #220]	; (10002ee0 <Interrup_callback+0xe4>)
10002e02:	6a9b      	ldr	r3, [r3, #40]	; 0x28
10002e04:	6822      	ldr	r2, [r4, #0]
10002e06:	1a9b      	subs	r3, r3, r2
10002e08:	4a36      	ldr	r2, [pc, #216]	; (10002ee4 <Interrup_callback+0xe8>)
10002e0a:	4293      	cmp	r3, r2
10002e0c:	dd0a      	ble.n	10002e24 <Interrup_callback+0x28>
10002e0e:	2800      	cmp	r0, #0
10002e10:	d009      	beq.n	10002e26 <Interrup_callback+0x2a>
10002e12:	2801      	cmp	r0, #1
10002e14:	d025      	beq.n	10002e62 <Interrup_callback+0x66>
10002e16:	2802      	cmp	r0, #2
10002e18:	d014      	beq.n	10002e44 <Interrup_callback+0x48>
10002e1a:	2803      	cmp	r0, #3
10002e1c:	d02d      	beq.n	10002e7a <Interrup_callback+0x7e>
10002e1e:	4b2f      	ldr	r3, [pc, #188]	; (10002edc <Interrup_callback+0xe0>)
10002e20:	6a9b      	ldr	r3, [r3, #40]	; 0x28
10002e22:	6023      	str	r3, [r4, #0]
10002e24:	bd70      	pop	{r4, r5, r6, pc}
10002e26:	f7fe fe21 	bl	10001a6c <GPU_ClearFramebuffers>
10002e2a:	4b2f      	ldr	r3, [pc, #188]	; (10002ee8 <Interrup_callback+0xec>)
10002e2c:	781b      	ldrb	r3, [r3, #0]
10002e2e:	2b00      	cmp	r3, #0
10002e30:	d030      	beq.n	10002e94 <Interrup_callback+0x98>
10002e32:	f000 fe51 	bl	10003ad8 <clearPopup>
10002e36:	4b2d      	ldr	r3, [pc, #180]	; (10002eec <Interrup_callback+0xf0>)
10002e38:	781b      	ldrb	r3, [r3, #0]
10002e3a:	2b00      	cmp	r3, #0
10002e3c:	d139      	bne.n	10002eb2 <Interrup_callback+0xb6>
10002e3e:	f000 febb 	bl	10003bb8 <pg2>
10002e42:	e7ec      	b.n	10002e1e <Interrup_callback+0x22>
10002e44:	4b2a      	ldr	r3, [pc, #168]	; (10002ef0 <Interrup_callback+0xf4>)
10002e46:	6018      	str	r0, [r3, #0]
10002e48:	4b2a      	ldr	r3, [pc, #168]	; (10002ef4 <Interrup_callback+0xf8>)
10002e4a:	781b      	ldrb	r3, [r3, #0]
10002e4c:	2b01      	cmp	r3, #1
10002e4e:	d039      	beq.n	10002ec4 <Interrup_callback+0xc8>
10002e50:	2b00      	cmp	r3, #0
10002e52:	d1e4      	bne.n	10002e1e <Interrup_callback+0x22>
10002e54:	4b28      	ldr	r3, [pc, #160]	; (10002ef8 <Interrup_callback+0xfc>)
10002e56:	681a      	ldr	r2, [r3, #0]
10002e58:	2a03      	cmp	r2, #3
10002e5a:	d03c      	beq.n	10002ed6 <Interrup_callback+0xda>
10002e5c:	2203      	movs	r2, #3
10002e5e:	601a      	str	r2, [r3, #0]
10002e60:	e7dd      	b.n	10002e1e <Interrup_callback+0x22>
10002e62:	f7fe fe03 	bl	10001a6c <GPU_ClearFramebuffers>
10002e66:	4b20      	ldr	r3, [pc, #128]	; (10002ee8 <Interrup_callback+0xec>)
10002e68:	781b      	ldrb	r3, [r3, #0]
10002e6a:	2b00      	cmp	r3, #0
10002e6c:	d1e1      	bne.n	10002e32 <Interrup_callback+0x36>
10002e6e:	4d21      	ldr	r5, [pc, #132]	; (10002ef4 <Interrup_callback+0xf8>)
10002e70:	4b21      	ldr	r3, [pc, #132]	; (10002ef8 <Interrup_callback+0xfc>)
10002e72:	7828      	ldrb	r0, [r5, #0]
10002e74:	6819      	ldr	r1, [r3, #0]
10002e76:	3001      	adds	r0, #1
10002e78:	e011      	b.n	10002e9e <Interrup_callback+0xa2>
10002e7a:	4b1d      	ldr	r3, [pc, #116]	; (10002ef0 <Interrup_callback+0xf4>)
10002e7c:	4d1a      	ldr	r5, [pc, #104]	; (10002ee8 <Interrup_callback+0xec>)
10002e7e:	6018      	str	r0, [r3, #0]
10002e80:	782b      	ldrb	r3, [r5, #0]
10002e82:	2b00      	cmp	r3, #0
10002e84:	d118      	bne.n	10002eb8 <Interrup_callback+0xbc>
10002e86:	4d1b      	ldr	r5, [pc, #108]	; (10002ef4 <Interrup_callback+0xf8>)
10002e88:	782b      	ldrb	r3, [r5, #0]
10002e8a:	2b00      	cmp	r3, #0
10002e8c:	d120      	bne.n	10002ed0 <Interrup_callback+0xd4>
10002e8e:	2300      	movs	r3, #0
10002e90:	702b      	strb	r3, [r5, #0]
10002e92:	e7c4      	b.n	10002e1e <Interrup_callback+0x22>
10002e94:	4d17      	ldr	r5, [pc, #92]	; (10002ef4 <Interrup_callback+0xf8>)
10002e96:	4b18      	ldr	r3, [pc, #96]	; (10002ef8 <Interrup_callback+0xfc>)
10002e98:	7828      	ldrb	r0, [r5, #0]
10002e9a:	6819      	ldr	r1, [r3, #0]
10002e9c:	3801      	subs	r0, #1
10002e9e:	1840      	adds	r0, r0, r1
10002ea0:	f004 fa8e 	bl	100073c0 <__wrap___aeabi_idiv>
10002ea4:	4b15      	ldr	r3, [pc, #84]	; (10002efc <Interrup_callback+0x100>)
10002ea6:	2064      	movs	r0, #100	; 0x64
10002ea8:	5c5b      	ldrb	r3, [r3, r1]
10002eaa:	702b      	strb	r3, [r5, #0]
10002eac:	f002 f976 	bl	1000519c <busy_wait_ms>
10002eb0:	e7b5      	b.n	10002e1e <Interrup_callback+0x22>
10002eb2:	f000 fe23 	bl	10003afc <pg1>
10002eb6:	e7b2      	b.n	10002e1e <Interrup_callback+0x22>
10002eb8:	4811      	ldr	r0, [pc, #68]	; (10002f00 <Interrup_callback+0x104>)
10002eba:	f000 ff53 	bl	10003d64 <close_popup>
10002ebe:	2300      	movs	r3, #0
10002ec0:	702b      	strb	r3, [r5, #0]
10002ec2:	e7ac      	b.n	10002e1e <Interrup_callback+0x22>
10002ec4:	2101      	movs	r1, #1
10002ec6:	4a0f      	ldr	r2, [pc, #60]	; (10002f04 <Interrup_callback+0x108>)
10002ec8:	7813      	ldrb	r3, [r2, #0]
10002eca:	404b      	eors	r3, r1
10002ecc:	7013      	strb	r3, [r2, #0]
10002ece:	e7a6      	b.n	10002e1e <Interrup_callback+0x22>
10002ed0:	f7fe fdcc 	bl	10001a6c <GPU_ClearFramebuffers>
10002ed4:	e7db      	b.n	10002e8e <Interrup_callback+0x92>
10002ed6:	3201      	adds	r2, #1
10002ed8:	601a      	str	r2, [r3, #0]
10002eda:	e7a0      	b.n	10002e1e <Interrup_callback+0x22>
10002edc:	40054000 	.word	0x40054000
10002ee0:	20026b0c 	.word	0x20026b0c
10002ee4:	000f4240 	.word	0x000f4240
10002ee8:	20026b94 	.word	0x20026b94
10002eec:	20026b8e 	.word	0x20026b8e
10002ef0:	20026b34 	.word	0x20026b34
10002ef4:	20026b8f 	.word	0x20026b8f
10002ef8:	20000484 	.word	0x20000484
10002efc:	20000480 	.word	0x20000480
10002f00:	100126fc 	.word	0x100126fc
10002f04:	20026b93 	.word	0x20026b93

10002f08 <InterfaceSetup>:
10002f08:	b510      	push	{r4, lr}
10002f0a:	f002 f913 	bl	10005134 <time_us_64>
10002f0e:	f7fe fc67 	bl	100017e0 <ili9341_init_SPI>
10002f12:	f7fd fa07 	bl	10000324 <ili9341_init_display>
10002f16:	f7fe fc91 	bl	1000183c <ili9341_init_drawing>
10002f1a:	4b10      	ldr	r3, [pc, #64]	; (10002f5c <InterfaceSetup+0x54>)
10002f1c:	2201      	movs	r2, #1
10002f1e:	210c      	movs	r1, #12
10002f20:	2000      	movs	r0, #0
10002f22:	f001 f8a1 	bl	10004068 <gpio_set_irq_enabled_with_callback>
10002f26:	2201      	movs	r2, #1
10002f28:	210c      	movs	r1, #12
10002f2a:	2001      	movs	r0, #1
10002f2c:	f001 f872 	bl	10004014 <gpio_set_irq_enabled>
10002f30:	2201      	movs	r2, #1
10002f32:	210c      	movs	r1, #12
10002f34:	2002      	movs	r0, #2
10002f36:	f001 f86d 	bl	10004014 <gpio_set_irq_enabled>
10002f3a:	2201      	movs	r2, #1
10002f3c:	210c      	movs	r1, #12
10002f3e:	2004      	movs	r0, #4
10002f40:	f001 f868 	bl	10004014 <gpio_set_irq_enabled>
10002f44:	2201      	movs	r2, #1
10002f46:	210c      	movs	r1, #12
10002f48:	2005      	movs	r0, #5
10002f4a:	f001 f863 	bl	10004014 <gpio_set_irq_enabled>
10002f4e:	2201      	movs	r2, #1
10002f50:	210c      	movs	r1, #12
10002f52:	2003      	movs	r0, #3
10002f54:	f001 f85e 	bl	10004014 <gpio_set_irq_enabled>
10002f58:	bd10      	pop	{r4, pc}
10002f5a:	46c0      	nop			; (mov r8, r8)
10002f5c:	10002dfd 	.word	0x10002dfd

10002f60 <IF_GetCurrentTime>:
10002f60:	b510      	push	{r4, lr}
10002f62:	f002 f8e7 	bl	10005134 <time_us_64>
10002f66:	bd10      	pop	{r4, pc}

10002f68 <IF_DrawScreen>:
10002f68:	b510      	push	{r4, lr}
10002f6a:	f7fe fd6b 	bl	10001a44 <ili9341_write_buffer>
10002f6e:	bd10      	pop	{r4, pc}

10002f70 <Keyboard>:
10002f70:	2005      	movs	r0, #5
10002f72:	b510      	push	{r4, lr}
10002f74:	f002 f912 	bl	1000519c <busy_wait_ms>
10002f78:	23d0      	movs	r3, #208	; 0xd0
10002f7a:	061b      	lsls	r3, r3, #24
10002f7c:	685b      	ldr	r3, [r3, #4]
10002f7e:	069b      	lsls	r3, r3, #26
10002f80:	d50a      	bpl.n	10002f98 <Keyboard+0x28>
10002f82:	2101      	movs	r1, #1
10002f84:	4a0c      	ldr	r2, [pc, #48]	; (10002fb8 <Keyboard+0x48>)
10002f86:	7813      	ldrb	r3, [r2, #0]
10002f88:	404b      	eors	r3, r1
10002f8a:	b2db      	uxtb	r3, r3
10002f8c:	7013      	strb	r3, [r2, #0]
10002f8e:	2b00      	cmp	r3, #0
10002f90:	d10d      	bne.n	10002fae <Keyboard+0x3e>
10002f92:	2064      	movs	r0, #100	; 0x64
10002f94:	f002 f902 	bl	1000519c <busy_wait_ms>
10002f98:	23d0      	movs	r3, #208	; 0xd0
10002f9a:	061b      	lsls	r3, r3, #24
10002f9c:	685b      	ldr	r3, [r3, #4]
10002f9e:	06db      	lsls	r3, r3, #27
10002fa0:	d400      	bmi.n	10002fa4 <Keyboard+0x34>
10002fa2:	bd10      	pop	{r4, pc}
10002fa4:	2096      	movs	r0, #150	; 0x96
10002fa6:	0040      	lsls	r0, r0, #1
10002fa8:	f002 f8f8 	bl	1000519c <busy_wait_ms>
10002fac:	e7f9      	b.n	10002fa2 <Keyboard+0x32>
10002fae:	4803      	ldr	r0, [pc, #12]	; (10002fbc <Keyboard+0x4c>)
10002fb0:	f000 fe7a 	bl	10003ca8 <open_popup>
10002fb4:	e7ed      	b.n	10002f92 <Keyboard+0x22>
10002fb6:	46c0      	nop			; (mov r8, r8)
10002fb8:	20026b94 	.word	0x20026b94
10002fbc:	1001271c 	.word	0x1001271c

10002fc0 <DoMainLoop>:
10002fc0:	b5f0      	push	{r4, r5, r6, r7, lr}
10002fc2:	46de      	mov	lr, fp
10002fc4:	4657      	mov	r7, sl
10002fc6:	464e      	mov	r6, r9
10002fc8:	4645      	mov	r5, r8
10002fca:	b5e0      	push	{r5, r6, r7, lr}
10002fcc:	b085      	sub	sp, #20
10002fce:	f7ff ffc7 	bl	10002f60 <IF_GetCurrentTime>
10002fd2:	4f40      	ldr	r7, [pc, #256]	; (100030d4 <DoMainLoop+0x114>)
10002fd4:	6038      	str	r0, [r7, #0]
10002fd6:	f000 faaf 	bl	10003538 <distance_sensor_init>
10002fda:	f000 fbb9 	bl	10003750 <bar_init>
10002fde:	f000 fa15 	bl	1000340c <temp_sensor_init>
10002fe2:	f000 fb91 	bl	10003708 <simulation_init>
10002fe6:	f000 f8f5 	bl	100031d4 <distance_screen_init>
10002fea:	4b3b      	ldr	r3, [pc, #236]	; (100030d8 <DoMainLoop+0x118>)
10002fec:	4d3b      	ldr	r5, [pc, #236]	; (100030dc <DoMainLoop+0x11c>)
10002fee:	4699      	mov	r9, r3
10002ff0:	6a9b      	ldr	r3, [r3, #40]	; 0x28
10002ff2:	4e3b      	ldr	r6, [pc, #236]	; (100030e0 <DoMainLoop+0x120>)
10002ff4:	4698      	mov	r8, r3
10002ff6:	464b      	mov	r3, r9
10002ff8:	6a9a      	ldr	r2, [r3, #40]	; 0x28
10002ffa:	4b3a      	ldr	r3, [pc, #232]	; (100030e4 <DoMainLoop+0x124>)
10002ffc:	601a      	str	r2, [r3, #0]
10002ffe:	4b3a      	ldr	r3, [pc, #232]	; (100030e8 <DoMainLoop+0x128>)
10003000:	469b      	mov	fp, r3
10003002:	4b3a      	ldr	r3, [pc, #232]	; (100030ec <DoMainLoop+0x12c>)
10003004:	469a      	mov	sl, r3
10003006:	464b      	mov	r3, r9
10003008:	6a9c      	ldr	r4, [r3, #40]	; 0x28
1000300a:	f7ff ffb1 	bl	10002f70 <Keyboard>
1000300e:	682a      	ldr	r2, [r5, #0]
10003010:	683b      	ldr	r3, [r7, #0]
10003012:	4937      	ldr	r1, [pc, #220]	; (100030f0 <DoMainLoop+0x130>)
10003014:	1ad3      	subs	r3, r2, r3
10003016:	428b      	cmp	r3, r1
10003018:	d902      	bls.n	10003020 <DoMainLoop+0x60>
1000301a:	7833      	ldrb	r3, [r6, #0]
1000301c:	2b00      	cmp	r3, #0
1000301e:	d026      	beq.n	1000306e <DoMainLoop+0xae>
10003020:	f7ff ff9e 	bl	10002f60 <IF_GetCurrentTime>
10003024:	4643      	mov	r3, r8
10003026:	4a33      	ldr	r2, [pc, #204]	; (100030f4 <DoMainLoop+0x134>)
10003028:	6028      	str	r0, [r5, #0]
1000302a:	1ae3      	subs	r3, r4, r3
1000302c:	4293      	cmp	r3, r2
1000302e:	dd03      	ble.n	10003038 <DoMainLoop+0x78>
10003030:	4b31      	ldr	r3, [pc, #196]	; (100030f8 <DoMainLoop+0x138>)
10003032:	781b      	ldrb	r3, [r3, #0]
10003034:	2b00      	cmp	r3, #0
10003036:	d01e      	beq.n	10003076 <DoMainLoop+0xb6>
10003038:	4653      	mov	r3, sl
1000303a:	781b      	ldrb	r3, [r3, #0]
1000303c:	2b00      	cmp	r3, #0
1000303e:	d013      	beq.n	10003068 <DoMainLoop+0xa8>
10003040:	2b02      	cmp	r3, #2
10003042:	d038      	beq.n	100030b6 <DoMainLoop+0xf6>
10003044:	2b01      	cmp	r3, #1
10003046:	d03b      	beq.n	100030c0 <DoMainLoop+0x100>
10003048:	2b03      	cmp	r3, #3
1000304a:	d029      	beq.n	100030a0 <DoMainLoop+0xe0>
1000304c:	f7fe fd0e 	bl	10001a6c <GPU_ClearFramebuffers>
10003050:	7833      	ldrb	r3, [r6, #0]
10003052:	2b00      	cmp	r3, #0
10003054:	d0d7      	beq.n	10003006 <DoMainLoop+0x46>
10003056:	23a0      	movs	r3, #160	; 0xa0
10003058:	2219      	movs	r2, #25
1000305a:	9300      	str	r3, [sp, #0]
1000305c:	2128      	movs	r1, #40	; 0x28
1000305e:	2000      	movs	r0, #0
10003060:	336e      	adds	r3, #110	; 0x6e
10003062:	f7ff fb5d 	bl	10002720 <GPU_DrawFilledRectangle>
10003066:	e7ce      	b.n	10003006 <DoMainLoop+0x46>
10003068:	f000 f8b4 	bl	100031d4 <distance_screen_init>
1000306c:	e7f0      	b.n	10003050 <DoMainLoop+0x90>
1000306e:	603a      	str	r2, [r7, #0]
10003070:	f7fe fd06 	bl	10001a80 <GPU_Render>
10003074:	e7d4      	b.n	10003020 <DoMainLoop+0x60>
10003076:	f000 fa6f 	bl	10003558 <calc_distance>
1000307a:	f005 f8cb 	bl	10008214 <__wrap___aeabi_f2iz>
1000307e:	4b1f      	ldr	r3, [pc, #124]	; (100030fc <DoMainLoop+0x13c>)
10003080:	0001      	movs	r1, r0
10003082:	6018      	str	r0, [r3, #0]
10003084:	465b      	mov	r3, fp
10003086:	681b      	ldr	r3, [r3, #0]
10003088:	1c58      	adds	r0, r3, #1
1000308a:	280c      	cmp	r0, #12
1000308c:	dc1d      	bgt.n	100030ca <DoMainLoop+0x10a>
1000308e:	465b      	mov	r3, fp
10003090:	6018      	str	r0, [r3, #0]
10003092:	f000 fb43 	bl	1000371c <simulate>
10003096:	2082      	movs	r0, #130	; 0x82
10003098:	f002 f880 	bl	1000519c <busy_wait_ms>
1000309c:	46a0      	mov	r8, r4
1000309e:	e7cb      	b.n	10003038 <DoMainLoop+0x78>
100030a0:	f000 fb76 	bl	10003790 <brightness_screen_init>
100030a4:	f000 fc86 	bl	100039b4 <update_brightness>
100030a8:	4b15      	ldr	r3, [pc, #84]	; (10003100 <DoMainLoop+0x140>)
100030aa:	681b      	ldr	r3, [r3, #0]
100030ac:	0018      	movs	r0, r3
100030ae:	9303      	str	r3, [sp, #12]
100030b0:	f000 fba4 	bl	100037fc <increase_brightness>
100030b4:	e7cc      	b.n	10003050 <DoMainLoop+0x90>
100030b6:	f000 f9c7 	bl	10003448 <update_temperature>
100030ba:	f7ff fe5f 	bl	10002d7c <display_png>
100030be:	e7c7      	b.n	10003050 <DoMainLoop+0x90>
100030c0:	465b      	mov	r3, fp
100030c2:	6818      	ldr	r0, [r3, #0]
100030c4:	f000 fb3c 	bl	10003740 <display_simulation>
100030c8:	e7c2      	b.n	10003050 <DoMainLoop+0x90>
100030ca:	230d      	movs	r3, #13
100030cc:	465a      	mov	r2, fp
100030ce:	200d      	movs	r0, #13
100030d0:	6013      	str	r3, [r2, #0]
100030d2:	e7de      	b.n	10003092 <DoMainLoop+0xd2>
100030d4:	200263b4 	.word	0x200263b4
100030d8:	40054000 	.word	0x40054000
100030dc:	20026b18 	.word	0x20026b18
100030e0:	20026b94 	.word	0x20026b94
100030e4:	20026b0c 	.word	0x20026b0c
100030e8:	20000488 	.word	0x20000488
100030ec:	20026b8f 	.word	0x20026b8f
100030f0:	00008235 	.word	0x00008235
100030f4:	004c4b40 	.word	0x004c4b40
100030f8:	20026b93 	.word	0x20026b93
100030fc:	20026700 	.word	0x20026700
10003100:	20026660 	.word	0x20026660

10003104 <value_box>:
10003104:	2332      	movs	r3, #50	; 0x32
10003106:	b510      	push	{r4, lr}
10003108:	0004      	movs	r4, r0
1000310a:	b082      	sub	sp, #8
1000310c:	226e      	movs	r2, #110	; 0x6e
1000310e:	216e      	movs	r1, #110	; 0x6e
10003110:	9300      	str	r3, [sp, #0]
10003112:	2000      	movs	r0, #0
10003114:	333c      	adds	r3, #60	; 0x3c
10003116:	f7ff fb03 	bl	10002720 <GPU_DrawFilledRectangle>
1000311a:	0020      	movs	r0, r4
1000311c:	f008 f826 	bl	1000b16c <strlen>
10003120:	b280      	uxth	r0, r0
10003122:	9001      	str	r0, [sp, #4]
10003124:	2382      	movs	r3, #130	; 0x82
10003126:	2275      	movs	r2, #117	; 0x75
10003128:	4903      	ldr	r1, [pc, #12]	; (10003138 <value_box+0x34>)
1000312a:	4804      	ldr	r0, [pc, #16]	; (1000313c <value_box+0x38>)
1000312c:	9400      	str	r4, [sp, #0]
1000312e:	f7ff fa79 	bl	10002624 <GPU_DrawText>
10003132:	b002      	add	sp, #8
10003134:	bd10      	pop	{r4, pc}
10003136:	46c0      	nop			; (mov r8, r8)
10003138:	1000eeac 	.word	0x1000eeac
1000313c:	000007de 	.word	0x000007de

10003140 <bottomNavigation>:
10003140:	b5f0      	push	{r4, r5, r6, r7, lr}
10003142:	46c6      	mov	lr, r8
10003144:	260a      	movs	r6, #10
10003146:	b500      	push	{lr}
10003148:	b082      	sub	sp, #8
1000314a:	0004      	movs	r4, r0
1000314c:	2319      	movs	r3, #25
1000314e:	481d      	ldr	r0, [pc, #116]	; (100031c4 <bottomNavigation+0x84>)
10003150:	000f      	movs	r7, r1
10003152:	4690      	mov	r8, r2
10003154:	21ff      	movs	r1, #255	; 0xff
10003156:	22d7      	movs	r2, #215	; 0xd7
10003158:	9600      	str	r6, [sp, #0]
1000315a:	f7ff fae1 	bl	10002720 <GPU_DrawFilledRectangle>
1000315e:	2519      	movs	r5, #25
10003160:	218c      	movs	r1, #140	; 0x8c
10003162:	4b19      	ldr	r3, [pc, #100]	; (100031c8 <bottomNavigation+0x88>)
10003164:	22dc      	movs	r2, #220	; 0xdc
10003166:	4817      	ldr	r0, [pc, #92]	; (100031c4 <bottomNavigation+0x84>)
10003168:	9301      	str	r3, [sp, #4]
1000316a:	0049      	lsls	r1, r1, #1
1000316c:	2314      	movs	r3, #20
1000316e:	9500      	str	r5, [sp, #0]
10003170:	f7ff fb58 	bl	10002824 <DrawFilledTriangle>
10003174:	2319      	movs	r3, #25
10003176:	22d7      	movs	r2, #215	; 0xd7
10003178:	2128      	movs	r1, #40	; 0x28
1000317a:	4812      	ldr	r0, [pc, #72]	; (100031c4 <bottomNavigation+0x84>)
1000317c:	9600      	str	r6, [sp, #0]
1000317e:	f7ff facf 	bl	10002720 <GPU_DrawFilledRectangle>
10003182:	4b12      	ldr	r3, [pc, #72]	; (100031cc <bottomNavigation+0x8c>)
10003184:	22dc      	movs	r2, #220	; 0xdc
10003186:	9301      	str	r3, [sp, #4]
10003188:	2128      	movs	r1, #40	; 0x28
1000318a:	2314      	movs	r3, #20
1000318c:	480d      	ldr	r0, [pc, #52]	; (100031c4 <bottomNavigation+0x84>)
1000318e:	9500      	str	r5, [sp, #0]
10003190:	f7ff fb48 	bl	10002824 <DrawFilledTriangle>
10003194:	7823      	ldrb	r3, [r4, #0]
10003196:	2b00      	cmp	r3, #0
10003198:	d103      	bne.n	100031a2 <bottomNavigation+0x62>
1000319a:	b002      	add	sp, #8
1000319c:	bc80      	pop	{r7}
1000319e:	46b8      	mov	r8, r7
100031a0:	bdf0      	pop	{r4, r5, r6, r7, pc}
100031a2:	0020      	movs	r0, r4
100031a4:	f007 ffe2 	bl	1000b16c <strlen>
100031a8:	4643      	mov	r3, r8
100031aa:	4a09      	ldr	r2, [pc, #36]	; (100031d0 <bottomNavigation+0x90>)
100031ac:	00d9      	lsls	r1, r3, #3
100031ae:	b280      	uxth	r0, r0
100031b0:	1889      	adds	r1, r1, r2
100031b2:	9001      	str	r0, [sp, #4]
100031b4:	23dc      	movs	r3, #220	; 0xdc
100031b6:	224b      	movs	r2, #75	; 0x4b
100031b8:	0038      	movs	r0, r7
100031ba:	9400      	str	r4, [sp, #0]
100031bc:	f7ff fa32 	bl	10002624 <GPU_DrawText>
100031c0:	e7eb      	b.n	1000319a <bottomNavigation+0x5a>
100031c2:	46c0      	nop			; (mov r8, r8)
100031c4:	000007de 	.word	0x000007de
100031c8:	1000b278 	.word	0x1000b278
100031cc:	1000b280 	.word	0x1000b280
100031d0:	1000ee9c 	.word	0x1000ee9c

100031d4 <distance_screen_init>:
100031d4:	b570      	push	{r4, r5, r6, lr}
100031d6:	260a      	movs	r6, #10
100031d8:	4c1c      	ldr	r4, [pc, #112]	; (1000324c <distance_screen_init+0x78>)
100031da:	b082      	sub	sp, #8
100031dc:	0020      	movs	r0, r4
100031de:	2319      	movs	r3, #25
100031e0:	22d7      	movs	r2, #215	; 0xd7
100031e2:	21ff      	movs	r1, #255	; 0xff
100031e4:	9600      	str	r6, [sp, #0]
100031e6:	f7ff fa9b 	bl	10002720 <GPU_DrawFilledRectangle>
100031ea:	2519      	movs	r5, #25
100031ec:	218c      	movs	r1, #140	; 0x8c
100031ee:	4b18      	ldr	r3, [pc, #96]	; (10003250 <distance_screen_init+0x7c>)
100031f0:	0020      	movs	r0, r4
100031f2:	9301      	str	r3, [sp, #4]
100031f4:	22dc      	movs	r2, #220	; 0xdc
100031f6:	2314      	movs	r3, #20
100031f8:	9500      	str	r5, [sp, #0]
100031fa:	0049      	lsls	r1, r1, #1
100031fc:	f7ff fb12 	bl	10002824 <DrawFilledTriangle>
10003200:	0020      	movs	r0, r4
10003202:	2319      	movs	r3, #25
10003204:	22d7      	movs	r2, #215	; 0xd7
10003206:	2128      	movs	r1, #40	; 0x28
10003208:	9600      	str	r6, [sp, #0]
1000320a:	f7ff fa89 	bl	10002720 <GPU_DrawFilledRectangle>
1000320e:	4b11      	ldr	r3, [pc, #68]	; (10003254 <distance_screen_init+0x80>)
10003210:	0020      	movs	r0, r4
10003212:	9301      	str	r3, [sp, #4]
10003214:	22dc      	movs	r2, #220	; 0xdc
10003216:	2314      	movs	r3, #20
10003218:	2128      	movs	r1, #40	; 0x28
1000321a:	9500      	str	r5, [sp, #0]
1000321c:	f7ff fb02 	bl	10002824 <DrawFilledTriangle>
10003220:	23a0      	movs	r3, #160	; 0xa0
10003222:	2219      	movs	r2, #25
10003224:	9300      	str	r3, [sp, #0]
10003226:	2132      	movs	r1, #50	; 0x32
10003228:	480b      	ldr	r0, [pc, #44]	; (10003258 <distance_screen_init+0x84>)
1000322a:	333c      	adds	r3, #60	; 0x3c
1000322c:	f7ff fa78 	bl	10002720 <GPU_DrawFilledRectangle>
10003230:	2312      	movs	r3, #18
10003232:	9301      	str	r3, [sp, #4]
10003234:	4b09      	ldr	r3, [pc, #36]	; (1000325c <distance_screen_init+0x88>)
10003236:	2237      	movs	r2, #55	; 0x37
10003238:	2000      	movs	r0, #0
1000323a:	4909      	ldr	r1, [pc, #36]	; (10003260 <distance_screen_init+0x8c>)
1000323c:	9300      	str	r3, [sp, #0]
1000323e:	2355      	movs	r3, #85	; 0x55
10003240:	f7ff f9f0 	bl	10002624 <GPU_DrawText>
10003244:	f000 f9e2 	bl	1000360c <update_distance>
10003248:	b002      	add	sp, #8
1000324a:	bd70      	pop	{r4, r5, r6, pc}
1000324c:	000007de 	.word	0x000007de
10003250:	1000b278 	.word	0x1000b278
10003254:	1000b280 	.word	0x1000b280
10003258:	000007fa 	.word	0x000007fa
1000325c:	10012738 	.word	0x10012738
10003260:	1000eeac 	.word	0x1000eeac

10003264 <simulator_screen_init>:
10003264:	b5f0      	push	{r4, r5, r6, r7, lr}
10003266:	46de      	mov	lr, fp
10003268:	464e      	mov	r6, r9
1000326a:	4645      	mov	r5, r8
1000326c:	4657      	mov	r7, sl
1000326e:	b5e0      	push	{r5, r6, r7, lr}
10003270:	468b      	mov	fp, r1
10003272:	b083      	sub	sp, #12
10003274:	2201      	movs	r2, #1
10003276:	495a      	ldr	r1, [pc, #360]	; (100033e0 <simulator_screen_init+0x17c>)
10003278:	4680      	mov	r8, r0
1000327a:	485a      	ldr	r0, [pc, #360]	; (100033e4 <simulator_screen_init+0x180>)
1000327c:	f7ff ff60 	bl	10003140 <bottomNavigation>
10003280:	2303      	movs	r3, #3
10003282:	9300      	str	r3, [sp, #0]
10003284:	2340      	movs	r3, #64	; 0x40
10003286:	22cd      	movs	r2, #205	; 0xcd
10003288:	33ff      	adds	r3, #255	; 0xff
1000328a:	2100      	movs	r1, #0
1000328c:	4856      	ldr	r0, [pc, #344]	; (100033e8 <simulator_screen_init+0x184>)
1000328e:	f7ff fa47 	bl	10002720 <GPU_DrawFilledRectangle>
10003292:	465b      	mov	r3, fp
10003294:	46d9      	mov	r9, fp
10003296:	2b0c      	cmp	r3, #12
10003298:	dd01      	ble.n	1000329e <simulator_screen_init+0x3a>
1000329a:	230c      	movs	r3, #12
1000329c:	4699      	mov	r9, r3
1000329e:	4b53      	ldr	r3, [pc, #332]	; (100033ec <simulator_screen_init+0x188>)
100032a0:	2514      	movs	r5, #20
100032a2:	2600      	movs	r6, #0
100032a4:	469a      	mov	sl, r3
100032a6:	e01f      	b.n	100032e8 <simulator_screen_init+0x84>
100032a8:	2b31      	cmp	r3, #49	; 0x31
100032aa:	dc3c      	bgt.n	10003326 <simulator_screen_init+0xc2>
100032ac:	b22f      	sxth	r7, r5
100032ae:	23c8      	movs	r3, #200	; 0xc8
100032b0:	22ce      	movs	r2, #206	; 0xce
100032b2:	9300      	str	r3, [sp, #0]
100032b4:	0039      	movs	r1, r7
100032b6:	003b      	movs	r3, r7
100032b8:	484d      	ldr	r0, [pc, #308]	; (100033f0 <simulator_screen_init+0x18c>)
100032ba:	f7ff f91d 	bl	100024f8 <GPU_DrawLine>
100032be:	45b1      	cmp	r9, r6
100032c0:	d002      	beq.n	100032c8 <simulator_screen_init+0x64>
100032c2:	465b      	mov	r3, fp
100032c4:	2b0b      	cmp	r3, #11
100032c6:	dd09      	ble.n	100032dc <simulator_screen_init+0x78>
100032c8:	23cd      	movs	r3, #205	; 0xcd
100032ca:	1b1c      	subs	r4, r3, r4
100032cc:	b224      	sxth	r4, r4
100032ce:	003b      	movs	r3, r7
100032d0:	22cd      	movs	r2, #205	; 0xcd
100032d2:	0039      	movs	r1, r7
100032d4:	20f8      	movs	r0, #248	; 0xf8
100032d6:	9400      	str	r4, [sp, #0]
100032d8:	f7ff f90e 	bl	100024f8 <GPU_DrawLine>
100032dc:	23a0      	movs	r3, #160	; 0xa0
100032de:	3519      	adds	r5, #25
100032e0:	3601      	adds	r6, #1
100032e2:	005b      	lsls	r3, r3, #1
100032e4:	429d      	cmp	r5, r3
100032e6:	d03b      	beq.n	10003360 <simulator_screen_init+0xfc>
100032e8:	4642      	mov	r2, r8
100032ea:	00b3      	lsls	r3, r6, #2
100032ec:	58d3      	ldr	r3, [r2, r3]
100032ee:	b21a      	sxth	r2, r3
100032f0:	1c1c      	adds	r4, r3, #0
100032f2:	2ab4      	cmp	r2, #180	; 0xb4
100032f4:	dd00      	ble.n	100032f8 <simulator_screen_init+0x94>
100032f6:	24b4      	movs	r4, #180	; 0xb4
100032f8:	b224      	sxth	r4, r4
100032fa:	2b31      	cmp	r3, #49	; 0x31
100032fc:	d8d4      	bhi.n	100032a8 <simulator_screen_init+0x44>
100032fe:	4b3b      	ldr	r3, [pc, #236]	; (100033ec <simulator_screen_init+0x188>)
10003300:	1fef      	subs	r7, r5, #7
10003302:	8818      	ldrh	r0, [r3, #0]
10003304:	23c8      	movs	r3, #200	; 0xc8
10003306:	b23f      	sxth	r7, r7
10003308:	0039      	movs	r1, r7
1000330a:	22cd      	movs	r2, #205	; 0xcd
1000330c:	9300      	str	r3, [sp, #0]
1000330e:	3bb8      	subs	r3, #184	; 0xb8
10003310:	f7ff fa46 	bl	100027a0 <DrawVerticalRectangle>
10003314:	0039      	movs	r1, r7
10003316:	230e      	movs	r3, #14
10003318:	22cd      	movs	r2, #205	; 0xcd
1000331a:	4831      	ldr	r0, [pc, #196]	; (100033e0 <simulator_screen_init+0x17c>)
1000331c:	9400      	str	r4, [sp, #0]
1000331e:	f7ff fa3f 	bl	100027a0 <DrawVerticalRectangle>
10003322:	b22f      	sxth	r7, r5
10003324:	e7c3      	b.n	100032ae <simulator_screen_init+0x4a>
10003326:	4653      	mov	r3, sl
10003328:	8818      	ldrh	r0, [r3, #0]
1000332a:	23c8      	movs	r3, #200	; 0xc8
1000332c:	1fef      	subs	r7, r5, #7
1000332e:	b23f      	sxth	r7, r7
10003330:	0039      	movs	r1, r7
10003332:	9300      	str	r3, [sp, #0]
10003334:	22cd      	movs	r2, #205	; 0xcd
10003336:	3bb8      	subs	r3, #184	; 0xb8
10003338:	f7ff fa32 	bl	100027a0 <DrawVerticalRectangle>
1000333c:	20f8      	movs	r0, #248	; 0xf8
1000333e:	0039      	movs	r1, r7
10003340:	230e      	movs	r3, #14
10003342:	22cd      	movs	r2, #205	; 0xcd
10003344:	9400      	str	r4, [sp, #0]
10003346:	0140      	lsls	r0, r0, #5
10003348:	f7ff fa2a 	bl	100027a0 <DrawVerticalRectangle>
1000334c:	22c4      	movs	r2, #196	; 0xc4
1000334e:	b22f      	sxth	r7, r5
10003350:	1b12      	subs	r2, r2, r4
10003352:	2305      	movs	r3, #5
10003354:	0039      	movs	r1, r7
10003356:	20f8      	movs	r0, #248	; 0xf8
10003358:	b212      	sxth	r2, r2
1000335a:	f7ff fbff 	bl	10002b5c <GPU_DrawFilledCircle>
1000335e:	e7a6      	b.n	100032ae <simulator_screen_init+0x4a>
10003360:	3b3f      	subs	r3, #63	; 0x3f
10003362:	3bff      	subs	r3, #255	; 0xff
10003364:	4923      	ldr	r1, [pc, #140]	; (100033f4 <simulator_screen_init+0x190>)
10003366:	9301      	str	r3, [sp, #4]
10003368:	4b23      	ldr	r3, [pc, #140]	; (100033f8 <simulator_screen_init+0x194>)
1000336a:	7b0a      	ldrb	r2, [r1, #12]
1000336c:	20f8      	movs	r0, #248	; 0xf8
1000336e:	3108      	adds	r1, #8
10003370:	9300      	str	r3, [sp, #0]
10003372:	2300      	movs	r3, #0
10003374:	f7ff f956 	bl	10002624 <GPU_DrawText>
10003378:	23b4      	movs	r3, #180	; 0xb4
1000337a:	22cc      	movs	r2, #204	; 0xcc
1000337c:	9300      	str	r3, [sp, #0]
1000337e:	2100      	movs	r1, #0
10003380:	481e      	ldr	r0, [pc, #120]	; (100033fc <simulator_screen_init+0x198>)
10003382:	3bac      	subs	r3, #172	; 0xac
10003384:	f7ff fa0c 	bl	100027a0 <DrawVerticalRectangle>
10003388:	25cd      	movs	r5, #205	; 0xcd
1000338a:	2400      	movs	r4, #0
1000338c:	2601      	movs	r6, #1
1000338e:	b22a      	sxth	r2, r5
10003390:	3401      	adds	r4, #1
10003392:	2307      	movs	r3, #7
10003394:	9200      	str	r2, [sp, #0]
10003396:	4226      	tst	r6, r4
10003398:	d000      	beq.n	1000339c <simulator_screen_init+0x138>
1000339a:	230b      	movs	r3, #11
1000339c:	2108      	movs	r1, #8
1000339e:	4818      	ldr	r0, [pc, #96]	; (10003400 <simulator_screen_init+0x19c>)
100033a0:	f7ff f8aa 	bl	100024f8 <GPU_DrawLine>
100033a4:	3d05      	subs	r5, #5
100033a6:	2c24      	cmp	r4, #36	; 0x24
100033a8:	d1f1      	bne.n	1000338e <simulator_screen_init+0x12a>
100033aa:	4b16      	ldr	r3, [pc, #88]	; (10003404 <simulator_screen_init+0x1a0>)
100033ac:	2112      	movs	r1, #18
100033ae:	2200      	movs	r2, #0
100033b0:	5e9a      	ldrsh	r2, [r3, r2]
100033b2:	23a0      	movs	r3, #160	; 0xa0
100033b4:	9200      	str	r2, [sp, #0]
100033b6:	20f8      	movs	r0, #248	; 0xf8
100033b8:	005b      	lsls	r3, r3, #1
100033ba:	f7ff f89d 	bl	100024f8 <GPU_DrawLine>
100033be:	4b12      	ldr	r3, [pc, #72]	; (10003408 <simulator_screen_init+0x1a4>)
100033c0:	2112      	movs	r1, #18
100033c2:	2200      	movs	r2, #0
100033c4:	5e9a      	ldrsh	r2, [r3, r2]
100033c6:	23a0      	movs	r3, #160	; 0xa0
100033c8:	20f8      	movs	r0, #248	; 0xf8
100033ca:	9200      	str	r2, [sp, #0]
100033cc:	005b      	lsls	r3, r3, #1
100033ce:	f7ff f893 	bl	100024f8 <GPU_DrawLine>
100033d2:	b003      	add	sp, #12
100033d4:	bcf0      	pop	{r4, r5, r6, r7}
100033d6:	46bb      	mov	fp, r7
100033d8:	46b2      	mov	sl, r6
100033da:	46a9      	mov	r9, r5
100033dc:	46a0      	mov	r8, r4
100033de:	bdf0      	pop	{r4, r5, r6, r7, pc}
100033e0:	00000707 	.word	0x00000707
100033e4:	1001274c 	.word	0x1001274c
100033e8:	00001fe6 	.word	0x00001fe6
100033ec:	20026b88 	.word	0x20026b88
100033f0:	00001bff 	.word	0x00001bff
100033f4:	1000ee9c 	.word	0x1000ee9c
100033f8:	10012764 	.word	0x10012764
100033fc:	00001eae 	.word	0x00001eae
10003400:	000007de 	.word	0x000007de
10003404:	2000048c 	.word	0x2000048c
10003408:	20000490 	.word	0x20000490

1000340c <temp_sensor_init>:
1000340c:	b510      	push	{r4, lr}
1000340e:	211f      	movs	r1, #31
10003410:	201b      	movs	r0, #27
10003412:	f000 fdcf 	bl	10003fb4 <gpio_set_function>
10003416:	2200      	movs	r2, #0
10003418:	2100      	movs	r1, #0
1000341a:	201b      	movs	r0, #27
1000341c:	f000 fde2 	bl	10003fe4 <gpio_set_pulls>
10003420:	2100      	movs	r1, #0
10003422:	201b      	movs	r0, #27
10003424:	f000 fe78 	bl	10004118 <gpio_set_input_enabled>
10003428:	4b05      	ldr	r3, [pc, #20]	; (10003440 <temp_sensor_init+0x34>)
1000342a:	681a      	ldr	r2, [r3, #0]
1000342c:	2380      	movs	r3, #128	; 0x80
1000342e:	015b      	lsls	r3, r3, #5
10003430:	4053      	eors	r3, r2
10003432:	22e0      	movs	r2, #224	; 0xe0
10003434:	01d2      	lsls	r2, r2, #7
10003436:	4013      	ands	r3, r2
10003438:	4a02      	ldr	r2, [pc, #8]	; (10003444 <temp_sensor_init+0x38>)
1000343a:	6013      	str	r3, [r2, #0]
1000343c:	bd10      	pop	{r4, pc}
1000343e:	46c0      	nop			; (mov r8, r8)
10003440:	4004c000 	.word	0x4004c000
10003444:	4004d000 	.word	0x4004d000

10003448 <update_temperature>:
10003448:	b530      	push	{r4, r5, lr}
1000344a:	2202      	movs	r2, #2
1000344c:	492d      	ldr	r1, [pc, #180]	; (10003504 <update_temperature+0xbc>)
1000344e:	482e      	ldr	r0, [pc, #184]	; (10003508 <update_temperature+0xc0>)
10003450:	b089      	sub	sp, #36	; 0x24
10003452:	f7ff fe75 	bl	10003140 <bottomNavigation>
10003456:	2380      	movs	r3, #128	; 0x80
10003458:	4a2c      	ldr	r2, [pc, #176]	; (1000350c <update_temperature+0xc4>)
1000345a:	015b      	lsls	r3, r3, #5
1000345c:	6811      	ldr	r1, [r2, #0]
1000345e:	404b      	eors	r3, r1
10003460:	21e0      	movs	r1, #224	; 0xe0
10003462:	01c9      	lsls	r1, r1, #7
10003464:	400b      	ands	r3, r1
10003466:	492a      	ldr	r1, [pc, #168]	; (10003510 <update_temperature+0xc8>)
10003468:	600b      	str	r3, [r1, #0]
1000346a:	2104      	movs	r1, #4
1000346c:	4b29      	ldr	r3, [pc, #164]	; (10003514 <update_temperature+0xcc>)
1000346e:	6019      	str	r1, [r3, #0]
10003470:	31fc      	adds	r1, #252	; 0xfc
10003472:	6813      	ldr	r3, [r2, #0]
10003474:	420b      	tst	r3, r1
10003476:	d0fc      	beq.n	10003472 <update_temperature+0x2a>
10003478:	6850      	ldr	r0, [r2, #4]
1000347a:	ac03      	add	r4, sp, #12
1000347c:	0400      	lsls	r0, r0, #16
1000347e:	0c00      	lsrs	r0, r0, #16
10003480:	f004 faaa 	bl	100079d8 <__wrap___aeabi_i2d>
10003484:	4a24      	ldr	r2, [pc, #144]	; (10003518 <update_temperature+0xd0>)
10003486:	4b25      	ldr	r3, [pc, #148]	; (1000351c <update_temperature+0xd4>)
10003488:	f004 fa35 	bl	100078f6 <__wrap___aeabi_dmul>
1000348c:	2200      	movs	r2, #0
1000348e:	4b24      	ldr	r3, [pc, #144]	; (10003520 <update_temperature+0xd8>)
10003490:	f004 fa31 	bl	100078f6 <__wrap___aeabi_dmul>
10003494:	f004 fae8 	bl	10007a68 <__wrap___aeabi_d2f>
10003498:	f004 fef4 	bl	10008284 <__wrap___aeabi_f2d>
1000349c:	4b21      	ldr	r3, [pc, #132]	; (10003524 <update_temperature+0xdc>)
1000349e:	4a22      	ldr	r2, [pc, #136]	; (10003528 <update_temperature+0xe0>)
100034a0:	f004 fa0b 	bl	100078ba <__wrap___aeabi_ddiv>
100034a4:	f004 fae0 	bl	10007a68 <__wrap___aeabi_d2f>
100034a8:	4920      	ldr	r1, [pc, #128]	; (1000352c <update_temperature+0xe4>)
100034aa:	f004 fe48 	bl	1000813e <__wrap___aeabi_fmul>
100034ae:	f004 ff25 	bl	100082fc <__wrap_roundf>
100034b2:	2100      	movs	r1, #0
100034b4:	1c05      	adds	r5, r0, #0
100034b6:	200a      	movs	r0, #10
100034b8:	f001 fd36 	bl	10004f28 <sleep_us>
100034bc:	491b      	ldr	r1, [pc, #108]	; (1000352c <update_temperature+0xe4>)
100034be:	1c28      	adds	r0, r5, #0
100034c0:	f004 fe29 	bl	10008116 <__wrap___aeabi_fdiv>
100034c4:	f004 fede 	bl	10008284 <__wrap___aeabi_f2d>
100034c8:	4a19      	ldr	r2, [pc, #100]	; (10003530 <update_temperature+0xe8>)
100034ca:	9000      	str	r0, [sp, #0]
100034cc:	9101      	str	r1, [sp, #4]
100034ce:	2114      	movs	r1, #20
100034d0:	0020      	movs	r0, r4
100034d2:	f003 ff0f 	bl	100072f4 <__wrap_snprintf>
100034d6:	233c      	movs	r3, #60	; 0x3c
100034d8:	2232      	movs	r2, #50	; 0x32
100034da:	2178      	movs	r1, #120	; 0x78
100034dc:	9300      	str	r3, [sp, #0]
100034de:	2000      	movs	r0, #0
100034e0:	3328      	adds	r3, #40	; 0x28
100034e2:	f7ff f91d 	bl	10002720 <GPU_DrawFilledRectangle>
100034e6:	0020      	movs	r0, r4
100034e8:	f007 fe40 	bl	1000b16c <strlen>
100034ec:	b280      	uxth	r0, r0
100034ee:	9001      	str	r0, [sp, #4]
100034f0:	234b      	movs	r3, #75	; 0x4b
100034f2:	2278      	movs	r2, #120	; 0x78
100034f4:	490f      	ldr	r1, [pc, #60]	; (10003534 <update_temperature+0xec>)
100034f6:	4803      	ldr	r0, [pc, #12]	; (10003504 <update_temperature+0xbc>)
100034f8:	9400      	str	r4, [sp, #0]
100034fa:	f7ff f893 	bl	10002624 <GPU_DrawText>
100034fe:	b009      	add	sp, #36	; 0x24
10003500:	bd30      	pop	{r4, r5, pc}
10003502:	46c0      	nop			; (mov r8, r8)
10003504:	000007de 	.word	0x000007de
10003508:	10012918 	.word	0x10012918
1000350c:	4004c000 	.word	0x4004c000
10003510:	4004d000 	.word	0x4004d000
10003514:	4004e000 	.word	0x4004e000
10003518:	66666666 	.word	0x66666666
1000351c:	400a6666 	.word	0x400a6666
10003520:	3f500000 	.word	0x3f500000
10003524:	3f847ae1 	.word	0x3f847ae1
10003528:	47ae147b 	.word	0x47ae147b
1000352c:	41200000 	.word	0x41200000
10003530:	10012768 	.word	0x10012768
10003534:	1000eeac 	.word	0x1000eeac

10003538 <distance_sensor_init>:
10003538:	b510      	push	{r4, lr}
1000353a:	2015      	movs	r0, #21
1000353c:	f000 fe00 	bl	10004140 <gpio_init>
10003540:	24d0      	movs	r4, #208	; 0xd0
10003542:	2380      	movs	r3, #128	; 0x80
10003544:	0624      	lsls	r4, r4, #24
10003546:	039b      	lsls	r3, r3, #14
10003548:	62a3      	str	r3, [r4, #40]	; 0x28
1000354a:	2016      	movs	r0, #22
1000354c:	f000 fdf8 	bl	10004140 <gpio_init>
10003550:	2380      	movs	r3, #128	; 0x80
10003552:	03db      	lsls	r3, r3, #15
10003554:	6263      	str	r3, [r4, #36]	; 0x24
10003556:	bd10      	pop	{r4, pc}

10003558 <calc_distance>:
10003558:	b5f8      	push	{r3, r4, r5, r6, r7, lr}
1000355a:	24d0      	movs	r4, #208	; 0xd0
1000355c:	2780      	movs	r7, #128	; 0x80
1000355e:	0624      	lsls	r4, r4, #24
10003560:	03ff      	lsls	r7, r7, #15
10003562:	2014      	movs	r0, #20
10003564:	2100      	movs	r1, #0
10003566:	6167      	str	r7, [r4, #20]
10003568:	f001 fdee 	bl	10005148 <busy_wait_us>
1000356c:	4a1d      	ldr	r2, [pc, #116]	; (100035e4 <calc_distance+0x8c>)
1000356e:	61a7      	str	r7, [r4, #24]
10003570:	6a93      	ldr	r3, [r2, #40]	; 0x28
10003572:	6863      	ldr	r3, [r4, #4]
10003574:	029b      	lsls	r3, r3, #10
10003576:	d405      	bmi.n	10003584 <calc_distance+0x2c>
10003578:	2101      	movs	r1, #1
1000357a:	6a96      	ldr	r6, [r2, #40]	; 0x28
1000357c:	6863      	ldr	r3, [r4, #4]
1000357e:	0d5b      	lsrs	r3, r3, #21
10003580:	4219      	tst	r1, r3
10003582:	d0fa      	beq.n	1000357a <calc_distance+0x22>
10003584:	22d0      	movs	r2, #208	; 0xd0
10003586:	0612      	lsls	r2, r2, #24
10003588:	6853      	ldr	r3, [r2, #4]
1000358a:	029b      	lsls	r3, r3, #10
1000358c:	d506      	bpl.n	1000359c <calc_distance+0x44>
1000358e:	2101      	movs	r1, #1
10003590:	4814      	ldr	r0, [pc, #80]	; (100035e4 <calc_distance+0x8c>)
10003592:	6a85      	ldr	r5, [r0, #40]	; 0x28
10003594:	6853      	ldr	r3, [r2, #4]
10003596:	0d5b      	lsrs	r3, r3, #21
10003598:	4219      	tst	r1, r3
1000359a:	d1fa      	bne.n	10003592 <calc_distance+0x3a>
1000359c:	4b12      	ldr	r3, [pc, #72]	; (100035e8 <calc_distance+0x90>)
1000359e:	4a13      	ldr	r2, [pc, #76]	; (100035ec <calc_distance+0x94>)
100035a0:	1ba8      	subs	r0, r5, r6
100035a2:	601a      	str	r2, [r3, #0]
100035a4:	4b12      	ldr	r3, [pc, #72]	; (100035f0 <calc_distance+0x98>)
100035a6:	4a13      	ldr	r2, [pc, #76]	; (100035f4 <calc_distance+0x9c>)
100035a8:	601a      	str	r2, [r3, #0]
100035aa:	f004 fe0c 	bl	100081c6 <__wrap___aeabi_ui2f>
100035ae:	f004 fe69 	bl	10008284 <__wrap___aeabi_f2d>
100035b2:	4a11      	ldr	r2, [pc, #68]	; (100035f8 <calc_distance+0xa0>)
100035b4:	4b11      	ldr	r3, [pc, #68]	; (100035fc <calc_distance+0xa4>)
100035b6:	f004 f99e 	bl	100078f6 <__wrap___aeabi_dmul>
100035ba:	22a0      	movs	r2, #160	; 0xa0
100035bc:	4b10      	ldr	r3, [pc, #64]	; (10003600 <calc_distance+0xa8>)
100035be:	0612      	lsls	r2, r2, #24
100035c0:	f004 f999 	bl	100078f6 <__wrap___aeabi_dmul>
100035c4:	2200      	movs	r2, #0
100035c6:	4b0f      	ldr	r3, [pc, #60]	; (10003604 <calc_distance+0xac>)
100035c8:	f004 f995 	bl	100078f6 <__wrap___aeabi_dmul>
100035cc:	f004 fa4c 	bl	10007a68 <__wrap___aeabi_d2f>
100035d0:	490d      	ldr	r1, [pc, #52]	; (10003608 <calc_distance+0xb0>)
100035d2:	f004 fdb4 	bl	1000813e <__wrap___aeabi_fmul>
100035d6:	f004 fe91 	bl	100082fc <__wrap_roundf>
100035da:	490b      	ldr	r1, [pc, #44]	; (10003608 <calc_distance+0xb0>)
100035dc:	f004 fd9b 	bl	10008116 <__wrap___aeabi_fdiv>
100035e0:	bdf8      	pop	{r3, r4, r5, r6, r7, pc}
100035e2:	46c0      	nop			; (mov r8, r8)
100035e4:	40054000 	.word	0x40054000
100035e8:	20026b68 	.word	0x20026b68
100035ec:	41f00000 	.word	0x41f00000
100035f0:	20026b84 	.word	0x20026b84
100035f4:	43ae827d 	.word	0x43ae827d
100035f8:	eb1c432d 	.word	0xeb1c432d
100035fc:	3f1a36e2 	.word	0x3f1a36e2
10003600:	4075d04f 	.word	0x4075d04f
10003604:	3fe00000 	.word	0x3fe00000
10003608:	42c80000 	.word	0x42c80000

1000360c <update_distance>:
1000360c:	b5f0      	push	{r4, r5, r6, r7, lr}
1000360e:	24d0      	movs	r4, #208	; 0xd0
10003610:	2780      	movs	r7, #128	; 0x80
10003612:	0624      	lsls	r4, r4, #24
10003614:	03ff      	lsls	r7, r7, #15
10003616:	2014      	movs	r0, #20
10003618:	2100      	movs	r1, #0
1000361a:	b087      	sub	sp, #28
1000361c:	6167      	str	r7, [r4, #20]
1000361e:	f001 fd93 	bl	10005148 <busy_wait_us>
10003622:	4a2c      	ldr	r2, [pc, #176]	; (100036d4 <update_distance+0xc8>)
10003624:	61a7      	str	r7, [r4, #24]
10003626:	6a93      	ldr	r3, [r2, #40]	; 0x28
10003628:	6863      	ldr	r3, [r4, #4]
1000362a:	029b      	lsls	r3, r3, #10
1000362c:	d405      	bmi.n	1000363a <update_distance+0x2e>
1000362e:	2101      	movs	r1, #1
10003630:	6a96      	ldr	r6, [r2, #40]	; 0x28
10003632:	6863      	ldr	r3, [r4, #4]
10003634:	0d5b      	lsrs	r3, r3, #21
10003636:	4219      	tst	r1, r3
10003638:	d0fa      	beq.n	10003630 <update_distance+0x24>
1000363a:	22d0      	movs	r2, #208	; 0xd0
1000363c:	0612      	lsls	r2, r2, #24
1000363e:	6853      	ldr	r3, [r2, #4]
10003640:	029b      	lsls	r3, r3, #10
10003642:	d506      	bpl.n	10003652 <update_distance+0x46>
10003644:	2101      	movs	r1, #1
10003646:	4823      	ldr	r0, [pc, #140]	; (100036d4 <update_distance+0xc8>)
10003648:	6a85      	ldr	r5, [r0, #40]	; 0x28
1000364a:	6853      	ldr	r3, [r2, #4]
1000364c:	0d5b      	lsrs	r3, r3, #21
1000364e:	4219      	tst	r1, r3
10003650:	d1fa      	bne.n	10003648 <update_distance+0x3c>
10003652:	4b21      	ldr	r3, [pc, #132]	; (100036d8 <update_distance+0xcc>)
10003654:	4a21      	ldr	r2, [pc, #132]	; (100036dc <update_distance+0xd0>)
10003656:	1ba8      	subs	r0, r5, r6
10003658:	601a      	str	r2, [r3, #0]
1000365a:	4b21      	ldr	r3, [pc, #132]	; (100036e0 <update_distance+0xd4>)
1000365c:	4a21      	ldr	r2, [pc, #132]	; (100036e4 <update_distance+0xd8>)
1000365e:	ad02      	add	r5, sp, #8
10003660:	601a      	str	r2, [r3, #0]
10003662:	f004 fdb0 	bl	100081c6 <__wrap___aeabi_ui2f>
10003666:	f004 fe0d 	bl	10008284 <__wrap___aeabi_f2d>
1000366a:	4a1f      	ldr	r2, [pc, #124]	; (100036e8 <update_distance+0xdc>)
1000366c:	4b1f      	ldr	r3, [pc, #124]	; (100036ec <update_distance+0xe0>)
1000366e:	f004 f942 	bl	100078f6 <__wrap___aeabi_dmul>
10003672:	22a0      	movs	r2, #160	; 0xa0
10003674:	4b1e      	ldr	r3, [pc, #120]	; (100036f0 <update_distance+0xe4>)
10003676:	0612      	lsls	r2, r2, #24
10003678:	f004 f93d 	bl	100078f6 <__wrap___aeabi_dmul>
1000367c:	2200      	movs	r2, #0
1000367e:	4b1d      	ldr	r3, [pc, #116]	; (100036f4 <update_distance+0xe8>)
10003680:	f004 f939 	bl	100078f6 <__wrap___aeabi_dmul>
10003684:	f004 f9f0 	bl	10007a68 <__wrap___aeabi_d2f>
10003688:	491b      	ldr	r1, [pc, #108]	; (100036f8 <update_distance+0xec>)
1000368a:	f004 fd58 	bl	1000813e <__wrap___aeabi_fmul>
1000368e:	f004 fe35 	bl	100082fc <__wrap_roundf>
10003692:	4919      	ldr	r1, [pc, #100]	; (100036f8 <update_distance+0xec>)
10003694:	f004 fd3f 	bl	10008116 <__wrap___aeabi_fdiv>
10003698:	4918      	ldr	r1, [pc, #96]	; (100036fc <update_distance+0xf0>)
1000369a:	1c04      	adds	r4, r0, #0
1000369c:	f004 fd8e 	bl	100081bc <__wrap___aeabi_fcmpgt>
100036a0:	2800      	cmp	r0, #0
100036a2:	d00b      	beq.n	100036bc <update_distance+0xb0>
100036a4:	23c8      	movs	r3, #200	; 0xc8
100036a6:	210f      	movs	r1, #15
100036a8:	0028      	movs	r0, r5
100036aa:	4a15      	ldr	r2, [pc, #84]	; (10003700 <update_distance+0xf4>)
100036ac:	005b      	lsls	r3, r3, #1
100036ae:	f003 fe21 	bl	100072f4 <__wrap_snprintf>
100036b2:	0028      	movs	r0, r5
100036b4:	f7ff fd26 	bl	10003104 <value_box>
100036b8:	b007      	add	sp, #28
100036ba:	bdf0      	pop	{r4, r5, r6, r7, pc}
100036bc:	1c20      	adds	r0, r4, #0
100036be:	f004 fde1 	bl	10008284 <__wrap___aeabi_f2d>
100036c2:	4a10      	ldr	r2, [pc, #64]	; (10003704 <update_distance+0xf8>)
100036c4:	9000      	str	r0, [sp, #0]
100036c6:	9101      	str	r1, [sp, #4]
100036c8:	210f      	movs	r1, #15
100036ca:	0028      	movs	r0, r5
100036cc:	f003 fe12 	bl	100072f4 <__wrap_snprintf>
100036d0:	e7ef      	b.n	100036b2 <update_distance+0xa6>
100036d2:	46c0      	nop			; (mov r8, r8)
100036d4:	40054000 	.word	0x40054000
100036d8:	20026b68 	.word	0x20026b68
100036dc:	41f00000 	.word	0x41f00000
100036e0:	20026b84 	.word	0x20026b84
100036e4:	43ae827d 	.word	0x43ae827d
100036e8:	eb1c432d 	.word	0xeb1c432d
100036ec:	3f1a36e2 	.word	0x3f1a36e2
100036f0:	4075d04f 	.word	0x4075d04f
100036f4:	3fe00000 	.word	0x3fe00000
100036f8:	42c80000 	.word	0x42c80000
100036fc:	43c80000 	.word	0x43c80000
10003700:	10012778 	.word	0x10012778
10003704:	10012784 	.word	0x10012784

10003708 <simulation_init>:
10003708:	b510      	push	{r4, lr}
1000370a:	2234      	movs	r2, #52	; 0x34
1000370c:	2100      	movs	r1, #0
1000370e:	4802      	ldr	r0, [pc, #8]	; (10003718 <simulation_init+0x10>)
10003710:	f004 fe54 	bl	100083bc <__wrap_memset>
10003714:	bd10      	pop	{r4, pc}
10003716:	46c0      	nop			; (mov r8, r8)
10003718:	200266a4 	.word	0x200266a4

1000371c <simulate>:
1000371c:	b570      	push	{r4, r5, r6, lr}
1000371e:	000c      	movs	r4, r1
10003720:	280c      	cmp	r0, #12
10003722:	dd07      	ble.n	10003734 <simulate+0x18>
10003724:	4d05      	ldr	r5, [pc, #20]	; (1000373c <simulate+0x20>)
10003726:	2230      	movs	r2, #48	; 0x30
10003728:	0028      	movs	r0, r5
1000372a:	1d29      	adds	r1, r5, #4
1000372c:	f007 fd90 	bl	1000b250 <__memmove_veneer>
10003730:	632c      	str	r4, [r5, #48]	; 0x30
10003732:	bd70      	pop	{r4, r5, r6, pc}
10003734:	4b01      	ldr	r3, [pc, #4]	; (1000373c <simulate+0x20>)
10003736:	0080      	lsls	r0, r0, #2
10003738:	50c1      	str	r1, [r0, r3]
1000373a:	e7fa      	b.n	10003732 <simulate+0x16>
1000373c:	200266a4 	.word	0x200266a4

10003740 <display_simulation>:
10003740:	b510      	push	{r4, lr}
10003742:	0001      	movs	r1, r0
10003744:	4801      	ldr	r0, [pc, #4]	; (1000374c <display_simulation+0xc>)
10003746:	f7ff fd8d 	bl	10003264 <simulator_screen_init>
1000374a:	bd10      	pop	{r4, pc}
1000374c:	200266a4 	.word	0x200266a4

10003750 <bar_init>:
10003750:	b510      	push	{r4, lr}
10003752:	f007 fc73 	bl	1000b03c <adc_init>
10003756:	211f      	movs	r1, #31
10003758:	201c      	movs	r0, #28
1000375a:	f000 fc2b 	bl	10003fb4 <gpio_set_function>
1000375e:	2200      	movs	r2, #0
10003760:	2100      	movs	r1, #0
10003762:	201c      	movs	r0, #28
10003764:	f000 fc3e 	bl	10003fe4 <gpio_set_pulls>
10003768:	2100      	movs	r1, #0
1000376a:	201c      	movs	r0, #28
1000376c:	f000 fcd4 	bl	10004118 <gpio_set_input_enabled>
10003770:	4b05      	ldr	r3, [pc, #20]	; (10003788 <bar_init+0x38>)
10003772:	681a      	ldr	r2, [r3, #0]
10003774:	2380      	movs	r3, #128	; 0x80
10003776:	019b      	lsls	r3, r3, #6
10003778:	4053      	eors	r3, r2
1000377a:	22e0      	movs	r2, #224	; 0xe0
1000377c:	01d2      	lsls	r2, r2, #7
1000377e:	4013      	ands	r3, r2
10003780:	4a02      	ldr	r2, [pc, #8]	; (1000378c <bar_init+0x3c>)
10003782:	6013      	str	r3, [r2, #0]
10003784:	bd10      	pop	{r4, pc}
10003786:	46c0      	nop			; (mov r8, r8)
10003788:	4004c000 	.word	0x4004c000
1000378c:	4004d000 	.word	0x4004d000

10003790 <brightness_screen_init>:
10003790:	b530      	push	{r4, r5, lr}
10003792:	b08b      	sub	sp, #44	; 0x2c
10003794:	ac03      	add	r4, sp, #12
10003796:	4914      	ldr	r1, [pc, #80]	; (100037e8 <brightness_screen_init+0x58>)
10003798:	4814      	ldr	r0, [pc, #80]	; (100037ec <brightness_screen_init+0x5c>)
1000379a:	2201      	movs	r2, #1
1000379c:	f7ff fcd0 	bl	10003140 <bottomNavigation>
100037a0:	0022      	movs	r2, r4
100037a2:	4b13      	ldr	r3, [pc, #76]	; (100037f0 <brightness_screen_init+0x60>)
100037a4:	cb23      	ldmia	r3!, {r0, r1, r5}
100037a6:	c223      	stmia	r2!, {r0, r1, r5}
100037a8:	201e      	movs	r0, #30
100037aa:	6819      	ldr	r1, [r3, #0]
100037ac:	4468      	add	r0, sp
100037ae:	6011      	str	r1, [r2, #0]
100037b0:	889b      	ldrh	r3, [r3, #4]
100037b2:	2100      	movs	r1, #0
100037b4:	8093      	strh	r3, [r2, #4]
100037b6:	2207      	movs	r2, #7
100037b8:	f004 fe00 	bl	100083bc <__wrap_memset>
100037bc:	233c      	movs	r3, #60	; 0x3c
100037be:	22be      	movs	r2, #190	; 0xbe
100037c0:	213c      	movs	r1, #60	; 0x3c
100037c2:	9300      	str	r3, [sp, #0]
100037c4:	2000      	movs	r0, #0
100037c6:	3328      	adds	r3, #40	; 0x28
100037c8:	f7fe ffaa 	bl	10002720 <GPU_DrawFilledRectangle>
100037cc:	0020      	movs	r0, r4
100037ce:	f007 fccd 	bl	1000b16c <strlen>
100037d2:	b280      	uxth	r0, r0
100037d4:	9001      	str	r0, [sp, #4]
100037d6:	23c6      	movs	r3, #198	; 0xc6
100037d8:	223c      	movs	r2, #60	; 0x3c
100037da:	4906      	ldr	r1, [pc, #24]	; (100037f4 <brightness_screen_init+0x64>)
100037dc:	4806      	ldr	r0, [pc, #24]	; (100037f8 <brightness_screen_init+0x68>)
100037de:	9400      	str	r4, [sp, #0]
100037e0:	f7fe ff20 	bl	10002624 <GPU_DrawText>
100037e4:	b00b      	add	sp, #44	; 0x2c
100037e6:	bd30      	pop	{r4, r5, pc}
100037e8:	000007de 	.word	0x000007de
100037ec:	10012918 	.word	0x10012918
100037f0:	10012790 	.word	0x10012790
100037f4:	1000eeac 	.word	0x1000eeac
100037f8:	00000707 	.word	0x00000707

100037fc <increase_brightness>:
100037fc:	b5f0      	push	{r4, r5, r6, r7, lr}
100037fe:	46ce      	mov	lr, r9
10003800:	4647      	mov	r7, r8
10003802:	b580      	push	{r7, lr}
10003804:	0004      	movs	r4, r0
10003806:	2119      	movs	r1, #25
10003808:	b083      	sub	sp, #12
1000380a:	285e      	cmp	r0, #94	; 0x5e
1000380c:	dd3d      	ble.n	1000388a <increase_brightness+0x8e>
1000380e:	f003 fdd7 	bl	100073c0 <__wrap___aeabi_idiv>
10003812:	23f0      	movs	r3, #240	; 0xf0
10003814:	4689      	mov	r9, r1
10003816:	4698      	mov	r8, r3
10003818:	2604      	movs	r6, #4
1000381a:	2437      	movs	r4, #55	; 0x37
1000381c:	2500      	movs	r5, #0
1000381e:	270f      	movs	r7, #15
10003820:	2084      	movs	r0, #132	; 0x84
10003822:	b221      	sxth	r1, r4
10003824:	2328      	movs	r3, #40	; 0x28
10003826:	2264      	movs	r2, #100	; 0x64
10003828:	9700      	str	r7, [sp, #0]
1000382a:	0140      	lsls	r0, r0, #5
1000382c:	343c      	adds	r4, #60	; 0x3c
1000382e:	3501      	adds	r5, #1
10003830:	f7ff fa3a 	bl	10002ca8 <DrawSmoothBar>
10003834:	b2a4      	uxth	r4, r4
10003836:	42b5      	cmp	r5, r6
10003838:	dbf2      	blt.n	10003820 <increase_brightness+0x24>
1000383a:	2e04      	cmp	r6, #4
1000383c:	d048      	beq.n	100038d0 <increase_brightness+0xd4>
1000383e:	464b      	mov	r3, r9
10003840:	3b01      	subs	r3, #1
10003842:	2b04      	cmp	r3, #4
10003844:	d933      	bls.n	100038ae <increase_brightness+0xb2>
10003846:	4273      	negs	r3, r6
10003848:	415e      	adcs	r6, r3
1000384a:	2384      	movs	r3, #132	; 0x84
1000384c:	4644      	mov	r4, r8
1000384e:	015b      	lsls	r3, r3, #5
10003850:	469c      	mov	ip, r3
10003852:	4821      	ldr	r0, [pc, #132]	; (100038d8 <increase_brightness+0xdc>)
10003854:	4276      	negs	r6, r6
10003856:	4006      	ands	r6, r0
10003858:	343e      	adds	r4, #62	; 0x3e
1000385a:	4466      	add	r6, ip
1000385c:	b224      	sxth	r4, r4
1000385e:	464f      	mov	r7, r9
10003860:	2307      	movs	r3, #7
10003862:	226b      	movs	r2, #107	; 0x6b
10003864:	0021      	movs	r1, r4
10003866:	0030      	movs	r0, r6
10003868:	f7ff f8e6 	bl	10002a38 <LeftHalfFilledCircle>
1000386c:	220f      	movs	r2, #15
1000386e:	3f05      	subs	r7, #5
10003870:	007b      	lsls	r3, r7, #1
10003872:	9200      	str	r2, [sp, #0]
10003874:	0021      	movs	r1, r4
10003876:	0030      	movs	r0, r6
10003878:	b21b      	sxth	r3, r3
1000387a:	3255      	adds	r2, #85	; 0x55
1000387c:	f7fe ff50 	bl	10002720 <GPU_DrawFilledRectangle>
10003880:	b003      	add	sp, #12
10003882:	bcc0      	pop	{r6, r7}
10003884:	46b9      	mov	r9, r7
10003886:	46b0      	mov	r8, r6
10003888:	bdf0      	pop	{r4, r5, r6, r7, pc}
1000388a:	f003 fd99 	bl	100073c0 <__wrap___aeabi_idiv>
1000388e:	2119      	movs	r1, #25
10003890:	0006      	movs	r6, r0
10003892:	0020      	movs	r0, r4
10003894:	f003 fd94 	bl	100073c0 <__wrap___aeabi_idiv>
10003898:	4689      	mov	r9, r1
1000389a:	0131      	lsls	r1, r6, #4
1000389c:	1b89      	subs	r1, r1, r6
1000389e:	008b      	lsls	r3, r1, #2
100038a0:	4698      	mov	r8, r3
100038a2:	2c18      	cmp	r4, #24
100038a4:	dcb9      	bgt.n	1000381a <increase_brightness+0x1e>
100038a6:	464b      	mov	r3, r9
100038a8:	3b01      	subs	r3, #1
100038aa:	2b04      	cmp	r3, #4
100038ac:	d8cb      	bhi.n	10003846 <increase_brightness+0x4a>
100038ae:	4273      	negs	r3, r6
100038b0:	415e      	adcs	r6, r3
100038b2:	2384      	movs	r3, #132	; 0x84
100038b4:	4641      	mov	r1, r8
100038b6:	015b      	lsls	r3, r3, #5
100038b8:	469c      	mov	ip, r3
100038ba:	4270      	negs	r0, r6
100038bc:	4e06      	ldr	r6, [pc, #24]	; (100038d8 <increase_brightness+0xdc>)
100038be:	313e      	adds	r1, #62	; 0x3e
100038c0:	4030      	ands	r0, r6
100038c2:	2307      	movs	r3, #7
100038c4:	226b      	movs	r2, #107	; 0x6b
100038c6:	4460      	add	r0, ip
100038c8:	b209      	sxth	r1, r1
100038ca:	f7ff f8b5 	bl	10002a38 <LeftHalfFilledCircle>
100038ce:	e7d7      	b.n	10003880 <increase_brightness+0x84>
100038d0:	f7fe f8d6 	bl	10001a80 <GPU_Render>
100038d4:	e7d4      	b.n	10003880 <increase_brightness+0x84>
100038d6:	46c0      	nop			; (mov r8, r8)
100038d8:	fffff078 	.word	0xfffff078

100038dc <decrease_brightness>:
100038dc:	b5f0      	push	{r4, r5, r6, r7, lr}
100038de:	46ce      	mov	lr, r9
100038e0:	4647      	mov	r7, r8
100038e2:	b580      	push	{r7, lr}
100038e4:	0004      	movs	r4, r0
100038e6:	b083      	sub	sp, #12
100038e8:	285f      	cmp	r0, #95	; 0x5f
100038ea:	dc32      	bgt.n	10003952 <decrease_brightness+0x76>
100038ec:	2119      	movs	r1, #25
100038ee:	f003 fd67 	bl	100073c0 <__wrap___aeabi_idiv>
100038f2:	0006      	movs	r6, r0
100038f4:	2119      	movs	r1, #25
100038f6:	0020      	movs	r0, r4
100038f8:	f003 fd62 	bl	100073c0 <__wrap___aeabi_idiv>
100038fc:	0137      	lsls	r7, r6, #4
100038fe:	1bbf      	subs	r7, r7, r6
10003900:	4689      	mov	r9, r1
10003902:	00bf      	lsls	r7, r7, #2
10003904:	2e00      	cmp	r6, #0
10003906:	d029      	beq.n	1000395c <decrease_brightness+0x80>
10003908:	2c19      	cmp	r4, #25
1000390a:	d038      	beq.n	1000397e <decrease_brightness+0xa2>
1000390c:	b2bb      	uxth	r3, r7
1000390e:	4698      	mov	r8, r3
10003910:	1c75      	adds	r5, r6, #1
10003912:	2e03      	cmp	r6, #3
10003914:	d04a      	beq.n	100039ac <decrease_brightness+0xd0>
10003916:	243c      	movs	r4, #60	; 0x3c
10003918:	270f      	movs	r7, #15
1000391a:	436c      	muls	r4, r5
1000391c:	4e24      	ldr	r6, [pc, #144]	; (100039b0 <decrease_brightness+0xd4>)
1000391e:	3437      	adds	r4, #55	; 0x37
10003920:	b2a4      	uxth	r4, r4
10003922:	8830      	ldrh	r0, [r6, #0]
10003924:	b221      	sxth	r1, r4
10003926:	2328      	movs	r3, #40	; 0x28
10003928:	2264      	movs	r2, #100	; 0x64
1000392a:	9700      	str	r7, [sp, #0]
1000392c:	343c      	adds	r4, #60	; 0x3c
1000392e:	3501      	adds	r5, #1
10003930:	f7fe fef6 	bl	10002720 <GPU_DrawFilledRectangle>
10003934:	b2a4      	uxth	r4, r4
10003936:	2d04      	cmp	r5, #4
10003938:	d1f3      	bne.n	10003922 <decrease_brightness+0x46>
1000393a:	464b      	mov	r3, r9
1000393c:	0059      	lsls	r1, r3, #1
1000393e:	230f      	movs	r3, #15
10003940:	3137      	adds	r1, #55	; 0x37
10003942:	4441      	add	r1, r8
10003944:	8830      	ldrh	r0, [r6, #0]
10003946:	2264      	movs	r2, #100	; 0x64
10003948:	9300      	str	r3, [sp, #0]
1000394a:	b209      	sxth	r1, r1
1000394c:	33b9      	adds	r3, #185	; 0xb9
1000394e:	f7fe fee7 	bl	10002720 <GPU_DrawFilledRectangle>
10003952:	b003      	add	sp, #12
10003954:	bcc0      	pop	{r6, r7}
10003956:	46b9      	mov	r9, r7
10003958:	46b0      	mov	r8, r6
1000395a:	bdf0      	pop	{r4, r5, r6, r7, pc}
1000395c:	000b      	movs	r3, r1
1000395e:	3b01      	subs	r3, #1
10003960:	2b04      	cmp	r3, #4
10003962:	d905      	bls.n	10003970 <decrease_brightness+0x94>
10003964:	2913      	cmp	r1, #19
10003966:	dd0a      	ble.n	1000397e <decrease_brightness+0xa2>
10003968:	2300      	movs	r3, #0
1000396a:	2501      	movs	r5, #1
1000396c:	4698      	mov	r8, r3
1000396e:	e7d2      	b.n	10003916 <decrease_brightness+0x3a>
10003970:	2307      	movs	r3, #7
10003972:	226b      	movs	r2, #107	; 0x6b
10003974:	213e      	movs	r1, #62	; 0x3e
10003976:	20f8      	movs	r0, #248	; 0xf8
10003978:	f7ff f85e 	bl	10002a38 <LeftHalfFilledCircle>
1000397c:	e7f4      	b.n	10003968 <decrease_brightness+0x8c>
1000397e:	b2bb      	uxth	r3, r7
10003980:	001c      	movs	r4, r3
10003982:	343e      	adds	r4, #62	; 0x3e
10003984:	b224      	sxth	r4, r4
10003986:	0021      	movs	r1, r4
10003988:	4698      	mov	r8, r3
1000398a:	226b      	movs	r2, #107	; 0x6b
1000398c:	2307      	movs	r3, #7
1000398e:	20f8      	movs	r0, #248	; 0xf8
10003990:	f7ff f852 	bl	10002a38 <LeftHalfFilledCircle>
10003994:	464b      	mov	r3, r9
10003996:	220f      	movs	r2, #15
10003998:	3b05      	subs	r3, #5
1000399a:	005b      	lsls	r3, r3, #1
1000399c:	9200      	str	r2, [sp, #0]
1000399e:	0021      	movs	r1, r4
100039a0:	20f8      	movs	r0, #248	; 0xf8
100039a2:	b21b      	sxth	r3, r3
100039a4:	3255      	adds	r2, #85	; 0x55
100039a6:	f7fe febb 	bl	10002720 <GPU_DrawFilledRectangle>
100039aa:	e7b1      	b.n	10003910 <decrease_brightness+0x34>
100039ac:	4e00      	ldr	r6, [pc, #0]	; (100039b0 <decrease_brightness+0xd4>)
100039ae:	e7c4      	b.n	1000393a <decrease_brightness+0x5e>
100039b0:	20026b88 	.word	0x20026b88

100039b4 <update_brightness>:
100039b4:	b5f0      	push	{r4, r5, r6, r7, lr}
100039b6:	2005      	movs	r0, #5
100039b8:	b089      	sub	sp, #36	; 0x24
100039ba:	f001 fbef 	bl	1000519c <busy_wait_ms>
100039be:	2204      	movs	r2, #4
100039c0:	2180      	movs	r1, #128	; 0x80
100039c2:	4b39      	ldr	r3, [pc, #228]	; (10003aa8 <update_brightness+0xf4>)
100039c4:	0049      	lsls	r1, r1, #1
100039c6:	601a      	str	r2, [r3, #0]
100039c8:	4a38      	ldr	r2, [pc, #224]	; (10003aac <update_brightness+0xf8>)
100039ca:	6813      	ldr	r3, [r2, #0]
100039cc:	420b      	tst	r3, r1
100039ce:	d0fc      	beq.n	100039ca <update_brightness+0x16>
100039d0:	6850      	ldr	r0, [r2, #4]
100039d2:	ae03      	add	r6, sp, #12
100039d4:	b280      	uxth	r0, r0
100039d6:	f004 fbf6 	bl	100081c6 <__wrap___aeabi_ui2f>
100039da:	4935      	ldr	r1, [pc, #212]	; (10003ab0 <update_brightness+0xfc>)
100039dc:	f004 fbaf 	bl	1000813e <__wrap___aeabi_fmul>
100039e0:	4934      	ldr	r1, [pc, #208]	; (10003ab4 <update_brightness+0x100>)
100039e2:	f004 fb98 	bl	10008116 <__wrap___aeabi_fdiv>
100039e6:	1c04      	adds	r4, r0, #0
100039e8:	f004 fc14 	bl	10008214 <__wrap___aeabi_f2iz>
100039ec:	2114      	movs	r1, #20
100039ee:	0003      	movs	r3, r0
100039f0:	4a31      	ldr	r2, [pc, #196]	; (10003ab8 <update_brightness+0x104>)
100039f2:	0005      	movs	r5, r0
100039f4:	0030      	movs	r0, r6
100039f6:	f003 fc7d 	bl	100072f4 <__wrap_snprintf>
100039fa:	2323      	movs	r3, #35	; 0x23
100039fc:	222d      	movs	r2, #45	; 0x2d
100039fe:	216e      	movs	r1, #110	; 0x6e
10003a00:	2000      	movs	r0, #0
10003a02:	9300      	str	r3, [sp, #0]
10003a04:	33a5      	adds	r3, #165	; 0xa5
10003a06:	f7fe fe8b 	bl	10002720 <GPU_DrawFilledRectangle>
10003a0a:	0030      	movs	r0, r6
10003a0c:	f007 fbae 	bl	1000b16c <strlen>
10003a10:	b280      	uxth	r0, r0
10003a12:	492a      	ldr	r1, [pc, #168]	; (10003abc <update_brightness+0x108>)
10003a14:	9001      	str	r0, [sp, #4]
10003a16:	232f      	movs	r3, #47	; 0x2f
10003a18:	4829      	ldr	r0, [pc, #164]	; (10003ac0 <update_brightness+0x10c>)
10003a1a:	2273      	movs	r2, #115	; 0x73
10003a1c:	9600      	str	r6, [sp, #0]
10003a1e:	f7fe fe01 	bl	10002624 <GPU_DrawText>
10003a22:	4928      	ldr	r1, [pc, #160]	; (10003ac4 <update_brightness+0x110>)
10003a24:	1c20      	adds	r0, r4, #0
10003a26:	f004 fbc1 	bl	100081ac <__wrap___aeabi_fcmpge>
10003a2a:	2800      	cmp	r0, #0
10003a2c:	d005      	beq.n	10003a3a <update_brightness+0x86>
10003a2e:	4926      	ldr	r1, [pc, #152]	; (10003ac8 <update_brightness+0x114>)
10003a30:	1c20      	adds	r0, r4, #0
10003a32:	f004 fbb3 	bl	1000819c <__wrap___aeabi_fcmple>
10003a36:	2800      	cmp	r0, #0
10003a38:	d124      	bne.n	10003a84 <update_brightness+0xd0>
10003a3a:	4f24      	ldr	r7, [pc, #144]	; (10003acc <update_brightness+0x118>)
10003a3c:	6838      	ldr	r0, [r7, #0]
10003a3e:	f004 fbc2 	bl	100081c6 <__wrap___aeabi_ui2f>
10003a42:	1c01      	adds	r1, r0, #0
10003a44:	1c06      	adds	r6, r0, #0
10003a46:	1c20      	adds	r0, r4, #0
10003a48:	f004 fb5f 	bl	1000810a <__wrap___aeabi_fsub>
10003a4c:	4920      	ldr	r1, [pc, #128]	; (10003ad0 <update_brightness+0x11c>)
10003a4e:	f004 fbb5 	bl	100081bc <__wrap___aeabi_fcmpgt>
10003a52:	2800      	cmp	r0, #0
10003a54:	d10e      	bne.n	10003a74 <update_brightness+0xc0>
10003a56:	1c21      	adds	r1, r4, #0
10003a58:	1c30      	adds	r0, r6, #0
10003a5a:	f004 fb56 	bl	1000810a <__wrap___aeabi_fsub>
10003a5e:	491c      	ldr	r1, [pc, #112]	; (10003ad0 <update_brightness+0x11c>)
10003a60:	f004 fbac 	bl	100081bc <__wrap___aeabi_fcmpgt>
10003a64:	2800      	cmp	r0, #0
10003a66:	d109      	bne.n	10003a7c <update_brightness+0xc8>
10003a68:	1c20      	adds	r0, r4, #0
10003a6a:	f004 fc05 	bl	10008278 <__wrap___aeabi_f2uiz>
10003a6e:	6038      	str	r0, [r7, #0]
10003a70:	b009      	add	sp, #36	; 0x24
10003a72:	bdf0      	pop	{r4, r5, r6, r7, pc}
10003a74:	0028      	movs	r0, r5
10003a76:	f7ff fec1 	bl	100037fc <increase_brightness>
10003a7a:	e7f5      	b.n	10003a68 <update_brightness+0xb4>
10003a7c:	0028      	movs	r0, r5
10003a7e:	f7ff ff2d 	bl	100038dc <decrease_brightness>
10003a82:	e7f1      	b.n	10003a68 <update_brightness+0xb4>
10003a84:	250f      	movs	r5, #15
10003a86:	2328      	movs	r3, #40	; 0x28
10003a88:	2264      	movs	r2, #100	; 0x64
10003a8a:	2137      	movs	r1, #55	; 0x37
10003a8c:	20f8      	movs	r0, #248	; 0xf8
10003a8e:	9500      	str	r5, [sp, #0]
10003a90:	f7ff f90a 	bl	10002ca8 <DrawSmoothBar>
10003a94:	4b0f      	ldr	r3, [pc, #60]	; (10003ad4 <update_brightness+0x120>)
10003a96:	2264      	movs	r2, #100	; 0x64
10003a98:	8818      	ldrh	r0, [r3, #0]
10003a9a:	2173      	movs	r1, #115	; 0x73
10003a9c:	23c8      	movs	r3, #200	; 0xc8
10003a9e:	9500      	str	r5, [sp, #0]
10003aa0:	f7fe fe3e 	bl	10002720 <GPU_DrawFilledRectangle>
10003aa4:	4f09      	ldr	r7, [pc, #36]	; (10003acc <update_brightness+0x118>)
10003aa6:	e7df      	b.n	10003a68 <update_brightness+0xb4>
10003aa8:	4004e000 	.word	0x4004e000
10003aac:	4004c000 	.word	0x4004c000
10003ab0:	42c80000 	.word	0x42c80000
10003ab4:	457ff000 	.word	0x457ff000
10003ab8:	1001278c 	.word	0x1001278c
10003abc:	1000eeac 	.word	0x1000eeac
10003ac0:	00000707 	.word	0x00000707
10003ac4:	41a00000 	.word	0x41a00000
10003ac8:	41c80000 	.word	0x41c80000
10003acc:	20026660 	.word	0x20026660
10003ad0:	40400000 	.word	0x40400000
10003ad4:	20026b88 	.word	0x20026b88

10003ad8 <clearPopup>:
10003ad8:	4a07      	ldr	r2, [pc, #28]	; (10003af8 <clearPopup+0x20>)
10003ada:	2387      	movs	r3, #135	; 0x87
10003adc:	8810      	ldrh	r0, [r2, #0]
10003ade:	2269      	movs	r2, #105	; 0x69
10003ae0:	b500      	push	{lr}
10003ae2:	b083      	sub	sp, #12
10003ae4:	2128      	movs	r1, #40	; 0x28
10003ae6:	9200      	str	r2, [sp, #0]
10003ae8:	005b      	lsls	r3, r3, #1
10003aea:	3a50      	subs	r2, #80	; 0x50
10003aec:	f7fe fe18 	bl	10002720 <GPU_DrawFilledRectangle>
10003af0:	f7fd ffc6 	bl	10001a80 <GPU_Render>
10003af4:	b003      	add	sp, #12
10003af6:	bd00      	pop	{pc}
10003af8:	20026b88 	.word	0x20026b88

10003afc <pg1>:
10003afc:	4b24      	ldr	r3, [pc, #144]	; (10003b90 <pg1+0x94>)
10003afe:	b5f0      	push	{r4, r5, r6, r7, lr}
10003b00:	8818      	ldrh	r0, [r3, #0]
10003b02:	23a0      	movs	r3, #160	; 0xa0
10003b04:	b083      	sub	sp, #12
10003b06:	2219      	movs	r2, #25
10003b08:	2128      	movs	r1, #40	; 0x28
10003b0a:	9300      	str	r3, [sp, #0]
10003b0c:	336e      	adds	r3, #110	; 0x6e
10003b0e:	f7fe fe07 	bl	10002720 <GPU_DrawFilledRectangle>
10003b12:	230e      	movs	r3, #14
10003b14:	4f1f      	ldr	r7, [pc, #124]	; (10003b94 <pg1+0x98>)
10003b16:	9301      	str	r3, [sp, #4]
10003b18:	4b1f      	ldr	r3, [pc, #124]	; (10003b98 <pg1+0x9c>)
10003b1a:	227d      	movs	r2, #125	; 0x7d
10003b1c:	0039      	movs	r1, r7
10003b1e:	481f      	ldr	r0, [pc, #124]	; (10003b9c <pg1+0xa0>)
10003b20:	9300      	str	r3, [sp, #0]
10003b22:	2323      	movs	r3, #35	; 0x23
10003b24:	f7fe fd7e 	bl	10002624 <GPU_DrawText>
10003b28:	2308      	movs	r3, #8
10003b2a:	9301      	str	r3, [sp, #4]
10003b2c:	4b1c      	ldr	r3, [pc, #112]	; (10003ba0 <pg1+0xa4>)
10003b2e:	2287      	movs	r2, #135	; 0x87
10003b30:	0039      	movs	r1, r7
10003b32:	481a      	ldr	r0, [pc, #104]	; (10003b9c <pg1+0xa0>)
10003b34:	9300      	str	r3, [sp, #0]
10003b36:	232d      	movs	r3, #45	; 0x2d
10003b38:	f7fe fd74 	bl	10002624 <GPU_DrawText>
10003b3c:	2304      	movs	r3, #4
10003b3e:	0039      	movs	r1, r7
10003b40:	9301      	str	r3, [sp, #4]
10003b42:	4b18      	ldr	r3, [pc, #96]	; (10003ba4 <pg1+0xa8>)
10003b44:	2232      	movs	r2, #50	; 0x32
10003b46:	4818      	ldr	r0, [pc, #96]	; (10003ba8 <pg1+0xac>)
10003b48:	3110      	adds	r1, #16
10003b4a:	9300      	str	r3, [sp, #0]
10003b4c:	232f      	movs	r3, #47	; 0x2f
10003b4e:	f7fe fd69 	bl	10002624 <GPU_DrawText>
10003b52:	f7ff f935 	bl	10002dc0 <cross_sign>
10003b56:	f7fd ff93 	bl	10001a80 <GPU_Render>
10003b5a:	2200      	movs	r2, #0
10003b5c:	245a      	movs	r4, #90	; 0x5a
10003b5e:	4b13      	ldr	r3, [pc, #76]	; (10003bac <pg1+0xb0>)
10003b60:	4e13      	ldr	r6, [pc, #76]	; (10003bb0 <pg1+0xb4>)
10003b62:	701a      	strb	r2, [r3, #0]
10003b64:	ce20      	ldmia	r6!, {r5}
10003b66:	0028      	movs	r0, r5
10003b68:	f007 fb00 	bl	1000b16c <strlen>
10003b6c:	b223      	sxth	r3, r4
10003b6e:	b280      	uxth	r0, r0
10003b70:	3419      	adds	r4, #25
10003b72:	9001      	str	r0, [sp, #4]
10003b74:	222d      	movs	r2, #45	; 0x2d
10003b76:	0039      	movs	r1, r7
10003b78:	480e      	ldr	r0, [pc, #56]	; (10003bb4 <pg1+0xb8>)
10003b7a:	9500      	str	r5, [sp, #0]
10003b7c:	b2a4      	uxth	r4, r4
10003b7e:	f7fe fd51 	bl	10002624 <GPU_DrawText>
10003b82:	2ca5      	cmp	r4, #165	; 0xa5
10003b84:	d1ee      	bne.n	10003b64 <pg1+0x68>
10003b86:	f7fd ff7b 	bl	10001a80 <GPU_Render>
10003b8a:	b003      	add	sp, #12
10003b8c:	bdf0      	pop	{r4, r5, r6, r7, pc}
10003b8e:	46c0      	nop			; (mov r8, r8)
10003b90:	20026b88 	.word	0x20026b88
10003b94:	1000eea4 	.word	0x1000eea4
10003b98:	100127ac 	.word	0x100127ac
10003b9c:	00000707 	.word	0x00000707
10003ba0:	100127bc 	.word	0x100127bc
10003ba4:	100127c8 	.word	0x100127c8
10003ba8:	000005f3 	.word	0x000005f3
10003bac:	20026b8e 	.word	0x20026b8e
10003bb0:	20000494 	.word	0x20000494
10003bb4:	000007de 	.word	0x000007de

10003bb8 <pg2>:
10003bb8:	4a30      	ldr	r2, [pc, #192]	; (10003c7c <pg2+0xc4>)
10003bba:	2387      	movs	r3, #135	; 0x87
10003bbc:	8810      	ldrh	r0, [r2, #0]
10003bbe:	22a0      	movs	r2, #160	; 0xa0
10003bc0:	b5f0      	push	{r4, r5, r6, r7, lr}
10003bc2:	b083      	sub	sp, #12
10003bc4:	9200      	str	r2, [sp, #0]
10003bc6:	2128      	movs	r1, #40	; 0x28
10003bc8:	005b      	lsls	r3, r3, #1
10003bca:	3a87      	subs	r2, #135	; 0x87
10003bcc:	f7fe fda8 	bl	10002720 <GPU_DrawFilledRectangle>
10003bd0:	230e      	movs	r3, #14
10003bd2:	4c2b      	ldr	r4, [pc, #172]	; (10003c80 <pg2+0xc8>)
10003bd4:	4d2b      	ldr	r5, [pc, #172]	; (10003c84 <pg2+0xcc>)
10003bd6:	9301      	str	r3, [sp, #4]
10003bd8:	4b2b      	ldr	r3, [pc, #172]	; (10003c88 <pg2+0xd0>)
10003bda:	0021      	movs	r1, r4
10003bdc:	0028      	movs	r0, r5
10003bde:	9300      	str	r3, [sp, #0]
10003be0:	227d      	movs	r2, #125	; 0x7d
10003be2:	2323      	movs	r3, #35	; 0x23
10003be4:	f7fe fd1e 	bl	10002624 <GPU_DrawText>
10003be8:	2308      	movs	r3, #8
10003bea:	9301      	str	r3, [sp, #4]
10003bec:	4b27      	ldr	r3, [pc, #156]	; (10003c8c <pg2+0xd4>)
10003bee:	0021      	movs	r1, r4
10003bf0:	0028      	movs	r0, r5
10003bf2:	9300      	str	r3, [sp, #0]
10003bf4:	2287      	movs	r2, #135	; 0x87
10003bf6:	232d      	movs	r3, #45	; 0x2d
10003bf8:	f7fe fd14 	bl	10002624 <GPU_DrawText>
10003bfc:	2304      	movs	r3, #4
10003bfe:	0021      	movs	r1, r4
10003c00:	9301      	str	r3, [sp, #4]
10003c02:	4b23      	ldr	r3, [pc, #140]	; (10003c90 <pg2+0xd8>)
10003c04:	3110      	adds	r1, #16
10003c06:	2232      	movs	r2, #50	; 0x32
10003c08:	4822      	ldr	r0, [pc, #136]	; (10003c94 <pg2+0xdc>)
10003c0a:	9300      	str	r3, [sp, #0]
10003c0c:	232f      	movs	r3, #47	; 0x2f
10003c0e:	f7fe fd09 	bl	10002624 <GPU_DrawText>
10003c12:	f7ff f8d5 	bl	10002dc0 <cross_sign>
10003c16:	f7fd ff33 	bl	10001a80 <GPU_Render>
10003c1a:	2201      	movs	r2, #1
10003c1c:	4d1e      	ldr	r5, [pc, #120]	; (10003c98 <pg2+0xe0>)
10003c1e:	4b1f      	ldr	r3, [pc, #124]	; (10003c9c <pg2+0xe4>)
10003c20:	68ef      	ldr	r7, [r5, #12]
10003c22:	701a      	strb	r2, [r3, #0]
10003c24:	0038      	movs	r0, r7
10003c26:	f007 faa1 	bl	1000b16c <strlen>
10003c2a:	4e1d      	ldr	r6, [pc, #116]	; (10003ca0 <pg2+0xe8>)
10003c2c:	b280      	uxth	r0, r0
10003c2e:	0021      	movs	r1, r4
10003c30:	235a      	movs	r3, #90	; 0x5a
10003c32:	222d      	movs	r2, #45	; 0x2d
10003c34:	9001      	str	r0, [sp, #4]
10003c36:	9700      	str	r7, [sp, #0]
10003c38:	0030      	movs	r0, r6
10003c3a:	f7fe fcf3 	bl	10002624 <GPU_DrawText>
10003c3e:	692f      	ldr	r7, [r5, #16]
10003c40:	0038      	movs	r0, r7
10003c42:	f007 fa93 	bl	1000b16c <strlen>
10003c46:	b280      	uxth	r0, r0
10003c48:	0021      	movs	r1, r4
10003c4a:	2373      	movs	r3, #115	; 0x73
10003c4c:	222d      	movs	r2, #45	; 0x2d
10003c4e:	9001      	str	r0, [sp, #4]
10003c50:	9700      	str	r7, [sp, #0]
10003c52:	0030      	movs	r0, r6
10003c54:	f7fe fce6 	bl	10002624 <GPU_DrawText>
10003c58:	696d      	ldr	r5, [r5, #20]
10003c5a:	0028      	movs	r0, r5
10003c5c:	f007 fa86 	bl	1000b16c <strlen>
10003c60:	b280      	uxth	r0, r0
10003c62:	238c      	movs	r3, #140	; 0x8c
10003c64:	222d      	movs	r2, #45	; 0x2d
10003c66:	0021      	movs	r1, r4
10003c68:	9001      	str	r0, [sp, #4]
10003c6a:	9500      	str	r5, [sp, #0]
10003c6c:	480d      	ldr	r0, [pc, #52]	; (10003ca4 <pg2+0xec>)
10003c6e:	f7fe fcd9 	bl	10002624 <GPU_DrawText>
10003c72:	f7fd ff05 	bl	10001a80 <GPU_Render>
10003c76:	b003      	add	sp, #12
10003c78:	bdf0      	pop	{r4, r5, r6, r7, pc}
10003c7a:	46c0      	nop			; (mov r8, r8)
10003c7c:	20026b88 	.word	0x20026b88
10003c80:	1000eea4 	.word	0x1000eea4
10003c84:	00000707 	.word	0x00000707
10003c88:	100127ac 	.word	0x100127ac
10003c8c:	100127bc 	.word	0x100127bc
10003c90:	100127c8 	.word	0x100127c8
10003c94:	000005f3 	.word	0x000005f3
10003c98:	20000494 	.word	0x20000494
10003c9c:	20026b8e 	.word	0x20026b8e
10003ca0:	000007de 	.word	0x000007de
10003ca4:	00001fff 	.word	0x00001fff

10003ca8 <open_popup>:
10003ca8:	4b24      	ldr	r3, [pc, #144]	; (10003d3c <open_popup+0x94>)
10003caa:	b5f0      	push	{r4, r5, r6, r7, lr}
10003cac:	8818      	ldrh	r0, [r3, #0]
10003cae:	23a0      	movs	r3, #160	; 0xa0
10003cb0:	b083      	sub	sp, #12
10003cb2:	2219      	movs	r2, #25
10003cb4:	2128      	movs	r1, #40	; 0x28
10003cb6:	9300      	str	r3, [sp, #0]
10003cb8:	336e      	adds	r3, #110	; 0x6e
10003cba:	f7fe fd31 	bl	10002720 <GPU_DrawFilledRectangle>
10003cbe:	230e      	movs	r3, #14
10003cc0:	4f1f      	ldr	r7, [pc, #124]	; (10003d40 <open_popup+0x98>)
10003cc2:	9301      	str	r3, [sp, #4]
10003cc4:	4b1f      	ldr	r3, [pc, #124]	; (10003d44 <open_popup+0x9c>)
10003cc6:	227d      	movs	r2, #125	; 0x7d
10003cc8:	0039      	movs	r1, r7
10003cca:	481f      	ldr	r0, [pc, #124]	; (10003d48 <open_popup+0xa0>)
10003ccc:	9300      	str	r3, [sp, #0]
10003cce:	2323      	movs	r3, #35	; 0x23
10003cd0:	f7fe fca8 	bl	10002624 <GPU_DrawText>
10003cd4:	2308      	movs	r3, #8
10003cd6:	9301      	str	r3, [sp, #4]
10003cd8:	4b1c      	ldr	r3, [pc, #112]	; (10003d4c <open_popup+0xa4>)
10003cda:	2287      	movs	r2, #135	; 0x87
10003cdc:	0039      	movs	r1, r7
10003cde:	481a      	ldr	r0, [pc, #104]	; (10003d48 <open_popup+0xa0>)
10003ce0:	9300      	str	r3, [sp, #0]
10003ce2:	232d      	movs	r3, #45	; 0x2d
10003ce4:	f7fe fc9e 	bl	10002624 <GPU_DrawText>
10003ce8:	2304      	movs	r3, #4
10003cea:	0039      	movs	r1, r7
10003cec:	9301      	str	r3, [sp, #4]
10003cee:	4b18      	ldr	r3, [pc, #96]	; (10003d50 <open_popup+0xa8>)
10003cf0:	2232      	movs	r2, #50	; 0x32
10003cf2:	4818      	ldr	r0, [pc, #96]	; (10003d54 <open_popup+0xac>)
10003cf4:	3110      	adds	r1, #16
10003cf6:	9300      	str	r3, [sp, #0]
10003cf8:	232f      	movs	r3, #47	; 0x2f
10003cfa:	f7fe fc93 	bl	10002624 <GPU_DrawText>
10003cfe:	f7ff f85f 	bl	10002dc0 <cross_sign>
10003d02:	f7fd febd 	bl	10001a80 <GPU_Render>
10003d06:	2200      	movs	r2, #0
10003d08:	245a      	movs	r4, #90	; 0x5a
10003d0a:	4b13      	ldr	r3, [pc, #76]	; (10003d58 <open_popup+0xb0>)
10003d0c:	4e13      	ldr	r6, [pc, #76]	; (10003d5c <open_popup+0xb4>)
10003d0e:	701a      	strb	r2, [r3, #0]
10003d10:	ce20      	ldmia	r6!, {r5}
10003d12:	0028      	movs	r0, r5
10003d14:	f007 fa2a 	bl	1000b16c <strlen>
10003d18:	b223      	sxth	r3, r4
10003d1a:	b280      	uxth	r0, r0
10003d1c:	3419      	adds	r4, #25
10003d1e:	9001      	str	r0, [sp, #4]
10003d20:	222d      	movs	r2, #45	; 0x2d
10003d22:	0039      	movs	r1, r7
10003d24:	480e      	ldr	r0, [pc, #56]	; (10003d60 <open_popup+0xb8>)
10003d26:	9500      	str	r5, [sp, #0]
10003d28:	b2a4      	uxth	r4, r4
10003d2a:	f7fe fc7b 	bl	10002624 <GPU_DrawText>
10003d2e:	2ca5      	cmp	r4, #165	; 0xa5
10003d30:	d1ee      	bne.n	10003d10 <open_popup+0x68>
10003d32:	f7fd fea5 	bl	10001a80 <GPU_Render>
10003d36:	b003      	add	sp, #12
10003d38:	bdf0      	pop	{r4, r5, r6, r7, pc}
10003d3a:	46c0      	nop			; (mov r8, r8)
10003d3c:	20026b88 	.word	0x20026b88
10003d40:	1000eea4 	.word	0x1000eea4
10003d44:	100127ac 	.word	0x100127ac
10003d48:	00000707 	.word	0x00000707
10003d4c:	100127bc 	.word	0x100127bc
10003d50:	100127c8 	.word	0x100127c8
10003d54:	000005f3 	.word	0x000005f3
10003d58:	20026b8e 	.word	0x20026b8e
10003d5c:	20000494 	.word	0x20000494
10003d60:	000007de 	.word	0x000007de

10003d64 <close_popup>:
10003d64:	b510      	push	{r4, lr}
10003d66:	f7fd fe81 	bl	10001a6c <GPU_ClearFramebuffers>
10003d6a:	bd10      	pop	{r4, pc}

10003d6c <gpio_default_irq_handler>:
10003d6c:	23d0      	movs	r3, #208	; 0xd0
10003d6e:	061b      	lsls	r3, r3, #24
10003d70:	681b      	ldr	r3, [r3, #0]
10003d72:	b5f0      	push	{r4, r5, r6, r7, lr}
10003d74:	009a      	lsls	r2, r3, #2
10003d76:	4645      	mov	r5, r8
10003d78:	4690      	mov	r8, r2
10003d7a:	4641      	mov	r1, r8
10003d7c:	4a89      	ldr	r2, [pc, #548]	; (10003fa4 <gpio_default_irq_handler+0x238>)
10003d7e:	46de      	mov	lr, fp
10003d80:	5852      	ldr	r2, [r2, r1]
10003d82:	4657      	mov	r7, sl
10003d84:	4693      	mov	fp, r2
10003d86:	1e5a      	subs	r2, r3, #1
10003d88:	4193      	sbcs	r3, r2
10003d8a:	2230      	movs	r2, #48	; 0x30
10003d8c:	464e      	mov	r6, r9
10003d8e:	425b      	negs	r3, r3
10003d90:	401a      	ands	r2, r3
10003d92:	0013      	movs	r3, r2
10003d94:	4a84      	ldr	r2, [pc, #528]	; (10003fa8 <gpio_default_irq_handler+0x23c>)
10003d96:	b5e0      	push	{r5, r6, r7, lr}
10003d98:	4694      	mov	ip, r2
10003d9a:	b083      	sub	sp, #12
10003d9c:	4463      	add	r3, ip
10003d9e:	9301      	str	r3, [sp, #4]
10003da0:	4b82      	ldr	r3, [pc, #520]	; (10003fac <gpio_default_irq_handler+0x240>)
10003da2:	2608      	movs	r6, #8
10003da4:	469a      	mov	sl, r3
10003da6:	0035      	movs	r5, r6
10003da8:	3d08      	subs	r5, #8
10003daa:	08ea      	lsrs	r2, r5, #3
10003dac:	0013      	movs	r3, r2
10003dae:	9901      	ldr	r1, [sp, #4]
10003db0:	3308      	adds	r3, #8
10003db2:	009b      	lsls	r3, r3, #2
10003db4:	585c      	ldr	r4, [r3, r1]
10003db6:	2c00      	cmp	r4, #0
10003db8:	d023      	beq.n	10003e02 <gpio_default_irq_handler+0x96>
10003dba:	465b      	mov	r3, fp
10003dbc:	2b00      	cmp	r3, #0
10003dbe:	d02a      	beq.n	10003e16 <gpio_default_irq_handler+0xaa>
10003dc0:	2301      	movs	r3, #1
10003dc2:	270f      	movs	r7, #15
10003dc4:	4699      	mov	r9, r3
10003dc6:	0039      	movs	r1, r7
10003dc8:	4021      	ands	r1, r4
10003dca:	4227      	tst	r7, r4
10003dcc:	d013      	beq.n	10003df6 <gpio_default_irq_handler+0x8a>
10003dce:	464b      	mov	r3, r9
10003dd0:	4652      	mov	r2, sl
10003dd2:	4640      	mov	r0, r8
10003dd4:	40ab      	lsls	r3, r5
10003dd6:	5812      	ldr	r2, [r2, r0]
10003dd8:	421a      	tst	r2, r3
10003dda:	d10c      	bne.n	10003df6 <gpio_default_irq_handler+0x8a>
10003ddc:	2207      	movs	r2, #7
10003dde:	0008      	movs	r0, r1
10003de0:	402a      	ands	r2, r5
10003de2:	0092      	lsls	r2, r2, #2
10003de4:	4090      	lsls	r0, r2
10003de6:	0002      	movs	r2, r0
10003de8:	08eb      	lsrs	r3, r5, #3
10003dea:	4871      	ldr	r0, [pc, #452]	; (10003fb0 <gpio_default_irq_handler+0x244>)
10003dec:	333c      	adds	r3, #60	; 0x3c
10003dee:	009b      	lsls	r3, r3, #2
10003df0:	501a      	str	r2, [r3, r0]
10003df2:	0028      	movs	r0, r5
10003df4:	47d8      	blx	fp
10003df6:	0924      	lsrs	r4, r4, #4
10003df8:	3501      	adds	r5, #1
10003dfa:	2c00      	cmp	r4, #0
10003dfc:	d001      	beq.n	10003e02 <gpio_default_irq_handler+0x96>
10003dfe:	42b5      	cmp	r5, r6
10003e00:	d3e1      	bcc.n	10003dc6 <gpio_default_irq_handler+0x5a>
10003e02:	3608      	adds	r6, #8
10003e04:	2e28      	cmp	r6, #40	; 0x28
10003e06:	d1ce      	bne.n	10003da6 <gpio_default_irq_handler+0x3a>
10003e08:	b003      	add	sp, #12
10003e0a:	bcf0      	pop	{r4, r5, r6, r7}
10003e0c:	46bb      	mov	fp, r7
10003e0e:	46b2      	mov	sl, r6
10003e10:	46a9      	mov	r9, r5
10003e12:	46a0      	mov	r8, r4
10003e14:	bdf0      	pop	{r4, r5, r6, r7, pc}
10003e16:	230f      	movs	r3, #15
10003e18:	0019      	movs	r1, r3
10003e1a:	4021      	ands	r1, r4
10003e1c:	4223      	tst	r3, r4
10003e1e:	d007      	beq.n	10003e30 <gpio_default_irq_handler+0xc4>
10003e20:	4647      	mov	r7, r8
10003e22:	3b0e      	subs	r3, #14
10003e24:	40ab      	lsls	r3, r5
10003e26:	4861      	ldr	r0, [pc, #388]	; (10003fac <gpio_default_irq_handler+0x240>)
10003e28:	59c0      	ldr	r0, [r0, r7]
10003e2a:	4218      	tst	r0, r3
10003e2c:	d100      	bne.n	10003e30 <gpio_default_irq_handler+0xc4>
10003e2e:	e08d      	b.n	10003f4c <gpio_default_irq_handler+0x1e0>
10003e30:	0923      	lsrs	r3, r4, #4
10003e32:	1ff1      	subs	r1, r6, #7
10003e34:	2b00      	cmp	r3, #0
10003e36:	d0e4      	beq.n	10003e02 <gpio_default_irq_handler+0x96>
10003e38:	220f      	movs	r2, #15
10003e3a:	0010      	movs	r0, r2
10003e3c:	4018      	ands	r0, r3
10003e3e:	421a      	tst	r2, r3
10003e40:	d00f      	beq.n	10003e62 <gpio_default_irq_handler+0xf6>
10003e42:	2301      	movs	r3, #1
10003e44:	4645      	mov	r5, r8
10003e46:	408b      	lsls	r3, r1
10003e48:	4a58      	ldr	r2, [pc, #352]	; (10003fac <gpio_default_irq_handler+0x240>)
10003e4a:	5952      	ldr	r2, [r2, r5]
10003e4c:	421a      	tst	r2, r3
10003e4e:	d108      	bne.n	10003e62 <gpio_default_irq_handler+0xf6>
10003e50:	2207      	movs	r2, #7
10003e52:	08cb      	lsrs	r3, r1, #3
10003e54:	4011      	ands	r1, r2
10003e56:	0089      	lsls	r1, r1, #2
10003e58:	4088      	lsls	r0, r1
10003e5a:	4a55      	ldr	r2, [pc, #340]	; (10003fb0 <gpio_default_irq_handler+0x244>)
10003e5c:	333c      	adds	r3, #60	; 0x3c
10003e5e:	009b      	lsls	r3, r3, #2
10003e60:	5098      	str	r0, [r3, r2]
10003e62:	0a23      	lsrs	r3, r4, #8
10003e64:	1fb1      	subs	r1, r6, #6
10003e66:	2b00      	cmp	r3, #0
10003e68:	d0cb      	beq.n	10003e02 <gpio_default_irq_handler+0x96>
10003e6a:	220f      	movs	r2, #15
10003e6c:	0010      	movs	r0, r2
10003e6e:	4018      	ands	r0, r3
10003e70:	421a      	tst	r2, r3
10003e72:	d00f      	beq.n	10003e94 <gpio_default_irq_handler+0x128>
10003e74:	2301      	movs	r3, #1
10003e76:	4645      	mov	r5, r8
10003e78:	408b      	lsls	r3, r1
10003e7a:	4a4c      	ldr	r2, [pc, #304]	; (10003fac <gpio_default_irq_handler+0x240>)
10003e7c:	5952      	ldr	r2, [r2, r5]
10003e7e:	421a      	tst	r2, r3
10003e80:	d108      	bne.n	10003e94 <gpio_default_irq_handler+0x128>
10003e82:	2207      	movs	r2, #7
10003e84:	08cb      	lsrs	r3, r1, #3
10003e86:	4011      	ands	r1, r2
10003e88:	0089      	lsls	r1, r1, #2
10003e8a:	4088      	lsls	r0, r1
10003e8c:	4a48      	ldr	r2, [pc, #288]	; (10003fb0 <gpio_default_irq_handler+0x244>)
10003e8e:	333c      	adds	r3, #60	; 0x3c
10003e90:	009b      	lsls	r3, r3, #2
10003e92:	5098      	str	r0, [r3, r2]
10003e94:	0b23      	lsrs	r3, r4, #12
10003e96:	1f71      	subs	r1, r6, #5
10003e98:	2b00      	cmp	r3, #0
10003e9a:	d0b2      	beq.n	10003e02 <gpio_default_irq_handler+0x96>
10003e9c:	220f      	movs	r2, #15
10003e9e:	0010      	movs	r0, r2
10003ea0:	4018      	ands	r0, r3
10003ea2:	421a      	tst	r2, r3
10003ea4:	d141      	bne.n	10003f2a <gpio_default_irq_handler+0x1be>
10003ea6:	0c23      	lsrs	r3, r4, #16
10003ea8:	1f31      	subs	r1, r6, #4
10003eaa:	2b00      	cmp	r3, #0
10003eac:	d0a9      	beq.n	10003e02 <gpio_default_irq_handler+0x96>
10003eae:	220f      	movs	r2, #15
10003eb0:	0010      	movs	r0, r2
10003eb2:	4018      	ands	r0, r3
10003eb4:	421a      	tst	r2, r3
10003eb6:	d152      	bne.n	10003f5e <gpio_default_irq_handler+0x1f2>
10003eb8:	0d23      	lsrs	r3, r4, #20
10003eba:	1ef1      	subs	r1, r6, #3
10003ebc:	2b00      	cmp	r3, #0
10003ebe:	d0a0      	beq.n	10003e02 <gpio_default_irq_handler+0x96>
10003ec0:	220f      	movs	r2, #15
10003ec2:	0010      	movs	r0, r2
10003ec4:	4018      	ands	r0, r3
10003ec6:	421a      	tst	r2, r3
10003ec8:	d15a      	bne.n	10003f80 <gpio_default_irq_handler+0x214>
10003eca:	0e23      	lsrs	r3, r4, #24
10003ecc:	1eb1      	subs	r1, r6, #2
10003ece:	2b00      	cmp	r3, #0
10003ed0:	d097      	beq.n	10003e02 <gpio_default_irq_handler+0x96>
10003ed2:	220f      	movs	r2, #15
10003ed4:	0010      	movs	r0, r2
10003ed6:	4018      	ands	r0, r3
10003ed8:	421a      	tst	r2, r3
10003eda:	d00f      	beq.n	10003efc <gpio_default_irq_handler+0x190>
10003edc:	2301      	movs	r3, #1
10003ede:	4645      	mov	r5, r8
10003ee0:	408b      	lsls	r3, r1
10003ee2:	4a32      	ldr	r2, [pc, #200]	; (10003fac <gpio_default_irq_handler+0x240>)
10003ee4:	5952      	ldr	r2, [r2, r5]
10003ee6:	421a      	tst	r2, r3
10003ee8:	d108      	bne.n	10003efc <gpio_default_irq_handler+0x190>
10003eea:	2207      	movs	r2, #7
10003eec:	08cb      	lsrs	r3, r1, #3
10003eee:	4011      	ands	r1, r2
10003ef0:	0089      	lsls	r1, r1, #2
10003ef2:	4088      	lsls	r0, r1
10003ef4:	4a2e      	ldr	r2, [pc, #184]	; (10003fb0 <gpio_default_irq_handler+0x244>)
10003ef6:	333c      	adds	r3, #60	; 0x3c
10003ef8:	009b      	lsls	r3, r3, #2
10003efa:	5098      	str	r0, [r3, r2]
10003efc:	0f24      	lsrs	r4, r4, #28
10003efe:	1e72      	subs	r2, r6, #1
10003f00:	2c00      	cmp	r4, #0
10003f02:	d100      	bne.n	10003f06 <gpio_default_irq_handler+0x19a>
10003f04:	e77d      	b.n	10003e02 <gpio_default_irq_handler+0x96>
10003f06:	2301      	movs	r3, #1
10003f08:	4651      	mov	r1, sl
10003f0a:	4640      	mov	r0, r8
10003f0c:	4093      	lsls	r3, r2
10003f0e:	5809      	ldr	r1, [r1, r0]
10003f10:	4219      	tst	r1, r3
10003f12:	d000      	beq.n	10003f16 <gpio_default_irq_handler+0x1aa>
10003f14:	e775      	b.n	10003e02 <gpio_default_irq_handler+0x96>
10003f16:	2107      	movs	r1, #7
10003f18:	08d3      	lsrs	r3, r2, #3
10003f1a:	400a      	ands	r2, r1
10003f1c:	0092      	lsls	r2, r2, #2
10003f1e:	4094      	lsls	r4, r2
10003f20:	333c      	adds	r3, #60	; 0x3c
10003f22:	4a23      	ldr	r2, [pc, #140]	; (10003fb0 <gpio_default_irq_handler+0x244>)
10003f24:	009b      	lsls	r3, r3, #2
10003f26:	509c      	str	r4, [r3, r2]
10003f28:	e76b      	b.n	10003e02 <gpio_default_irq_handler+0x96>
10003f2a:	2301      	movs	r3, #1
10003f2c:	4645      	mov	r5, r8
10003f2e:	408b      	lsls	r3, r1
10003f30:	4a1e      	ldr	r2, [pc, #120]	; (10003fac <gpio_default_irq_handler+0x240>)
10003f32:	5952      	ldr	r2, [r2, r5]
10003f34:	421a      	tst	r2, r3
10003f36:	d1b6      	bne.n	10003ea6 <gpio_default_irq_handler+0x13a>
10003f38:	2207      	movs	r2, #7
10003f3a:	08cb      	lsrs	r3, r1, #3
10003f3c:	4011      	ands	r1, r2
10003f3e:	0089      	lsls	r1, r1, #2
10003f40:	4088      	lsls	r0, r1
10003f42:	4a1b      	ldr	r2, [pc, #108]	; (10003fb0 <gpio_default_irq_handler+0x244>)
10003f44:	333c      	adds	r3, #60	; 0x3c
10003f46:	009b      	lsls	r3, r3, #2
10003f48:	5098      	str	r0, [r3, r2]
10003f4a:	e7ac      	b.n	10003ea6 <gpio_default_irq_handler+0x13a>
10003f4c:	2307      	movs	r3, #7
10003f4e:	401d      	ands	r5, r3
10003f50:	00ad      	lsls	r5, r5, #2
10003f52:	40a9      	lsls	r1, r5
10003f54:	4b16      	ldr	r3, [pc, #88]	; (10003fb0 <gpio_default_irq_handler+0x244>)
10003f56:	323c      	adds	r2, #60	; 0x3c
10003f58:	0092      	lsls	r2, r2, #2
10003f5a:	50d1      	str	r1, [r2, r3]
10003f5c:	e768      	b.n	10003e30 <gpio_default_irq_handler+0xc4>
10003f5e:	2301      	movs	r3, #1
10003f60:	4645      	mov	r5, r8
10003f62:	408b      	lsls	r3, r1
10003f64:	4a11      	ldr	r2, [pc, #68]	; (10003fac <gpio_default_irq_handler+0x240>)
10003f66:	5952      	ldr	r2, [r2, r5]
10003f68:	421a      	tst	r2, r3
10003f6a:	d1a5      	bne.n	10003eb8 <gpio_default_irq_handler+0x14c>
10003f6c:	2207      	movs	r2, #7
10003f6e:	08cb      	lsrs	r3, r1, #3
10003f70:	4011      	ands	r1, r2
10003f72:	0089      	lsls	r1, r1, #2
10003f74:	4088      	lsls	r0, r1
10003f76:	4a0e      	ldr	r2, [pc, #56]	; (10003fb0 <gpio_default_irq_handler+0x244>)
10003f78:	333c      	adds	r3, #60	; 0x3c
10003f7a:	009b      	lsls	r3, r3, #2
10003f7c:	5098      	str	r0, [r3, r2]
10003f7e:	e79b      	b.n	10003eb8 <gpio_default_irq_handler+0x14c>
10003f80:	2301      	movs	r3, #1
10003f82:	4645      	mov	r5, r8
10003f84:	408b      	lsls	r3, r1
10003f86:	4a09      	ldr	r2, [pc, #36]	; (10003fac <gpio_default_irq_handler+0x240>)
10003f88:	5952      	ldr	r2, [r2, r5]
10003f8a:	421a      	tst	r2, r3
10003f8c:	d19d      	bne.n	10003eca <gpio_default_irq_handler+0x15e>
10003f8e:	2207      	movs	r2, #7
10003f90:	08cb      	lsrs	r3, r1, #3
10003f92:	4011      	ands	r1, r2
10003f94:	0089      	lsls	r1, r1, #2
10003f96:	4088      	lsls	r0, r1
10003f98:	4a05      	ldr	r2, [pc, #20]	; (10003fb0 <gpio_default_irq_handler+0x244>)
10003f9a:	333c      	adds	r3, #60	; 0x3c
10003f9c:	009b      	lsls	r3, r3, #2
10003f9e:	5098      	str	r0, [r3, r2]
10003fa0:	e793      	b.n	10003eca <gpio_default_irq_handler+0x15e>
10003fa2:	46c0      	nop			; (mov r8, r8)
10003fa4:	2002662c 	.word	0x2002662c
10003fa8:	40014100 	.word	0x40014100
10003fac:	20026b38 	.word	0x20026b38
10003fb0:	40014000 	.word	0x40014000

10003fb4 <gpio_set_function>:
10003fb4:	4a09      	ldr	r2, [pc, #36]	; (10003fdc <gpio_set_function+0x28>)
10003fb6:	0083      	lsls	r3, r0, #2
10003fb8:	4694      	mov	ip, r2
10003fba:	2240      	movs	r2, #64	; 0x40
10003fbc:	4463      	add	r3, ip
10003fbe:	b510      	push	{r4, lr}
10003fc0:	681c      	ldr	r4, [r3, #0]
10003fc2:	00c0      	lsls	r0, r0, #3
10003fc4:	4062      	eors	r2, r4
10003fc6:	24c0      	movs	r4, #192	; 0xc0
10003fc8:	4014      	ands	r4, r2
10003fca:	2280      	movs	r2, #128	; 0x80
10003fcc:	0152      	lsls	r2, r2, #5
10003fce:	4313      	orrs	r3, r2
10003fd0:	601c      	str	r4, [r3, #0]
10003fd2:	4b03      	ldr	r3, [pc, #12]	; (10003fe0 <gpio_set_function+0x2c>)
10003fd4:	469c      	mov	ip, r3
10003fd6:	4460      	add	r0, ip
10003fd8:	6041      	str	r1, [r0, #4]
10003fda:	bd10      	pop	{r4, pc}
10003fdc:	4001c004 	.word	0x4001c004
10003fe0:	40014000 	.word	0x40014000

10003fe4 <gpio_set_pulls>:
10003fe4:	4b0a      	ldr	r3, [pc, #40]	; (10004010 <gpio_set_pulls+0x2c>)
10003fe6:	0080      	lsls	r0, r0, #2
10003fe8:	469c      	mov	ip, r3
10003fea:	2304      	movs	r3, #4
10003fec:	4460      	add	r0, ip
10003fee:	2900      	cmp	r1, #0
10003ff0:	d001      	beq.n	10003ff6 <gpio_set_pulls+0x12>
10003ff2:	230c      	movs	r3, #12
10003ff4:	2108      	movs	r1, #8
10003ff6:	2a00      	cmp	r2, #0
10003ff8:	d100      	bne.n	10003ffc <gpio_set_pulls+0x18>
10003ffa:	000b      	movs	r3, r1
10003ffc:	6802      	ldr	r2, [r0, #0]
10003ffe:	4053      	eors	r3, r2
10004000:	220c      	movs	r2, #12
10004002:	401a      	ands	r2, r3
10004004:	2380      	movs	r3, #128	; 0x80
10004006:	015b      	lsls	r3, r3, #5
10004008:	4318      	orrs	r0, r3
1000400a:	6002      	str	r2, [r0, #0]
1000400c:	4770      	bx	lr
1000400e:	46c0      	nop			; (mov r8, r8)
10004010:	4001c004 	.word	0x4001c004

10004014 <gpio_set_irq_enabled>:
10004014:	23d0      	movs	r3, #208	; 0xd0
10004016:	061b      	lsls	r3, r3, #24
10004018:	681b      	ldr	r3, [r3, #0]
1000401a:	b530      	push	{r4, r5, lr}
1000401c:	0005      	movs	r5, r0
1000401e:	1e58      	subs	r0, r3, #1
10004020:	4183      	sbcs	r3, r0
10004022:	480f      	ldr	r0, [pc, #60]	; (10004060 <gpio_set_irq_enabled+0x4c>)
10004024:	425c      	negs	r4, r3
10004026:	4684      	mov	ip, r0
10004028:	2007      	movs	r0, #7
1000402a:	2330      	movs	r3, #48	; 0x30
1000402c:	4028      	ands	r0, r5
1000402e:	4023      	ands	r3, r4
10004030:	0080      	lsls	r0, r0, #2
10004032:	08ec      	lsrs	r4, r5, #3
10004034:	4081      	lsls	r1, r0
10004036:	0020      	movs	r0, r4
10004038:	4d0a      	ldr	r5, [pc, #40]	; (10004064 <gpio_set_irq_enabled+0x50>)
1000403a:	303c      	adds	r0, #60	; 0x3c
1000403c:	4463      	add	r3, ip
1000403e:	0080      	lsls	r0, r0, #2
10004040:	00a4      	lsls	r4, r4, #2
10004042:	5141      	str	r1, [r0, r5]
10004044:	191b      	adds	r3, r3, r4
10004046:	2a00      	cmp	r2, #0
10004048:	d004      	beq.n	10004054 <gpio_set_irq_enabled+0x40>
1000404a:	2280      	movs	r2, #128	; 0x80
1000404c:	0192      	lsls	r2, r2, #6
1000404e:	4313      	orrs	r3, r2
10004050:	6019      	str	r1, [r3, #0]
10004052:	bd30      	pop	{r4, r5, pc}
10004054:	22c0      	movs	r2, #192	; 0xc0
10004056:	0192      	lsls	r2, r2, #6
10004058:	4313      	orrs	r3, r2
1000405a:	6019      	str	r1, [r3, #0]
1000405c:	e7f9      	b.n	10004052 <gpio_set_irq_enabled+0x3e>
1000405e:	46c0      	nop			; (mov r8, r8)
10004060:	40014100 	.word	0x40014100
10004064:	40014000 	.word	0x40014000

10004068 <gpio_set_irq_enabled_with_callback>:
10004068:	b5f8      	push	{r3, r4, r5, r6, r7, lr}
1000406a:	001e      	movs	r6, r3
1000406c:	23d0      	movs	r3, #208	; 0xd0
1000406e:	061b      	lsls	r3, r3, #24
10004070:	681c      	ldr	r4, [r3, #0]
10004072:	0007      	movs	r7, r0
10004074:	1e63      	subs	r3, r4, #1
10004076:	419c      	sbcs	r4, r3
10004078:	2330      	movs	r3, #48	; 0x30
1000407a:	4264      	negs	r4, r4
1000407c:	401c      	ands	r4, r3
1000407e:	4b22      	ldr	r3, [pc, #136]	; (10004108 <gpio_set_irq_enabled_with_callback+0xa0>)
10004080:	0015      	movs	r5, r2
10004082:	469c      	mov	ip, r3
10004084:	08c3      	lsrs	r3, r0, #3
10004086:	2007      	movs	r0, #7
10004088:	001a      	movs	r2, r3
1000408a:	4038      	ands	r0, r7
1000408c:	0080      	lsls	r0, r0, #2
1000408e:	4081      	lsls	r1, r0
10004090:	323c      	adds	r2, #60	; 0x3c
10004092:	481e      	ldr	r0, [pc, #120]	; (1000410c <gpio_set_irq_enabled_with_callback+0xa4>)
10004094:	4464      	add	r4, ip
10004096:	0092      	lsls	r2, r2, #2
10004098:	009b      	lsls	r3, r3, #2
1000409a:	5011      	str	r1, [r2, r0]
1000409c:	18e4      	adds	r4, r4, r3
1000409e:	2d00      	cmp	r5, #0
100040a0:	d011      	beq.n	100040c6 <gpio_set_irq_enabled_with_callback+0x5e>
100040a2:	2380      	movs	r3, #128	; 0x80
100040a4:	019b      	lsls	r3, r3, #6
100040a6:	431c      	orrs	r4, r3
100040a8:	23d0      	movs	r3, #208	; 0xd0
100040aa:	6021      	str	r1, [r4, #0]
100040ac:	061b      	lsls	r3, r3, #24
100040ae:	681c      	ldr	r4, [r3, #0]
100040b0:	4f17      	ldr	r7, [pc, #92]	; (10004110 <gpio_set_irq_enabled_with_callback+0xa8>)
100040b2:	00a4      	lsls	r4, r4, #2
100040b4:	593b      	ldr	r3, [r7, r4]
100040b6:	2b00      	cmp	r3, #0
100040b8:	d011      	beq.n	100040de <gpio_set_irq_enabled_with_callback+0x76>
100040ba:	2e00      	cmp	r6, #0
100040bc:	d01e      	beq.n	100040fc <gpio_set_irq_enabled_with_callback+0x94>
100040be:	513e      	str	r6, [r7, r4]
100040c0:	2d00      	cmp	r5, #0
100040c2:	d116      	bne.n	100040f2 <gpio_set_irq_enabled_with_callback+0x8a>
100040c4:	bdf8      	pop	{r3, r4, r5, r6, r7, pc}
100040c6:	23c0      	movs	r3, #192	; 0xc0
100040c8:	019b      	lsls	r3, r3, #6
100040ca:	431c      	orrs	r4, r3
100040cc:	23d0      	movs	r3, #208	; 0xd0
100040ce:	6021      	str	r1, [r4, #0]
100040d0:	061b      	lsls	r3, r3, #24
100040d2:	681c      	ldr	r4, [r3, #0]
100040d4:	4f0e      	ldr	r7, [pc, #56]	; (10004110 <gpio_set_irq_enabled_with_callback+0xa8>)
100040d6:	00a4      	lsls	r4, r4, #2
100040d8:	593b      	ldr	r3, [r7, r4]
100040da:	2b00      	cmp	r3, #0
100040dc:	d1ed      	bne.n	100040ba <gpio_set_irq_enabled_with_callback+0x52>
100040de:	2e00      	cmp	r6, #0
100040e0:	d0ee      	beq.n	100040c0 <gpio_set_irq_enabled_with_callback+0x58>
100040e2:	2200      	movs	r2, #0
100040e4:	200d      	movs	r0, #13
100040e6:	490b      	ldr	r1, [pc, #44]	; (10004114 <gpio_set_irq_enabled_with_callback+0xac>)
100040e8:	513e      	str	r6, [r7, r4]
100040ea:	f000 f94b 	bl	10004384 <irq_add_shared_handler>
100040ee:	2d00      	cmp	r5, #0
100040f0:	d0e8      	beq.n	100040c4 <gpio_set_irq_enabled_with_callback+0x5c>
100040f2:	2101      	movs	r1, #1
100040f4:	200d      	movs	r0, #13
100040f6:	f000 f8e3 	bl	100042c0 <irq_set_enabled>
100040fa:	e7e3      	b.n	100040c4 <gpio_set_irq_enabled_with_callback+0x5c>
100040fc:	200d      	movs	r0, #13
100040fe:	4905      	ldr	r1, [pc, #20]	; (10004114 <gpio_set_irq_enabled_with_callback+0xac>)
10004100:	f000 fa32 	bl	10004568 <irq_remove_handler>
10004104:	e7db      	b.n	100040be <gpio_set_irq_enabled_with_callback+0x56>
10004106:	46c0      	nop			; (mov r8, r8)
10004108:	40014100 	.word	0x40014100
1000410c:	40014000 	.word	0x40014000
10004110:	2002662c 	.word	0x2002662c
10004114:	10003d6d 	.word	0x10003d6d

10004118 <gpio_set_input_enabled>:
10004118:	4b08      	ldr	r3, [pc, #32]	; (1000413c <gpio_set_input_enabled+0x24>)
1000411a:	0080      	lsls	r0, r0, #2
1000411c:	469c      	mov	ip, r3
1000411e:	4460      	add	r0, ip
10004120:	2900      	cmp	r1, #0
10004122:	d005      	beq.n	10004130 <gpio_set_input_enabled+0x18>
10004124:	2380      	movs	r3, #128	; 0x80
10004126:	019b      	lsls	r3, r3, #6
10004128:	4318      	orrs	r0, r3
1000412a:	2340      	movs	r3, #64	; 0x40
1000412c:	6003      	str	r3, [r0, #0]
1000412e:	4770      	bx	lr
10004130:	23c0      	movs	r3, #192	; 0xc0
10004132:	019b      	lsls	r3, r3, #6
10004134:	4318      	orrs	r0, r3
10004136:	2340      	movs	r3, #64	; 0x40
10004138:	6003      	str	r3, [r0, #0]
1000413a:	e7f8      	b.n	1000412e <gpio_set_input_enabled+0x16>
1000413c:	4001c004 	.word	0x4001c004

10004140 <gpio_init>:
10004140:	2301      	movs	r3, #1
10004142:	22d0      	movs	r2, #208	; 0xd0
10004144:	4083      	lsls	r3, r0
10004146:	0612      	lsls	r2, r2, #24
10004148:	6293      	str	r3, [r2, #40]	; 0x28
1000414a:	6193      	str	r3, [r2, #24]
1000414c:	4a09      	ldr	r2, [pc, #36]	; (10004174 <gpio_init+0x34>)
1000414e:	0083      	lsls	r3, r0, #2
10004150:	4694      	mov	ip, r2
10004152:	2240      	movs	r2, #64	; 0x40
10004154:	4463      	add	r3, ip
10004156:	6819      	ldr	r1, [r3, #0]
10004158:	00c0      	lsls	r0, r0, #3
1000415a:	404a      	eors	r2, r1
1000415c:	21c0      	movs	r1, #192	; 0xc0
1000415e:	4011      	ands	r1, r2
10004160:	2280      	movs	r2, #128	; 0x80
10004162:	0152      	lsls	r2, r2, #5
10004164:	4313      	orrs	r3, r2
10004166:	6019      	str	r1, [r3, #0]
10004168:	4b03      	ldr	r3, [pc, #12]	; (10004178 <gpio_init+0x38>)
1000416a:	469c      	mov	ip, r3
1000416c:	2305      	movs	r3, #5
1000416e:	4460      	add	r0, ip
10004170:	6043      	str	r3, [r0, #4]
10004172:	4770      	bx	lr
10004174:	4001c004 	.word	0x4001c004
10004178:	40014000 	.word	0x40014000

1000417c <hw_claim_or_assert>:
1000417c:	b570      	push	{r4, r5, r6, lr}
1000417e:	f3ef 8c10 	mrs	ip, PRIMASK
10004182:	b672      	cpsid	i
10004184:	4d0d      	ldr	r5, [pc, #52]	; (100041bc <hw_claim_or_assert+0x40>)
10004186:	682b      	ldr	r3, [r5, #0]
10004188:	2b00      	cmp	r3, #0
1000418a:	d0fc      	beq.n	10004186 <hw_claim_or_assert+0xa>
1000418c:	f3bf 8f5f 	dmb	sy
10004190:	2407      	movs	r4, #7
10004192:	08cb      	lsrs	r3, r1, #3
10004194:	18c6      	adds	r6, r0, r3
10004196:	5cc0      	ldrb	r0, [r0, r3]
10004198:	2301      	movs	r3, #1
1000419a:	400c      	ands	r4, r1
1000419c:	40a3      	lsls	r3, r4
1000419e:	001c      	movs	r4, r3
100041a0:	4004      	ands	r4, r0
100041a2:	4203      	tst	r3, r0
100041a4:	d107      	bne.n	100041b6 <hw_claim_or_assert+0x3a>
100041a6:	4303      	orrs	r3, r0
100041a8:	7033      	strb	r3, [r6, #0]
100041aa:	f3bf 8f5f 	dmb	sy
100041ae:	602c      	str	r4, [r5, #0]
100041b0:	f38c 8810 	msr	PRIMASK, ip
100041b4:	bd70      	pop	{r4, r5, r6, pc}
100041b6:	0010      	movs	r0, r2
100041b8:	f001 fb90 	bl	100058dc <panic>
100041bc:	d000012c 	.word	0xd000012c

100041c0 <hw_claim_unused_from_range>:
100041c0:	b5f8      	push	{r3, r4, r5, r6, r7, lr}
100041c2:	4647      	mov	r7, r8
100041c4:	46ce      	mov	lr, r9
100041c6:	4688      	mov	r8, r1
100041c8:	b580      	push	{r7, lr}
100041ca:	f3ef 8c10 	mrs	ip, PRIMASK
100041ce:	b672      	cpsid	i
100041d0:	4d21      	ldr	r5, [pc, #132]	; (10004258 <hw_claim_unused_from_range+0x98>)
100041d2:	682c      	ldr	r4, [r5, #0]
100041d4:	2c00      	cmp	r4, #0
100041d6:	d0fc      	beq.n	100041d2 <hw_claim_unused_from_range+0x12>
100041d8:	f3bf 8f5f 	dmb	sy
100041dc:	429a      	cmp	r2, r3
100041de:	d82c      	bhi.n	1000423a <hw_claim_unused_from_range+0x7a>
100041e0:	08d4      	lsrs	r4, r2, #3
100041e2:	2707      	movs	r7, #7
100041e4:	5d05      	ldrb	r5, [r0, r4]
100041e6:	1906      	adds	r6, r0, r4
100041e8:	2401      	movs	r4, #1
100041ea:	4017      	ands	r7, r2
100041ec:	40bc      	lsls	r4, r7
100041ee:	422c      	tst	r4, r5
100041f0:	d01f      	beq.n	10004232 <hw_claim_unused_from_range+0x72>
100041f2:	2107      	movs	r1, #7
100041f4:	2701      	movs	r7, #1
100041f6:	4689      	mov	r9, r1
100041f8:	e009      	b.n	1000420e <hw_claim_unused_from_range+0x4e>
100041fa:	08d4      	lsrs	r4, r2, #3
100041fc:	5d05      	ldrb	r5, [r0, r4]
100041fe:	1906      	adds	r6, r0, r4
10004200:	464c      	mov	r4, r9
10004202:	0039      	movs	r1, r7
10004204:	4014      	ands	r4, r2
10004206:	40a1      	lsls	r1, r4
10004208:	000c      	movs	r4, r1
1000420a:	4229      	tst	r1, r5
1000420c:	d011      	beq.n	10004232 <hw_claim_unused_from_range+0x72>
1000420e:	3201      	adds	r2, #1
10004210:	4293      	cmp	r3, r2
10004212:	d2f2      	bcs.n	100041fa <hw_claim_unused_from_range+0x3a>
10004214:	2001      	movs	r0, #1
10004216:	4240      	negs	r0, r0
10004218:	f3bf 8f5f 	dmb	sy
1000421c:	2200      	movs	r2, #0
1000421e:	4b0e      	ldr	r3, [pc, #56]	; (10004258 <hw_claim_unused_from_range+0x98>)
10004220:	601a      	str	r2, [r3, #0]
10004222:	f38c 8810 	msr	PRIMASK, ip
10004226:	2800      	cmp	r0, #0
10004228:	db0f      	blt.n	1000424a <hw_claim_unused_from_range+0x8a>
1000422a:	bcc0      	pop	{r6, r7}
1000422c:	46b9      	mov	r9, r7
1000422e:	46b0      	mov	r8, r6
10004230:	bdf8      	pop	{r3, r4, r5, r6, r7, pc}
10004232:	432c      	orrs	r4, r5
10004234:	0010      	movs	r0, r2
10004236:	7034      	strb	r4, [r6, #0]
10004238:	e7ee      	b.n	10004218 <hw_claim_unused_from_range+0x58>
1000423a:	f3bf 8f5f 	dmb	sy
1000423e:	2300      	movs	r3, #0
10004240:	602b      	str	r3, [r5, #0]
10004242:	f38c 8810 	msr	PRIMASK, ip
10004246:	2001      	movs	r0, #1
10004248:	4240      	negs	r0, r0
1000424a:	4643      	mov	r3, r8
1000424c:	2b00      	cmp	r3, #0
1000424e:	d0ec      	beq.n	1000422a <hw_claim_unused_from_range+0x6a>
10004250:	9808      	ldr	r0, [sp, #32]
10004252:	f001 fb43 	bl	100058dc <panic>
10004256:	46c0      	nop			; (mov r8, r8)
10004258:	d000012c 	.word	0xd000012c

1000425c <running_on_fpga>:
1000425c:	4b02      	ldr	r3, [pc, #8]	; (10004268 <running_on_fpga+0xc>)
1000425e:	6818      	ldr	r0, [r3, #0]
10004260:	0780      	lsls	r0, r0, #30
10004262:	0fc0      	lsrs	r0, r0, #31
10004264:	4770      	bx	lr
10004266:	46c0      	nop			; (mov r8, r8)
10004268:	4006c000 	.word	0x4006c000

1000426c <spin_locks_reset>:
1000426c:	2100      	movs	r1, #0
1000426e:	4b04      	ldr	r3, [pc, #16]	; (10004280 <spin_locks_reset+0x14>)
10004270:	4a04      	ldr	r2, [pc, #16]	; (10004284 <spin_locks_reset+0x18>)
10004272:	f3bf 8f5f 	dmb	sy
10004276:	c302      	stmia	r3!, {r1}
10004278:	4293      	cmp	r3, r2
1000427a:	d1fa      	bne.n	10004272 <spin_locks_reset+0x6>
1000427c:	4770      	bx	lr
1000427e:	46c0      	nop			; (mov r8, r8)
10004280:	d0000100 	.word	0xd0000100
10004284:	d0000180 	.word	0xd0000180

10004288 <next_striped_spin_lock_num>:
10004288:	4a04      	ldr	r2, [pc, #16]	; (1000429c <next_striped_spin_lock_num+0x14>)
1000428a:	7810      	ldrb	r0, [r2, #0]
1000428c:	1c43      	adds	r3, r0, #1
1000428e:	b2db      	uxtb	r3, r3
10004290:	2b17      	cmp	r3, #23
10004292:	d900      	bls.n	10004296 <next_striped_spin_lock_num+0xe>
10004294:	2310      	movs	r3, #16
10004296:	7013      	strb	r3, [r2, #0]
10004298:	4770      	bx	lr
1000429a:	46c0      	nop			; (mov r8, r8)
1000429c:	200004ac 	.word	0x200004ac

100042a0 <spin_lock_claim_unused>:
100042a0:	b500      	push	{lr}
100042a2:	4b05      	ldr	r3, [pc, #20]	; (100042b8 <spin_lock_claim_unused+0x18>)
100042a4:	b083      	sub	sp, #12
100042a6:	0001      	movs	r1, r0
100042a8:	9300      	str	r3, [sp, #0]
100042aa:	2218      	movs	r2, #24
100042ac:	231f      	movs	r3, #31
100042ae:	4803      	ldr	r0, [pc, #12]	; (100042bc <spin_lock_claim_unused+0x1c>)
100042b0:	f7ff ff86 	bl	100041c0 <hw_claim_unused_from_range>
100042b4:	b003      	add	sp, #12
100042b6:	bd00      	pop	{pc}
100042b8:	10012894 	.word	0x10012894
100042bc:	20026634 	.word	0x20026634

100042c0 <irq_set_enabled>:
100042c0:	2301      	movs	r3, #1
100042c2:	4083      	lsls	r3, r0
100042c4:	2900      	cmp	r1, #0
100042c6:	d004      	beq.n	100042d2 <irq_set_enabled+0x12>
100042c8:	4a03      	ldr	r2, [pc, #12]	; (100042d8 <irq_set_enabled+0x18>)
100042ca:	6013      	str	r3, [r2, #0]
100042cc:	4a03      	ldr	r2, [pc, #12]	; (100042dc <irq_set_enabled+0x1c>)
100042ce:	6013      	str	r3, [r2, #0]
100042d0:	4770      	bx	lr
100042d2:	4a03      	ldr	r2, [pc, #12]	; (100042e0 <irq_set_enabled+0x20>)
100042d4:	6013      	str	r3, [r2, #0]
100042d6:	e7fb      	b.n	100042d0 <irq_set_enabled+0x10>
100042d8:	e000e280 	.word	0xe000e280
100042dc:	e000e100 	.word	0xe000e100
100042e0:	e000e180 	.word	0xe000e180

100042e4 <irq_set_pending>:
100042e4:	2301      	movs	r3, #1
100042e6:	4083      	lsls	r3, r0
100042e8:	4a01      	ldr	r2, [pc, #4]	; (100042f0 <irq_set_pending+0xc>)
100042ea:	6013      	str	r3, [r2, #0]
100042ec:	4770      	bx	lr
100042ee:	46c0      	nop			; (mov r8, r8)
100042f0:	e000e200 	.word	0xe000e200

100042f4 <irq_has_shared_handler>:
100042f4:	4b08      	ldr	r3, [pc, #32]	; (10004318 <irq_has_shared_handler+0x24>)
100042f6:	3010      	adds	r0, #16
100042f8:	689b      	ldr	r3, [r3, #8]
100042fa:	0080      	lsls	r0, r0, #2
100042fc:	58c3      	ldr	r3, [r0, r3]
100042fe:	2b00      	cmp	r3, #0
10004300:	d007      	beq.n	10004312 <irq_has_shared_handler+0x1e>
10004302:	4a06      	ldr	r2, [pc, #24]	; (1000431c <irq_has_shared_handler+0x28>)
10004304:	2000      	movs	r0, #0
10004306:	1a9b      	subs	r3, r3, r2
10004308:	222f      	movs	r2, #47	; 0x2f
1000430a:	429a      	cmp	r2, r3
1000430c:	4140      	adcs	r0, r0
1000430e:	b2c0      	uxtb	r0, r0
10004310:	4770      	bx	lr
10004312:	2000      	movs	r0, #0
10004314:	e7fc      	b.n	10004310 <irq_has_shared_handler+0x1c>
10004316:	46c0      	nop			; (mov r8, r8)
10004318:	e000ed00 	.word	0xe000ed00
1000431c:	200004b0 	.word	0x200004b0

10004320 <irq_get_vtable_handler>:
10004320:	4b02      	ldr	r3, [pc, #8]	; (1000432c <irq_get_vtable_handler+0xc>)
10004322:	3010      	adds	r0, #16
10004324:	689b      	ldr	r3, [r3, #8]
10004326:	0080      	lsls	r0, r0, #2
10004328:	58c0      	ldr	r0, [r0, r3]
1000432a:	4770      	bx	lr
1000432c:	e000ed00 	.word	0xe000ed00

10004330 <irq_set_exclusive_handler>:
10004330:	b570      	push	{r4, r5, r6, lr}
10004332:	000d      	movs	r5, r1
10004334:	f3ef 8610 	mrs	r6, PRIMASK
10004338:	b672      	cpsid	i
1000433a:	4a0f      	ldr	r2, [pc, #60]	; (10004378 <irq_set_exclusive_handler+0x48>)
1000433c:	6813      	ldr	r3, [r2, #0]
1000433e:	2b00      	cmp	r3, #0
10004340:	d0fc      	beq.n	1000433c <irq_set_exclusive_handler+0xc>
10004342:	f3bf 8f5f 	dmb	sy
10004346:	4b0d      	ldr	r3, [pc, #52]	; (1000437c <irq_set_exclusive_handler+0x4c>)
10004348:	3010      	adds	r0, #16
1000434a:	689b      	ldr	r3, [r3, #8]
1000434c:	0084      	lsls	r4, r0, #2
1000434e:	591b      	ldr	r3, [r3, r4]
10004350:	4a0b      	ldr	r2, [pc, #44]	; (10004380 <irq_set_exclusive_handler+0x50>)
10004352:	4293      	cmp	r3, r2
10004354:	d003      	beq.n	1000435e <irq_set_exclusive_handler+0x2e>
10004356:	429d      	cmp	r5, r3
10004358:	d001      	beq.n	1000435e <irq_set_exclusive_handler+0x2e>
1000435a:	f001 fad7 	bl	1000590c <hard_assertion_failure>
1000435e:	4b07      	ldr	r3, [pc, #28]	; (1000437c <irq_set_exclusive_handler+0x4c>)
10004360:	689b      	ldr	r3, [r3, #8]
10004362:	511d      	str	r5, [r3, r4]
10004364:	f3bf 8f5f 	dmb	sy
10004368:	f3bf 8f5f 	dmb	sy
1000436c:	2200      	movs	r2, #0
1000436e:	4b02      	ldr	r3, [pc, #8]	; (10004378 <irq_set_exclusive_handler+0x48>)
10004370:	601a      	str	r2, [r3, #0]
10004372:	f386 8810 	msr	PRIMASK, r6
10004376:	bd70      	pop	{r4, r5, r6, pc}
10004378:	d0000124 	.word	0xd0000124
1000437c:	e000ed00 	.word	0xe000ed00
10004380:	100001cd 	.word	0x100001cd

10004384 <irq_add_shared_handler>:
10004384:	b5f0      	push	{r4, r5, r6, r7, lr}
10004386:	4657      	mov	r7, sl
10004388:	464e      	mov	r6, r9
1000438a:	46de      	mov	lr, fp
1000438c:	4645      	mov	r5, r8
1000438e:	b5e0      	push	{r5, r6, r7, lr}
10004390:	b085      	sub	sp, #20
10004392:	0006      	movs	r6, r0
10004394:	9102      	str	r1, [sp, #8]
10004396:	0017      	movs	r7, r2
10004398:	f3ef 8b10 	mrs	fp, PRIMASK
1000439c:	b672      	cpsid	i
1000439e:	4a67      	ldr	r2, [pc, #412]	; (1000453c <irq_add_shared_handler+0x1b8>)
100043a0:	6813      	ldr	r3, [r2, #0]
100043a2:	2b00      	cmp	r3, #0
100043a4:	d0fc      	beq.n	100043a0 <irq_add_shared_handler+0x1c>
100043a6:	f3bf 8f5f 	dmb	sy
100043aa:	2500      	movs	r5, #0
100043ac:	4b64      	ldr	r3, [pc, #400]	; (10004540 <irq_add_shared_handler+0x1bc>)
100043ae:	575d      	ldrsb	r5, [r3, r5]
100043b0:	469a      	mov	sl, r3
100043b2:	2d00      	cmp	r5, #0
100043b4:	da00      	bge.n	100043b8 <irq_add_shared_handler+0x34>
100043b6:	e0a5      	b.n	10004504 <irq_add_shared_handler+0x180>
100043b8:	006b      	lsls	r3, r5, #1
100043ba:	4c62      	ldr	r4, [pc, #392]	; (10004544 <irq_add_shared_handler+0x1c0>)
100043bc:	9303      	str	r3, [sp, #12]
100043be:	195b      	adds	r3, r3, r5
100043c0:	009b      	lsls	r3, r3, #2
100043c2:	4698      	mov	r8, r3
100043c4:	46a1      	mov	r9, r4
100043c6:	44c1      	add	r9, r8
100043c8:	464b      	mov	r3, r9
100043ca:	4652      	mov	r2, sl
100043cc:	799b      	ldrb	r3, [r3, #6]
100043ce:	3610      	adds	r6, #16
100043d0:	7013      	strb	r3, [r2, #0]
100043d2:	4b5d      	ldr	r3, [pc, #372]	; (10004548 <irq_add_shared_handler+0x1c4>)
100043d4:	00b2      	lsls	r2, r6, #2
100043d6:	689b      	ldr	r3, [r3, #8]
100043d8:	9201      	str	r2, [sp, #4]
100043da:	5899      	ldr	r1, [r3, r2]
100043dc:	1b0b      	subs	r3, r1, r4
100043de:	2b2f      	cmp	r3, #47	; 0x2f
100043e0:	d934      	bls.n	1000444c <irq_add_shared_handler+0xc8>
100043e2:	4b5a      	ldr	r3, [pc, #360]	; (1000454c <irq_add_shared_handler+0x1c8>)
100043e4:	4299      	cmp	r1, r3
100043e6:	d000      	beq.n	100043ea <irq_add_shared_handler+0x66>
100043e8:	e0a5      	b.n	10004536 <irq_add_shared_handler+0x1b2>
100043ea:	9b03      	ldr	r3, [sp, #12]
100043ec:	4a58      	ldr	r2, [pc, #352]	; (10004550 <irq_add_shared_handler+0x1cc>)
100043ee:	469c      	mov	ip, r3
100043f0:	4b58      	ldr	r3, [pc, #352]	; (10004554 <irq_add_shared_handler+0x1d0>)
100043f2:	4465      	add	r5, ip
100043f4:	00ad      	lsls	r5, r5, #2
100043f6:	5363      	strh	r3, [r4, r5]
100043f8:	4643      	mov	r3, r8
100043fa:	3302      	adds	r3, #2
100043fc:	1965      	adds	r5, r4, r5
100043fe:	18e4      	adds	r4, r4, r3
10004400:	4b55      	ldr	r3, [pc, #340]	; (10004558 <irq_add_shared_handler+0x1d4>)
10004402:	2101      	movs	r1, #1
10004404:	3b04      	subs	r3, #4
10004406:	1b1b      	subs	r3, r3, r4
10004408:	051b      	lsls	r3, r3, #20
1000440a:	0d5b      	lsrs	r3, r3, #21
1000440c:	4313      	orrs	r3, r2
1000440e:	806b      	strh	r3, [r5, #2]
10004410:	4b52      	ldr	r3, [pc, #328]	; (1000455c <irq_add_shared_handler+0x1d8>)
10004412:	71ef      	strb	r7, [r5, #7]
10004414:	80ab      	strh	r3, [r5, #4]
10004416:	23ff      	movs	r3, #255	; 0xff
10004418:	71ab      	strb	r3, [r5, #6]
1000441a:	9b02      	ldr	r3, [sp, #8]
1000441c:	60ab      	str	r3, [r5, #8]
1000441e:	464b      	mov	r3, r9
10004420:	430b      	orrs	r3, r1
10004422:	0019      	movs	r1, r3
10004424:	4b48      	ldr	r3, [pc, #288]	; (10004548 <irq_add_shared_handler+0x1c4>)
10004426:	9a01      	ldr	r2, [sp, #4]
10004428:	689b      	ldr	r3, [r3, #8]
1000442a:	5099      	str	r1, [r3, r2]
1000442c:	f3bf 8f5f 	dmb	sy
10004430:	f3bf 8f5f 	dmb	sy
10004434:	2200      	movs	r2, #0
10004436:	4b41      	ldr	r3, [pc, #260]	; (1000453c <irq_add_shared_handler+0x1b8>)
10004438:	601a      	str	r2, [r3, #0]
1000443a:	f38b 8810 	msr	PRIMASK, fp
1000443e:	b005      	add	sp, #20
10004440:	bcf0      	pop	{r4, r5, r6, r7}
10004442:	46bb      	mov	fp, r7
10004444:	46b2      	mov	sl, r6
10004446:	46a9      	mov	r9, r5
10004448:	46a0      	mov	r8, r4
1000444a:	bdf0      	pop	{r4, r5, r6, r7, pc}
1000444c:	2001      	movs	r0, #1
1000444e:	000a      	movs	r2, r1
10004450:	4382      	bics	r2, r0
10004452:	79d3      	ldrb	r3, [r2, #7]
10004454:	42bb      	cmp	r3, r7
10004456:	d82f      	bhi.n	100044b8 <irq_add_shared_handler+0x134>
10004458:	4645      	mov	r5, r8
1000445a:	464e      	mov	r6, r9
1000445c:	0013      	movs	r3, r2
1000445e:	4940      	ldr	r1, [pc, #256]	; (10004560 <irq_add_shared_handler+0x1dc>)
10004460:	1b1b      	subs	r3, r3, r4
10004462:	415b      	adcs	r3, r3
10004464:	4359      	muls	r1, r3
10004466:	0d09      	lsrs	r1, r1, #20
10004468:	4b3a      	ldr	r3, [pc, #232]	; (10004554 <irq_add_shared_handler+0x1d0>)
1000446a:	5363      	strh	r3, [r4, r5]
1000446c:	4b3a      	ldr	r3, [pc, #232]	; (10004558 <irq_add_shared_handler+0x1d4>)
1000446e:	3502      	adds	r5, #2
10004470:	1965      	adds	r5, r4, r5
10004472:	3b04      	subs	r3, #4
10004474:	1b5b      	subs	r3, r3, r5
10004476:	051b      	lsls	r3, r3, #20
10004478:	4d35      	ldr	r5, [pc, #212]	; (10004550 <irq_add_shared_handler+0x1cc>)
1000447a:	0d5b      	lsrs	r3, r3, #21
1000447c:	432b      	orrs	r3, r5
1000447e:	8073      	strh	r3, [r6, #2]
10004480:	2604      	movs	r6, #4
10004482:	46b4      	mov	ip, r6
10004484:	44e0      	add	r8, ip
10004486:	4444      	add	r4, r8
10004488:	1f13      	subs	r3, r2, #4
1000448a:	1b1b      	subs	r3, r3, r4
1000448c:	464c      	mov	r4, r9
1000448e:	71a1      	strb	r1, [r4, #6]
10004490:	9902      	ldr	r1, [sp, #8]
10004492:	051b      	lsls	r3, r3, #20
10004494:	60a1      	str	r1, [r4, #8]
10004496:	4649      	mov	r1, r9
10004498:	0d5b      	lsrs	r3, r3, #21
1000449a:	432b      	orrs	r3, r5
1000449c:	80a3      	strh	r3, [r4, #4]
1000449e:	4b31      	ldr	r3, [pc, #196]	; (10004564 <irq_add_shared_handler+0x1e0>)
100044a0:	71e7      	strb	r7, [r4, #7]
100044a2:	4301      	orrs	r1, r0
100044a4:	6013      	str	r3, [r2, #0]
100044a6:	e7bd      	b.n	10004424 <irq_add_shared_handler+0xa0>
100044a8:	0058      	lsls	r0, r3, #1
100044aa:	18c0      	adds	r0, r0, r3
100044ac:	0080      	lsls	r0, r0, #2
100044ae:	1820      	adds	r0, r4, r0
100044b0:	79c6      	ldrb	r6, [r0, #7]
100044b2:	42be      	cmp	r6, r7
100044b4:	d92c      	bls.n	10004510 <irq_add_shared_handler+0x18c>
100044b6:	0002      	movs	r2, r0
100044b8:	2306      	movs	r3, #6
100044ba:	56d3      	ldrsb	r3, [r2, r3]
100044bc:	2b00      	cmp	r3, #0
100044be:	daf3      	bge.n	100044a8 <irq_add_shared_handler+0x124>
100044c0:	1d10      	adds	r0, r2, #4
100044c2:	4682      	mov	sl, r0
100044c4:	20bd      	movs	r0, #189	; 0xbd
100044c6:	0200      	lsls	r0, r0, #8
100044c8:	4680      	mov	r8, r0
100044ca:	2604      	movs	r6, #4
100044cc:	4276      	negs	r6, r6
100044ce:	46b4      	mov	ip, r6
100044d0:	44e1      	add	r9, ip
100044d2:	4650      	mov	r0, sl
100044d4:	464e      	mov	r6, r9
100044d6:	1a36      	subs	r6, r6, r0
100044d8:	0530      	lsls	r0, r6, #20
100044da:	0d40      	lsrs	r0, r0, #21
100044dc:	4682      	mov	sl, r0
100044de:	4656      	mov	r6, sl
100044e0:	481b      	ldr	r0, [pc, #108]	; (10004550 <irq_add_shared_handler+0x1cc>)
100044e2:	7195      	strb	r5, [r2, #6]
100044e4:	4306      	orrs	r6, r0
100044e6:	8096      	strh	r6, [r2, #4]
100044e8:	9a03      	ldr	r2, [sp, #12]
100044ea:	4694      	mov	ip, r2
100044ec:	4465      	add	r5, ip
100044ee:	4a1d      	ldr	r2, [pc, #116]	; (10004564 <irq_add_shared_handler+0x1e0>)
100044f0:	00ad      	lsls	r5, r5, #2
100044f2:	1964      	adds	r4, r4, r5
100044f4:	6022      	str	r2, [r4, #0]
100044f6:	4642      	mov	r2, r8
100044f8:	71a3      	strb	r3, [r4, #6]
100044fa:	9b02      	ldr	r3, [sp, #8]
100044fc:	80a2      	strh	r2, [r4, #4]
100044fe:	71e7      	strb	r7, [r4, #7]
10004500:	60a3      	str	r3, [r4, #8]
10004502:	e78f      	b.n	10004424 <irq_add_shared_handler+0xa0>
10004504:	f001 fa02 	bl	1000590c <hard_assertion_failure>
10004508:	2500      	movs	r5, #0
1000450a:	4653      	mov	r3, sl
1000450c:	575d      	ldrsb	r5, [r3, r5]
1000450e:	e753      	b.n	100043b8 <irq_add_shared_handler+0x34>
10004510:	1d10      	adds	r0, r2, #4
10004512:	4682      	mov	sl, r0
10004514:	8890      	ldrh	r0, [r2, #4]
10004516:	0540      	lsls	r0, r0, #21
10004518:	1500      	asrs	r0, r0, #20
1000451a:	4684      	mov	ip, r0
1000451c:	4640      	mov	r0, r8
1000451e:	44d4      	add	ip, sl
10004520:	4666      	mov	r6, ip
10004522:	3004      	adds	r0, #4
10004524:	1820      	adds	r0, r4, r0
10004526:	1a30      	subs	r0, r6, r0
10004528:	26e0      	movs	r6, #224	; 0xe0
1000452a:	0500      	lsls	r0, r0, #20
1000452c:	0d40      	lsrs	r0, r0, #21
1000452e:	0236      	lsls	r6, r6, #8
10004530:	4330      	orrs	r0, r6
10004532:	4680      	mov	r8, r0
10004534:	e7c9      	b.n	100044ca <irq_add_shared_handler+0x146>
10004536:	f001 f9e9 	bl	1000590c <hard_assertion_failure>
1000453a:	e756      	b.n	100043ea <irq_add_shared_handler+0x66>
1000453c:	d0000124 	.word	0xd0000124
10004540:	20026b90 	.word	0x20026b90
10004544:	200004b0 	.word	0x200004b0
10004548:	e000ed00 	.word	0xe000ed00
1000454c:	100001cd 	.word	0x100001cd
10004550:	ffffe000 	.word	0xffffe000
10004554:	ffffa100 	.word	0xffffa100
10004558:	200004e0 	.word	0x200004e0
1000455c:	ffffbd00 	.word	0xffffbd00
10004560:	0000aaaa 	.word	0x0000aaaa
10004564:	47804801 	.word	0x47804801

10004568 <irq_remove_handler>:
10004568:	b5f0      	push	{r4, r5, r6, r7, lr}
1000456a:	46de      	mov	lr, fp
1000456c:	4657      	mov	r7, sl
1000456e:	464e      	mov	r6, r9
10004570:	4645      	mov	r5, r8
10004572:	b5e0      	push	{r5, r6, r7, lr}
10004574:	000c      	movs	r4, r1
10004576:	b083      	sub	sp, #12
10004578:	f3ef 8a10 	mrs	sl, PRIMASK
1000457c:	b672      	cpsid	i
1000457e:	4a5a      	ldr	r2, [pc, #360]	; (100046e8 <irq_remove_handler+0x180>)
10004580:	6813      	ldr	r3, [r2, #0]
10004582:	2b00      	cmp	r3, #0
10004584:	d0fc      	beq.n	10004580 <irq_remove_handler+0x18>
10004586:	f3bf 8f5f 	dmb	sy
1000458a:	2210      	movs	r2, #16
1000458c:	4691      	mov	r9, r2
1000458e:	4481      	add	r9, r0
10004590:	464a      	mov	r2, r9
10004592:	4b56      	ldr	r3, [pc, #344]	; (100046ec <irq_remove_handler+0x184>)
10004594:	0096      	lsls	r6, r2, #2
10004596:	689b      	ldr	r3, [r3, #8]
10004598:	599d      	ldr	r5, [r3, r6]
1000459a:	4b55      	ldr	r3, [pc, #340]	; (100046f0 <irq_remove_handler+0x188>)
1000459c:	4698      	mov	r8, r3
1000459e:	429d      	cmp	r5, r3
100045a0:	d005      	beq.n	100045ae <irq_remove_handler+0x46>
100045a2:	42a5      	cmp	r5, r4
100045a4:	d016      	beq.n	100045d4 <irq_remove_handler+0x6c>
100045a6:	4f53      	ldr	r7, [pc, #332]	; (100046f4 <irq_remove_handler+0x18c>)
100045a8:	1beb      	subs	r3, r5, r7
100045aa:	2b2f      	cmp	r3, #47	; 0x2f
100045ac:	d914      	bls.n	100045d8 <irq_remove_handler+0x70>
100045ae:	4b4f      	ldr	r3, [pc, #316]	; (100046ec <irq_remove_handler+0x184>)
100045b0:	689b      	ldr	r3, [r3, #8]
100045b2:	519d      	str	r5, [r3, r6]
100045b4:	f3bf 8f5f 	dmb	sy
100045b8:	f3bf 8f5f 	dmb	sy
100045bc:	2200      	movs	r2, #0
100045be:	4b4a      	ldr	r3, [pc, #296]	; (100046e8 <irq_remove_handler+0x180>)
100045c0:	601a      	str	r2, [r3, #0]
100045c2:	f38a 8810 	msr	PRIMASK, sl
100045c6:	b003      	add	sp, #12
100045c8:	bcf0      	pop	{r4, r5, r6, r7}
100045ca:	46bb      	mov	fp, r7
100045cc:	46b2      	mov	sl, r6
100045ce:	46a9      	mov	r9, r5
100045d0:	46a0      	mov	r8, r4
100045d2:	bdf0      	pop	{r4, r5, r6, r7, pc}
100045d4:	001d      	movs	r5, r3
100045d6:	e7ea      	b.n	100045ae <irq_remove_handler+0x46>
100045d8:	2301      	movs	r3, #1
100045da:	4083      	lsls	r3, r0
100045dc:	469b      	mov	fp, r3
100045de:	465a      	mov	r2, fp
100045e0:	4b45      	ldr	r3, [pc, #276]	; (100046f8 <irq_remove_handler+0x190>)
100045e2:	681b      	ldr	r3, [r3, #0]
100045e4:	401a      	ands	r2, r3
100045e6:	9200      	str	r2, [sp, #0]
100045e8:	465a      	mov	r2, fp
100045ea:	4b44      	ldr	r3, [pc, #272]	; (100046fc <irq_remove_handler+0x194>)
100045ec:	601a      	str	r2, [r3, #0]
100045ee:	f3bf 8f5f 	dmb	sy
100045f2:	f7fb fe38 	bl	10000266 <__get_current_exception>
100045f6:	9001      	str	r0, [sp, #4]
100045f8:	2800      	cmp	r0, #0
100045fa:	d003      	beq.n	10004604 <irq_remove_handler+0x9c>
100045fc:	4581      	cmp	r9, r0
100045fe:	d001      	beq.n	10004604 <irq_remove_handler+0x9c>
10004600:	f001 f984 	bl	1000590c <hard_assertion_failure>
10004604:	2301      	movs	r3, #1
10004606:	002a      	movs	r2, r5
10004608:	439a      	bics	r2, r3
1000460a:	6893      	ldr	r3, [r2, #8]
1000460c:	429c      	cmp	r4, r3
1000460e:	d108      	bne.n	10004622 <irq_remove_handler+0xba>
10004610:	e05f      	b.n	100046d2 <irq_remove_handler+0x16a>
10004612:	004b      	lsls	r3, r1, #1
10004614:	185b      	adds	r3, r3, r1
10004616:	009b      	lsls	r3, r3, #2
10004618:	18fb      	adds	r3, r7, r3
1000461a:	6899      	ldr	r1, [r3, #8]
1000461c:	42a1      	cmp	r1, r4
1000461e:	d011      	beq.n	10004644 <irq_remove_handler+0xdc>
10004620:	001a      	movs	r2, r3
10004622:	2106      	movs	r1, #6
10004624:	5651      	ldrsb	r1, [r2, r1]
10004626:	2900      	cmp	r1, #0
10004628:	daf3      	bge.n	10004612 <irq_remove_handler+0xaa>
1000462a:	9b00      	ldr	r3, [sp, #0]
1000462c:	2b00      	cmp	r3, #0
1000462e:	d005      	beq.n	1000463c <irq_remove_handler+0xd4>
10004630:	465a      	mov	r2, fp
10004632:	4b33      	ldr	r3, [pc, #204]	; (10004700 <irq_remove_handler+0x198>)
10004634:	601a      	str	r2, [r3, #0]
10004636:	4b30      	ldr	r3, [pc, #192]	; (100046f8 <irq_remove_handler+0x190>)
10004638:	601a      	str	r2, [r3, #0]
1000463a:	e7b8      	b.n	100045ae <irq_remove_handler+0x46>
1000463c:	465a      	mov	r2, fp
1000463e:	4b2f      	ldr	r3, [pc, #188]	; (100046fc <irq_remove_handler+0x194>)
10004640:	601a      	str	r2, [r3, #0]
10004642:	e7b4      	b.n	100045ae <irq_remove_handler+0x46>
10004644:	2106      	movs	r1, #6
10004646:	5659      	ldrsb	r1, [r3, r1]
10004648:	2900      	cmp	r1, #0
1000464a:	db21      	blt.n	10004690 <irq_remove_handler+0x128>
1000464c:	004a      	lsls	r2, r1, #1
1000464e:	1850      	adds	r0, r2, r1
10004650:	0080      	lsls	r0, r0, #2
10004652:	183c      	adds	r4, r7, r0
10004654:	4680      	mov	r8, r0
10004656:	68a0      	ldr	r0, [r4, #8]
10004658:	6098      	str	r0, [r3, #8]
1000465a:	79e0      	ldrb	r0, [r4, #7]
1000465c:	71d8      	strb	r0, [r3, #7]
1000465e:	2006      	movs	r0, #6
10004660:	5620      	ldrsb	r0, [r4, r0]
10004662:	7198      	strb	r0, [r3, #6]
10004664:	2800      	cmp	r0, #0
10004666:	db24      	blt.n	100046b2 <irq_remove_handler+0x14a>
10004668:	88a4      	ldrh	r4, [r4, #4]
1000466a:	1af8      	subs	r0, r7, r3
1000466c:	0564      	lsls	r4, r4, #21
1000466e:	1524      	asrs	r4, r4, #20
10004670:	4444      	add	r4, r8
10004672:	1900      	adds	r0, r0, r4
10004674:	24e0      	movs	r4, #224	; 0xe0
10004676:	0500      	lsls	r0, r0, #20
10004678:	0d40      	lsrs	r0, r0, #21
1000467a:	0224      	lsls	r4, r4, #8
1000467c:	4320      	orrs	r0, r4
1000467e:	8098      	strh	r0, [r3, #4]
10004680:	1852      	adds	r2, r2, r1
10004682:	4b20      	ldr	r3, [pc, #128]	; (10004704 <irq_remove_handler+0x19c>)
10004684:	0092      	lsls	r2, r2, #2
10004686:	18bf      	adds	r7, r7, r2
10004688:	781a      	ldrb	r2, [r3, #0]
1000468a:	7019      	strb	r1, [r3, #0]
1000468c:	71ba      	strb	r2, [r7, #6]
1000468e:	e7cc      	b.n	1000462a <irq_remove_handler+0xc2>
10004690:	9901      	ldr	r1, [sp, #4]
10004692:	2900      	cmp	r1, #0
10004694:	d110      	bne.n	100046b8 <irq_remove_handler+0x150>
10004696:	31ff      	adds	r1, #255	; 0xff
10004698:	7191      	strb	r1, [r2, #6]
1000469a:	491b      	ldr	r1, [pc, #108]	; (10004708 <irq_remove_handler+0x1a0>)
1000469c:	8091      	strh	r1, [r2, #4]
1000469e:	4919      	ldr	r1, [pc, #100]	; (10004704 <irq_remove_handler+0x19c>)
100046a0:	780a      	ldrb	r2, [r1, #0]
100046a2:	719a      	strb	r2, [r3, #6]
100046a4:	4a19      	ldr	r2, [pc, #100]	; (1000470c <irq_remove_handler+0x1a4>)
100046a6:	1bdb      	subs	r3, r3, r7
100046a8:	415b      	adcs	r3, r3
100046aa:	435a      	muls	r2, r3
100046ac:	0d12      	lsrs	r2, r2, #20
100046ae:	700a      	strb	r2, [r1, #0]
100046b0:	e7bb      	b.n	1000462a <irq_remove_handler+0xc2>
100046b2:	20bd      	movs	r0, #189	; 0xbd
100046b4:	0200      	lsls	r0, r0, #8
100046b6:	e7e2      	b.n	1000467e <irq_remove_handler+0x116>
100046b8:	4a15      	ldr	r2, [pc, #84]	; (10004710 <irq_remove_handler+0x1a8>)
100046ba:	4916      	ldr	r1, [pc, #88]	; (10004714 <irq_remove_handler+0x1ac>)
100046bc:	1ad2      	subs	r2, r2, r3
100046be:	3a08      	subs	r2, #8
100046c0:	0250      	lsls	r0, r2, #9
100046c2:	0d40      	lsrs	r0, r0, #21
100046c4:	4301      	orrs	r1, r0
100046c6:	8099      	strh	r1, [r3, #4]
100046c8:	4913      	ldr	r1, [pc, #76]	; (10004718 <irq_remove_handler+0x1b0>)
100046ca:	0852      	lsrs	r2, r2, #1
100046cc:	430a      	orrs	r2, r1
100046ce:	80da      	strh	r2, [r3, #6]
100046d0:	e7ab      	b.n	1000462a <irq_remove_handler+0xc2>
100046d2:	2106      	movs	r1, #6
100046d4:	5651      	ldrsb	r1, [r2, r1]
100046d6:	0013      	movs	r3, r2
100046d8:	2900      	cmp	r1, #0
100046da:	dab7      	bge.n	1000464c <irq_remove_handler+0xe4>
100046dc:	9a01      	ldr	r2, [sp, #4]
100046de:	2a00      	cmp	r2, #0
100046e0:	d1ea      	bne.n	100046b8 <irq_remove_handler+0x150>
100046e2:	4645      	mov	r5, r8
100046e4:	e7db      	b.n	1000469e <irq_remove_handler+0x136>
100046e6:	46c0      	nop			; (mov r8, r8)
100046e8:	d0000124 	.word	0xd0000124
100046ec:	e000ed00 	.word	0xe000ed00
100046f0:	100001cd 	.word	0x100001cd
100046f4:	200004b0 	.word	0x200004b0
100046f8:	e000e100 	.word	0xe000e100
100046fc:	e000e180 	.word	0xe000e180
10004700:	e000e280 	.word	0xe000e280
10004704:	20026b90 	.word	0x20026b90
10004708:	ffffbd00 	.word	0xffffbd00
1000470c:	0000aaaa 	.word	0x0000aaaa
10004710:	200004ea 	.word	0x200004ea
10004714:	fffff000 	.word	0xfffff000
10004718:	fffff800 	.word	0xfffff800

1000471c <irq_add_tail_to_free_list>:
1000471c:	b5f8      	push	{r3, r4, r5, r6, r7, lr}
1000471e:	2501      	movs	r5, #1
10004720:	0004      	movs	r4, r0
10004722:	4305      	orrs	r5, r0
10004724:	f7fb fd9f 	bl	10000266 <__get_current_exception>
10004728:	f3ef 8c10 	mrs	ip, PRIMASK
1000472c:	b672      	cpsid	i
1000472e:	4a21      	ldr	r2, [pc, #132]	; (100047b4 <irq_add_tail_to_free_list+0x98>)
10004730:	6813      	ldr	r3, [r2, #0]
10004732:	2b00      	cmp	r3, #0
10004734:	d0fc      	beq.n	10004730 <irq_add_tail_to_free_list+0x14>
10004736:	f3bf 8f5f 	dmb	sy
1000473a:	4e1f      	ldr	r6, [pc, #124]	; (100047b8 <irq_add_tail_to_free_list+0x9c>)
1000473c:	0021      	movs	r1, r4
1000473e:	68b7      	ldr	r7, [r6, #8]
10004740:	4a1e      	ldr	r2, [pc, #120]	; (100047bc <irq_add_tail_to_free_list+0xa0>)
10004742:	4b1f      	ldr	r3, [pc, #124]	; (100047c0 <irq_add_tail_to_free_list+0xa4>)
10004744:	1a89      	subs	r1, r1, r2
10004746:	4149      	adcs	r1, r1
10004748:	434b      	muls	r3, r1
1000474a:	0d1b      	lsrs	r3, r3, #20
1000474c:	b259      	sxtb	r1, r3
1000474e:	0083      	lsls	r3, r0, #2
10004750:	58f8      	ldr	r0, [r7, r3]
10004752:	42a8      	cmp	r0, r5
10004754:	d01c      	beq.n	10004790 <irq_add_tail_to_free_list+0x74>
10004756:	2306      	movs	r3, #6
10004758:	56d3      	ldrsb	r3, [r2, r3]
1000475a:	428b      	cmp	r3, r1
1000475c:	d01c      	beq.n	10004798 <irq_add_tail_to_free_list+0x7c>
1000475e:	2312      	movs	r3, #18
10004760:	56d3      	ldrsb	r3, [r2, r3]
10004762:	428b      	cmp	r3, r1
10004764:	d022      	beq.n	100047ac <irq_add_tail_to_free_list+0x90>
10004766:	231e      	movs	r3, #30
10004768:	56d3      	ldrsb	r3, [r2, r3]
1000476a:	428b      	cmp	r3, r1
1000476c:	d020      	beq.n	100047b0 <irq_add_tail_to_free_list+0x94>
1000476e:	232a      	movs	r3, #42	; 0x2a
10004770:	56d3      	ldrsb	r3, [r2, r3]
10004772:	2003      	movs	r0, #3
10004774:	428b      	cmp	r3, r1
10004776:	d010      	beq.n	1000479a <irq_add_tail_to_free_list+0x7e>
10004778:	4b12      	ldr	r3, [pc, #72]	; (100047c4 <irq_add_tail_to_free_list+0xa8>)
1000477a:	781a      	ldrb	r2, [r3, #0]
1000477c:	7019      	strb	r1, [r3, #0]
1000477e:	71a2      	strb	r2, [r4, #6]
10004780:	f3bf 8f5f 	dmb	sy
10004784:	2200      	movs	r2, #0
10004786:	4b0b      	ldr	r3, [pc, #44]	; (100047b4 <irq_add_tail_to_free_list+0x98>)
10004788:	601a      	str	r2, [r3, #0]
1000478a:	f38c 8810 	msr	PRIMASK, ip
1000478e:	bdf8      	pop	{r3, r4, r5, r6, r7, pc}
10004790:	68b2      	ldr	r2, [r6, #8]
10004792:	480d      	ldr	r0, [pc, #52]	; (100047c8 <irq_add_tail_to_free_list+0xac>)
10004794:	50d0      	str	r0, [r2, r3]
10004796:	e7ef      	b.n	10004778 <irq_add_tail_to_free_list+0x5c>
10004798:	2000      	movs	r0, #0
1000479a:	0043      	lsls	r3, r0, #1
1000479c:	181b      	adds	r3, r3, r0
1000479e:	009b      	lsls	r3, r3, #2
100047a0:	18d2      	adds	r2, r2, r3
100047a2:	23ff      	movs	r3, #255	; 0xff
100047a4:	7193      	strb	r3, [r2, #6]
100047a6:	4b09      	ldr	r3, [pc, #36]	; (100047cc <irq_add_tail_to_free_list+0xb0>)
100047a8:	8093      	strh	r3, [r2, #4]
100047aa:	e7e5      	b.n	10004778 <irq_add_tail_to_free_list+0x5c>
100047ac:	2001      	movs	r0, #1
100047ae:	e7f4      	b.n	1000479a <irq_add_tail_to_free_list+0x7e>
100047b0:	2002      	movs	r0, #2
100047b2:	e7f2      	b.n	1000479a <irq_add_tail_to_free_list+0x7e>
100047b4:	d0000124 	.word	0xd0000124
100047b8:	e000ed00 	.word	0xe000ed00
100047bc:	200004b0 	.word	0x200004b0
100047c0:	0000aaaa 	.word	0x0000aaaa
100047c4:	20026b90 	.word	0x20026b90
100047c8:	100001cd 	.word	0x100001cd
100047cc:	ffffbd00 	.word	0xffffbd00

100047d0 <irq_init_priorities>:
100047d0:	4b05      	ldr	r3, [pc, #20]	; (100047e8 <irq_init_priorities+0x18>)
100047d2:	4a06      	ldr	r2, [pc, #24]	; (100047ec <irq_init_priorities+0x1c>)
100047d4:	6013      	str	r3, [r2, #0]
100047d6:	4a06      	ldr	r2, [pc, #24]	; (100047f0 <irq_init_priorities+0x20>)
100047d8:	6013      	str	r3, [r2, #0]
100047da:	6053      	str	r3, [r2, #4]
100047dc:	6093      	str	r3, [r2, #8]
100047de:	60d3      	str	r3, [r2, #12]
100047e0:	6113      	str	r3, [r2, #16]
100047e2:	6153      	str	r3, [r2, #20]
100047e4:	6193      	str	r3, [r2, #24]
100047e6:	4770      	bx	lr
100047e8:	80808080 	.word	0x80808080
100047ec:	e000e400 	.word	0xe000e400
100047f0:	e000e404 	.word	0xe000e404

100047f4 <user_irq_claim_unused>:
100047f4:	23d0      	movs	r3, #208	; 0xd0
100047f6:	b500      	push	{lr}
100047f8:	061b      	lsls	r3, r3, #24
100047fa:	681b      	ldr	r3, [r3, #0]
100047fc:	0001      	movs	r1, r0
100047fe:	4807      	ldr	r0, [pc, #28]	; (1000481c <user_irq_claim_unused+0x28>)
10004800:	b083      	sub	sp, #12
10004802:	18c0      	adds	r0, r0, r3
10004804:	4b06      	ldr	r3, [pc, #24]	; (10004820 <user_irq_claim_unused+0x2c>)
10004806:	2200      	movs	r2, #0
10004808:	9300      	str	r3, [sp, #0]
1000480a:	2305      	movs	r3, #5
1000480c:	f7ff fcd8 	bl	100041c0 <hw_claim_unused_from_range>
10004810:	2800      	cmp	r0, #0
10004812:	db01      	blt.n	10004818 <user_irq_claim_unused+0x24>
10004814:	231f      	movs	r3, #31
10004816:	1a18      	subs	r0, r3, r0
10004818:	b003      	add	sp, #12
1000481a:	bd00      	pop	{pc}
1000481c:	20026b80 	.word	0x20026b80
10004820:	100128b0 	.word	0x100128b0

10004824 <lock_init>:
10004824:	4b02      	ldr	r3, [pc, #8]	; (10004830 <lock_init+0xc>)
10004826:	469c      	mov	ip, r3
10004828:	4461      	add	r1, ip
1000482a:	0089      	lsls	r1, r1, #2
1000482c:	6001      	str	r1, [r0, #0]
1000482e:	4770      	bx	lr
10004830:	34000040 	.word	0x34000040

10004834 <timer_pool_entry_comparator>:
10004834:	6883      	ldr	r3, [r0, #8]
10004836:	480b      	ldr	r0, [pc, #44]	; (10004864 <timer_pool_entry_comparator+0x30>)
10004838:	b510      	push	{r4, lr}
1000483a:	4684      	mov	ip, r0
1000483c:	4461      	add	r1, ip
1000483e:	4462      	add	r2, ip
10004840:	0109      	lsls	r1, r1, #4
10004842:	0112      	lsls	r2, r2, #4
10004844:	189a      	adds	r2, r3, r2
10004846:	1859      	adds	r1, r3, r1
10004848:	6854      	ldr	r4, [r2, #4]
1000484a:	684b      	ldr	r3, [r1, #4]
1000484c:	2001      	movs	r0, #1
1000484e:	429c      	cmp	r4, r3
10004850:	d801      	bhi.n	10004856 <timer_pool_entry_comparator+0x22>
10004852:	d002      	beq.n	1000485a <timer_pool_entry_comparator+0x26>
10004854:	2000      	movs	r0, #0
10004856:	b2c0      	uxtb	r0, r0
10004858:	bd10      	pop	{r4, pc}
1000485a:	6812      	ldr	r2, [r2, #0]
1000485c:	680b      	ldr	r3, [r1, #0]
1000485e:	429a      	cmp	r2, r3
10004860:	d8f9      	bhi.n	10004856 <timer_pool_entry_comparator+0x22>
10004862:	e7f7      	b.n	10004854 <timer_pool_entry_comparator+0x20>
10004864:	0fffffff 	.word	0x0fffffff

10004868 <sleep_until_callback>:
10004868:	4b0a      	ldr	r3, [pc, #40]	; (10004894 <sleep_until_callback+0x2c>)
1000486a:	6819      	ldr	r1, [r3, #0]
1000486c:	f3ef 8010 	mrs	r0, PRIMASK
10004870:	b672      	cpsid	i
10004872:	680a      	ldr	r2, [r1, #0]
10004874:	2a00      	cmp	r2, #0
10004876:	d0fc      	beq.n	10004872 <sleep_until_callback+0xa>
10004878:	f3bf 8f5f 	dmb	sy
1000487c:	681b      	ldr	r3, [r3, #0]
1000487e:	f3bf 8f5f 	dmb	sy
10004882:	2200      	movs	r2, #0
10004884:	601a      	str	r2, [r3, #0]
10004886:	f380 8810 	msr	PRIMASK, r0
1000488a:	bf40      	sev
1000488c:	2000      	movs	r0, #0
1000488e:	2100      	movs	r1, #0
10004890:	4770      	bx	lr
10004892:	46c0      	nop			; (mov r8, r8)
10004894:	20026b4c 	.word	0x20026b4c

10004898 <add_alarm_under_lock.isra.0>:
10004898:	b5f8      	push	{r3, r4, r5, r6, r7, lr}
1000489a:	4657      	mov	r7, sl
1000489c:	464e      	mov	r6, r9
1000489e:	4645      	mov	r5, r8
100048a0:	46de      	mov	lr, fp
100048a2:	b5e0      	push	{r5, r6, r7, lr}
100048a4:	4699      	mov	r9, r3
100048a6:	ab0c      	add	r3, sp, #48	; 0x30
100048a8:	781c      	ldrb	r4, [r3, #0]
100048aa:	ab0d      	add	r3, sp, #52	; 0x34
100048ac:	781b      	ldrb	r3, [r3, #0]
100048ae:	0006      	movs	r6, r0
100048b0:	4690      	mov	r8, r2
100048b2:	469a      	mov	sl, r3
100048b4:	6807      	ldr	r7, [r0, #0]
100048b6:	2c00      	cmp	r4, #0
100048b8:	d111      	bne.n	100048de <add_alarm_under_lock.isra.0+0x46>
100048ba:	7bbc      	ldrb	r4, [r7, #14]
100048bc:	2c00      	cmp	r4, #0
100048be:	d042      	beq.n	10004946 <add_alarm_under_lock.isra.0+0xae>
100048c0:	0065      	lsls	r5, r4, #1
100048c2:	683b      	ldr	r3, [r7, #0]
100048c4:	192d      	adds	r5, r5, r4
100048c6:	3d03      	subs	r5, #3
100048c8:	1959      	adds	r1, r3, r5
100048ca:	784b      	ldrb	r3, [r1, #1]
100048cc:	73bb      	strb	r3, [r7, #14]
100048ce:	2b00      	cmp	r3, #0
100048d0:	d100      	bne.n	100048d4 <add_alarm_under_lock.isra.0+0x3c>
100048d2:	73fb      	strb	r3, [r7, #15]
100048d4:	2300      	movs	r3, #0
100048d6:	708b      	strb	r3, [r1, #2]
100048d8:	704b      	strb	r3, [r1, #1]
100048da:	700b      	strb	r3, [r1, #0]
100048dc:	e004      	b.n	100048e8 <add_alarm_under_lock.isra.0+0x50>
100048de:	0065      	lsls	r5, r4, #1
100048e0:	683b      	ldr	r3, [r7, #0]
100048e2:	192d      	adds	r5, r5, r4
100048e4:	3d03      	subs	r5, #3
100048e6:	1959      	adds	r1, r3, r5
100048e8:	68b2      	ldr	r2, [r6, #8]
100048ea:	4b2a      	ldr	r3, [pc, #168]	; (10004994 <add_alarm_under_lock.isra.0+0xfc>)
100048ec:	4694      	mov	ip, r2
100048ee:	4642      	mov	r2, r8
100048f0:	18e3      	adds	r3, r4, r3
100048f2:	011b      	lsls	r3, r3, #4
100048f4:	4463      	add	r3, ip
100048f6:	601a      	str	r2, [r3, #0]
100048f8:	464a      	mov	r2, r9
100048fa:	605a      	str	r2, [r3, #4]
100048fc:	9a0a      	ldr	r2, [sp, #40]	; 0x28
100048fe:	609a      	str	r2, [r3, #8]
10004900:	9a0b      	ldr	r2, [sp, #44]	; 0x2c
10004902:	60da      	str	r2, [r3, #12]
10004904:	2300      	movs	r3, #0
10004906:	708b      	strb	r3, [r1, #2]
10004908:	704b      	strb	r3, [r1, #1]
1000490a:	700b      	strb	r3, [r1, #0]
1000490c:	7b7b      	ldrb	r3, [r7, #13]
1000490e:	469b      	mov	fp, r3
10004910:	2b00      	cmp	r3, #0
10004912:	d02b      	beq.n	1000496c <add_alarm_under_lock.isra.0+0xd4>
10004914:	0022      	movs	r2, r4
10004916:	4659      	mov	r1, fp
10004918:	68b8      	ldr	r0, [r7, #8]
1000491a:	687b      	ldr	r3, [r7, #4]
1000491c:	4798      	blx	r3
1000491e:	683a      	ldr	r2, [r7, #0]
10004920:	2800      	cmp	r0, #0
10004922:	d016      	beq.n	10004952 <add_alarm_under_lock.isra.0+0xba>
10004924:	465b      	mov	r3, fp
10004926:	4658      	mov	r0, fp
10004928:	005b      	lsls	r3, r3, #1
1000492a:	445b      	add	r3, fp
1000492c:	1955      	adds	r5, r2, r5
1000492e:	3b03      	subs	r3, #3
10004930:	70a8      	strb	r0, [r5, #2]
10004932:	18d1      	adds	r1, r2, r3
10004934:	5cd3      	ldrb	r3, [r2, r3]
10004936:	2b00      	cmp	r3, #0
10004938:	d000      	beq.n	1000493c <add_alarm_under_lock.isra.0+0xa4>
1000493a:	706b      	strb	r3, [r5, #1]
1000493c:	465b      	mov	r3, fp
1000493e:	700c      	strb	r4, [r1, #0]
10004940:	737b      	strb	r3, [r7, #13]
10004942:	45a3      	cmp	fp, r4
10004944:	d013      	beq.n	1000496e <add_alarm_under_lock.isra.0+0xd6>
10004946:	bcf0      	pop	{r4, r5, r6, r7}
10004948:	46bb      	mov	fp, r7
1000494a:	46b2      	mov	sl, r6
1000494c:	46a9      	mov	r9, r5
1000494e:	46a0      	mov	r8, r4
10004950:	bdf8      	pop	{r3, r4, r5, r6, r7, pc}
10004952:	465b      	mov	r3, fp
10004954:	005b      	lsls	r3, r3, #1
10004956:	445b      	add	r3, fp
10004958:	3b03      	subs	r3, #3
1000495a:	18d3      	adds	r3, r2, r3
1000495c:	709c      	strb	r4, [r3, #2]
1000495e:	1951      	adds	r1, r2, r5
10004960:	5d52      	ldrb	r2, [r2, r5]
10004962:	2a00      	cmp	r2, #0
10004964:	d000      	beq.n	10004968 <add_alarm_under_lock.isra.0+0xd0>
10004966:	705a      	strb	r2, [r3, #1]
10004968:	465b      	mov	r3, fp
1000496a:	700b      	strb	r3, [r1, #0]
1000496c:	737c      	strb	r4, [r7, #13]
1000496e:	4642      	mov	r2, r8
10004970:	464b      	mov	r3, r9
10004972:	7d30      	ldrb	r0, [r6, #20]
10004974:	f000 fcac 	bl	100052d0 <hardware_alarm_set_target>
10004978:	1e05      	subs	r5, r0, #0
1000497a:	d006      	beq.n	1000498a <add_alarm_under_lock.isra.0+0xf2>
1000497c:	4653      	mov	r3, sl
1000497e:	2b00      	cmp	r3, #0
10004980:	d103      	bne.n	1000498a <add_alarm_under_lock.isra.0+0xf2>
10004982:	0021      	movs	r1, r4
10004984:	6830      	ldr	r0, [r6, #0]
10004986:	f000 fec5 	bl	10005714 <ph_remove_and_free_node>
1000498a:	9b0e      	ldr	r3, [sp, #56]	; 0x38
1000498c:	2b00      	cmp	r3, #0
1000498e:	d0da      	beq.n	10004946 <add_alarm_under_lock.isra.0+0xae>
10004990:	701d      	strb	r5, [r3, #0]
10004992:	e7d8      	b.n	10004946 <add_alarm_under_lock.isra.0+0xae>
10004994:	0fffffff 	.word	0x0fffffff

10004998 <alarm_pool_alarm_callback>:
10004998:	b5f0      	push	{r4, r5, r6, r7, lr}
1000499a:	46de      	mov	lr, fp
1000499c:	464e      	mov	r6, r9
1000499e:	4657      	mov	r7, sl
100049a0:	4645      	mov	r5, r8
100049a2:	2300      	movs	r3, #0
100049a4:	b5e0      	push	{r5, r6, r7, lr}
100049a6:	b08d      	sub	sp, #52	; 0x34
100049a8:	930a      	str	r3, [sp, #40]	; 0x28
100049aa:	4b6b      	ldr	r3, [pc, #428]	; (10004b58 <alarm_pool_alarm_callback+0x1c0>)
100049ac:	0082      	lsls	r2, r0, #2
100049ae:	58d3      	ldr	r3, [r2, r3]
100049b0:	900b      	str	r0, [sp, #44]	; 0x2c
100049b2:	4699      	mov	r9, r3
100049b4:	2300      	movs	r3, #0
100049b6:	469b      	mov	fp, r3
100049b8:	464b      	mov	r3, r9
100049ba:	9307      	str	r3, [sp, #28]
100049bc:	f000 fbba 	bl	10005134 <time_us_64>
100049c0:	9c07      	ldr	r4, [sp, #28]
100049c2:	0006      	movs	r6, r0
100049c4:	000f      	movs	r7, r1
100049c6:	6862      	ldr	r2, [r4, #4]
100049c8:	f3ef 8510 	mrs	r5, PRIMASK
100049cc:	b672      	cpsid	i
100049ce:	6813      	ldr	r3, [r2, #0]
100049d0:	2b00      	cmp	r3, #0
100049d2:	d0fc      	beq.n	100049ce <alarm_pool_alarm_callback+0x36>
100049d4:	0022      	movs	r2, r4
100049d6:	9407      	str	r4, [sp, #28]
100049d8:	f3bf 8f5f 	dmb	sy
100049dc:	6824      	ldr	r4, [r4, #0]
100049de:	7b63      	ldrb	r3, [r4, #13]
100049e0:	4699      	mov	r9, r3
100049e2:	2b00      	cmp	r3, #0
100049e4:	d067      	beq.n	10004ab6 <alarm_pool_alarm_callback+0x11e>
100049e6:	6892      	ldr	r2, [r2, #8]
100049e8:	4b5c      	ldr	r3, [pc, #368]	; (10004b5c <alarm_pool_alarm_callback+0x1c4>)
100049ea:	4690      	mov	r8, r2
100049ec:	444b      	add	r3, r9
100049ee:	011b      	lsls	r3, r3, #4
100049f0:	4498      	add	r8, r3
100049f2:	4643      	mov	r3, r8
100049f4:	681a      	ldr	r2, [r3, #0]
100049f6:	685b      	ldr	r3, [r3, #4]
100049f8:	0010      	movs	r0, r2
100049fa:	0019      	movs	r1, r3
100049fc:	1b80      	subs	r0, r0, r6
100049fe:	41b9      	sbcs	r1, r7
10004a00:	2900      	cmp	r1, #0
10004a02:	dd5f      	ble.n	10004ac4 <alarm_pool_alarm_callback+0x12c>
10004a04:	980b      	ldr	r0, [sp, #44]	; 0x2c
10004a06:	f000 fc63 	bl	100052d0 <hardware_alarm_set_target>
10004a0a:	2300      	movs	r3, #0
10004a0c:	2600      	movs	r6, #0
10004a0e:	4698      	mov	r8, r3
10004a10:	2700      	movs	r7, #0
10004a12:	469a      	mov	sl, r3
10004a14:	9c07      	ldr	r4, [sp, #28]
10004a16:	6863      	ldr	r3, [r4, #4]
10004a18:	f3bf 8f5f 	dmb	sy
10004a1c:	465a      	mov	r2, fp
10004a1e:	601a      	str	r2, [r3, #0]
10004a20:	f385 8810 	msr	PRIMASK, r5
10004a24:	4653      	mov	r3, sl
10004a26:	2b00      	cmp	r3, #0
10004a28:	d108      	bne.n	10004a3c <alarm_pool_alarm_callback+0xa4>
10004a2a:	2800      	cmp	r0, #0
10004a2c:	d1c6      	bne.n	100049bc <alarm_pool_alarm_callback+0x24>
10004a2e:	b00d      	add	sp, #52	; 0x34
10004a30:	bcf0      	pop	{r4, r5, r6, r7}
10004a32:	46bb      	mov	fp, r7
10004a34:	46b2      	mov	sl, r6
10004a36:	46a9      	mov	r9, r5
10004a38:	46a0      	mov	r8, r4
10004a3a:	bdf0      	pop	{r4, r5, r6, r7, pc}
10004a3c:	9b0a      	ldr	r3, [sp, #40]	; 0x28
10004a3e:	4641      	mov	r1, r8
10004a40:	0218      	lsls	r0, r3, #8
10004a42:	464b      	mov	r3, r9
10004a44:	4318      	orrs	r0, r3
10004a46:	47d0      	blx	sl
10004a48:	9008      	str	r0, [sp, #32]
10004a4a:	9109      	str	r1, [sp, #36]	; 0x24
10004a4c:	6862      	ldr	r2, [r4, #4]
10004a4e:	f3ef 8510 	mrs	r5, PRIMASK
10004a52:	b672      	cpsid	i
10004a54:	6813      	ldr	r3, [r2, #0]
10004a56:	2b00      	cmp	r3, #0
10004a58:	d0fc      	beq.n	10004a54 <alarm_pool_alarm_callback+0xbc>
10004a5a:	9407      	str	r4, [sp, #28]
10004a5c:	f3bf 8f5f 	dmb	sy
10004a60:	9908      	ldr	r1, [sp, #32]
10004a62:	9a09      	ldr	r2, [sp, #36]	; 0x24
10004a64:	2a00      	cmp	r2, #0
10004a66:	db48      	blt.n	10004afa <alarm_pool_alarm_callback+0x162>
10004a68:	4311      	orrs	r1, r2
10004a6a:	d003      	beq.n	10004a74 <alarm_pool_alarm_callback+0xdc>
10004a6c:	9b07      	ldr	r3, [sp, #28]
10004a6e:	691b      	ldr	r3, [r3, #16]
10004a70:	2b00      	cmp	r3, #0
10004a72:	d15d      	bne.n	10004b30 <alarm_pool_alarm_callback+0x198>
10004a74:	9b07      	ldr	r3, [sp, #28]
10004a76:	681b      	ldr	r3, [r3, #0]
10004a78:	7bd9      	ldrb	r1, [r3, #15]
10004a7a:	2900      	cmp	r1, #0
10004a7c:	d007      	beq.n	10004a8e <alarm_pool_alarm_callback+0xf6>
10004a7e:	004a      	lsls	r2, r1, #1
10004a80:	1852      	adds	r2, r2, r1
10004a82:	6819      	ldr	r1, [r3, #0]
10004a84:	468c      	mov	ip, r1
10004a86:	4649      	mov	r1, r9
10004a88:	4462      	add	r2, ip
10004a8a:	3a03      	subs	r2, #3
10004a8c:	7051      	strb	r1, [r2, #1]
10004a8e:	464a      	mov	r2, r9
10004a90:	73da      	strb	r2, [r3, #15]
10004a92:	464b      	mov	r3, r9
10004a94:	9a07      	ldr	r2, [sp, #28]
10004a96:	3b01      	subs	r3, #1
10004a98:	68d1      	ldr	r1, [r2, #12]
10004a9a:	5cca      	ldrb	r2, [r1, r3]
10004a9c:	3201      	adds	r2, #1
10004a9e:	54ca      	strb	r2, [r1, r3]
10004aa0:	465b      	mov	r3, fp
10004aa2:	9a07      	ldr	r2, [sp, #28]
10004aa4:	6113      	str	r3, [r2, #16]
10004aa6:	6853      	ldr	r3, [r2, #4]
10004aa8:	f3bf 8f5f 	dmb	sy
10004aac:	465a      	mov	r2, fp
10004aae:	601a      	str	r2, [r3, #0]
10004ab0:	f385 8810 	msr	PRIMASK, r5
10004ab4:	e782      	b.n	100049bc <alarm_pool_alarm_callback+0x24>
10004ab6:	2300      	movs	r3, #0
10004ab8:	2600      	movs	r6, #0
10004aba:	4698      	mov	r8, r3
10004abc:	2700      	movs	r7, #0
10004abe:	469a      	mov	sl, r3
10004ac0:	2000      	movs	r0, #0
10004ac2:	e7a7      	b.n	10004a14 <alarm_pool_alarm_callback+0x7c>
10004ac4:	2900      	cmp	r1, #0
10004ac6:	d101      	bne.n	10004acc <alarm_pool_alarm_callback+0x134>
10004ac8:	2800      	cmp	r0, #0
10004aca:	d19b      	bne.n	10004a04 <alarm_pool_alarm_callback+0x6c>
10004acc:	2100      	movs	r1, #0
10004ace:	0020      	movs	r0, r4
10004ad0:	f000 fda2 	bl	10005618 <ph_remove_head>
10004ad4:	4643      	mov	r3, r8
10004ad6:	681e      	ldr	r6, [r3, #0]
10004ad8:	685f      	ldr	r7, [r3, #4]
10004ada:	689b      	ldr	r3, [r3, #8]
10004adc:	9a07      	ldr	r2, [sp, #28]
10004ade:	469a      	mov	sl, r3
10004ae0:	4643      	mov	r3, r8
10004ae2:	68db      	ldr	r3, [r3, #12]
10004ae4:	4698      	mov	r8, r3
10004ae6:	68d3      	ldr	r3, [r2, #12]
10004ae8:	444b      	add	r3, r9
10004aea:	3b01      	subs	r3, #1
10004aec:	781b      	ldrb	r3, [r3, #0]
10004aee:	930a      	str	r3, [sp, #40]	; 0x28
10004af0:	021b      	lsls	r3, r3, #8
10004af2:	4303      	orrs	r3, r0
10004af4:	6113      	str	r3, [r2, #16]
10004af6:	2000      	movs	r0, #0
10004af8:	e78c      	b.n	10004a14 <alarm_pool_alarm_callback+0x7c>
10004afa:	6923      	ldr	r3, [r4, #16]
10004afc:	2b00      	cmp	r3, #0
10004afe:	d0b9      	beq.n	10004a74 <alarm_pool_alarm_callback+0xdc>
10004b00:	0033      	movs	r3, r6
10004b02:	003c      	movs	r4, r7
10004b04:	1a5b      	subs	r3, r3, r1
10004b06:	4194      	sbcs	r4, r2
10004b08:	001a      	movs	r2, r3
10004b0a:	0023      	movs	r3, r4
10004b0c:	42a7      	cmp	r7, r4
10004b0e:	d819      	bhi.n	10004b44 <alarm_pool_alarm_callback+0x1ac>
10004b10:	429f      	cmp	r7, r3
10004b12:	d01b      	beq.n	10004b4c <alarm_pool_alarm_callback+0x1b4>
10004b14:	4659      	mov	r1, fp
10004b16:	9104      	str	r1, [sp, #16]
10004b18:	2101      	movs	r1, #1
10004b1a:	9103      	str	r1, [sp, #12]
10004b1c:	4649      	mov	r1, r9
10004b1e:	9102      	str	r1, [sp, #8]
10004b20:	4641      	mov	r1, r8
10004b22:	9101      	str	r1, [sp, #4]
10004b24:	4651      	mov	r1, sl
10004b26:	9807      	ldr	r0, [sp, #28]
10004b28:	9100      	str	r1, [sp, #0]
10004b2a:	f7ff feb5 	bl	10004898 <add_alarm_under_lock.isra.0>
10004b2e:	e7b7      	b.n	10004aa0 <alarm_pool_alarm_callback+0x108>
10004b30:	f000 fb00 	bl	10005134 <time_us_64>
10004b34:	9a08      	ldr	r2, [sp, #32]
10004b36:	9b09      	ldr	r3, [sp, #36]	; 0x24
10004b38:	0006      	movs	r6, r0
10004b3a:	000f      	movs	r7, r1
10004b3c:	1992      	adds	r2, r2, r6
10004b3e:	417b      	adcs	r3, r7
10004b40:	4299      	cmp	r1, r3
10004b42:	d9e5      	bls.n	10004b10 <alarm_pool_alarm_callback+0x178>
10004b44:	2201      	movs	r2, #1
10004b46:	4252      	negs	r2, r2
10004b48:	17d3      	asrs	r3, r2, #31
10004b4a:	e7e3      	b.n	10004b14 <alarm_pool_alarm_callback+0x17c>
10004b4c:	4296      	cmp	r6, r2
10004b4e:	d9e1      	bls.n	10004b14 <alarm_pool_alarm_callback+0x17c>
10004b50:	2201      	movs	r2, #1
10004b52:	4252      	negs	r2, r2
10004b54:	17d3      	asrs	r3, r2, #31
10004b56:	e7dd      	b.n	10004b14 <alarm_pool_alarm_callback+0x17c>
10004b58:	20026b24 	.word	0x20026b24
10004b5c:	0fffffff 	.word	0x0fffffff

10004b60 <alarm_pool_add_alarm_at.constprop.0>:
10004b60:	b5f8      	push	{r3, r4, r5, r6, r7, lr}
10004b62:	4657      	mov	r7, sl
10004b64:	464e      	mov	r6, r9
10004b66:	4645      	mov	r5, r8
10004b68:	46de      	mov	lr, fp
10004b6a:	b5e0      	push	{r5, r6, r7, lr}
10004b6c:	4d40      	ldr	r5, [pc, #256]	; (10004c70 <alarm_pool_add_alarm_at.constprop.0+0x110>)
10004b6e:	4681      	mov	r9, r0
10004b70:	468a      	mov	sl, r1
10004b72:	686a      	ldr	r2, [r5, #4]
10004b74:	f3ef 8810 	mrs	r8, PRIMASK
10004b78:	b672      	cpsid	i
10004b7a:	6813      	ldr	r3, [r2, #0]
10004b7c:	2b00      	cmp	r3, #0
10004b7e:	d0fc      	beq.n	10004b7a <alarm_pool_add_alarm_at.constprop.0+0x1a>
10004b80:	f3bf 8f5f 	dmb	sy
10004b84:	682e      	ldr	r6, [r5, #0]
10004b86:	7bb4      	ldrb	r4, [r6, #14]
10004b88:	2c00      	cmp	r4, #0
10004b8a:	d039      	beq.n	10004c00 <alarm_pool_add_alarm_at.constprop.0+0xa0>
10004b8c:	0067      	lsls	r7, r4, #1
10004b8e:	6833      	ldr	r3, [r6, #0]
10004b90:	193f      	adds	r7, r7, r4
10004b92:	3f03      	subs	r7, #3
10004b94:	19db      	adds	r3, r3, r7
10004b96:	785a      	ldrb	r2, [r3, #1]
10004b98:	73b2      	strb	r2, [r6, #14]
10004b9a:	2a00      	cmp	r2, #0
10004b9c:	d100      	bne.n	10004ba0 <alarm_pool_add_alarm_at.constprop.0+0x40>
10004b9e:	73f2      	strb	r2, [r6, #15]
10004ba0:	68a9      	ldr	r1, [r5, #8]
10004ba2:	4a34      	ldr	r2, [pc, #208]	; (10004c74 <alarm_pool_add_alarm_at.constprop.0+0x114>)
10004ba4:	468c      	mov	ip, r1
10004ba6:	4649      	mov	r1, r9
10004ba8:	18a2      	adds	r2, r4, r2
10004baa:	0112      	lsls	r2, r2, #4
10004bac:	4462      	add	r2, ip
10004bae:	6011      	str	r1, [r2, #0]
10004bb0:	4651      	mov	r1, sl
10004bb2:	6051      	str	r1, [r2, #4]
10004bb4:	4930      	ldr	r1, [pc, #192]	; (10004c78 <alarm_pool_add_alarm_at.constprop.0+0x118>)
10004bb6:	6091      	str	r1, [r2, #8]
10004bb8:	2100      	movs	r1, #0
10004bba:	60d1      	str	r1, [r2, #12]
10004bbc:	7099      	strb	r1, [r3, #2]
10004bbe:	7059      	strb	r1, [r3, #1]
10004bc0:	7019      	strb	r1, [r3, #0]
10004bc2:	7b73      	ldrb	r3, [r6, #13]
10004bc4:	469b      	mov	fp, r3
10004bc6:	2b00      	cmp	r3, #0
10004bc8:	d035      	beq.n	10004c36 <alarm_pool_add_alarm_at.constprop.0+0xd6>
10004bca:	0022      	movs	r2, r4
10004bcc:	0019      	movs	r1, r3
10004bce:	68b0      	ldr	r0, [r6, #8]
10004bd0:	6873      	ldr	r3, [r6, #4]
10004bd2:	4798      	blx	r3
10004bd4:	6832      	ldr	r2, [r6, #0]
10004bd6:	2800      	cmp	r0, #0
10004bd8:	d020      	beq.n	10004c1c <alarm_pool_add_alarm_at.constprop.0+0xbc>
10004bda:	465b      	mov	r3, fp
10004bdc:	4658      	mov	r0, fp
10004bde:	005b      	lsls	r3, r3, #1
10004be0:	445b      	add	r3, fp
10004be2:	19d7      	adds	r7, r2, r7
10004be4:	3b03      	subs	r3, #3
10004be6:	70b8      	strb	r0, [r7, #2]
10004be8:	18d1      	adds	r1, r2, r3
10004bea:	5cd3      	ldrb	r3, [r2, r3]
10004bec:	2b00      	cmp	r3, #0
10004bee:	d000      	beq.n	10004bf2 <alarm_pool_add_alarm_at.constprop.0+0x92>
10004bf0:	707b      	strb	r3, [r7, #1]
10004bf2:	465b      	mov	r3, fp
10004bf4:	700c      	strb	r4, [r1, #0]
10004bf6:	7373      	strb	r3, [r6, #13]
10004bf8:	455c      	cmp	r4, fp
10004bfa:	d01d      	beq.n	10004c38 <alarm_pool_add_alarm_at.constprop.0+0xd8>
10004bfc:	2600      	movs	r6, #0
10004bfe:	e026      	b.n	10004c4e <alarm_pool_add_alarm_at.constprop.0+0xee>
10004c00:	686b      	ldr	r3, [r5, #4]
10004c02:	f3bf 8f5f 	dmb	sy
10004c06:	601c      	str	r4, [r3, #0]
10004c08:	f388 8810 	msr	PRIMASK, r8
10004c0c:	2001      	movs	r0, #1
10004c0e:	4240      	negs	r0, r0
10004c10:	bcf0      	pop	{r4, r5, r6, r7}
10004c12:	46bb      	mov	fp, r7
10004c14:	46b2      	mov	sl, r6
10004c16:	46a9      	mov	r9, r5
10004c18:	46a0      	mov	r8, r4
10004c1a:	bdf8      	pop	{r3, r4, r5, r6, r7, pc}
10004c1c:	465b      	mov	r3, fp
10004c1e:	005b      	lsls	r3, r3, #1
10004c20:	445b      	add	r3, fp
10004c22:	3b03      	subs	r3, #3
10004c24:	18d3      	adds	r3, r2, r3
10004c26:	709c      	strb	r4, [r3, #2]
10004c28:	19d1      	adds	r1, r2, r7
10004c2a:	5dd2      	ldrb	r2, [r2, r7]
10004c2c:	2a00      	cmp	r2, #0
10004c2e:	d000      	beq.n	10004c32 <alarm_pool_add_alarm_at.constprop.0+0xd2>
10004c30:	705a      	strb	r2, [r3, #1]
10004c32:	465b      	mov	r3, fp
10004c34:	700b      	strb	r3, [r1, #0]
10004c36:	7374      	strb	r4, [r6, #13]
10004c38:	464a      	mov	r2, r9
10004c3a:	4653      	mov	r3, sl
10004c3c:	7d28      	ldrb	r0, [r5, #20]
10004c3e:	f000 fb47 	bl	100052d0 <hardware_alarm_set_target>
10004c42:	1e06      	subs	r6, r0, #0
10004c44:	d0da      	beq.n	10004bfc <alarm_pool_add_alarm_at.constprop.0+0x9c>
10004c46:	0021      	movs	r1, r4
10004c48:	6828      	ldr	r0, [r5, #0]
10004c4a:	f000 fd63 	bl	10005714 <ph_remove_and_free_node>
10004c4e:	68eb      	ldr	r3, [r5, #12]
10004c50:	191b      	adds	r3, r3, r4
10004c52:	3b01      	subs	r3, #1
10004c54:	7819      	ldrb	r1, [r3, #0]
10004c56:	686b      	ldr	r3, [r5, #4]
10004c58:	f3bf 8f5f 	dmb	sy
10004c5c:	2200      	movs	r2, #0
10004c5e:	601a      	str	r2, [r3, #0]
10004c60:	f388 8810 	msr	PRIMASK, r8
10004c64:	2000      	movs	r0, #0
10004c66:	2e00      	cmp	r6, #0
10004c68:	d1d2      	bne.n	10004c10 <alarm_pool_add_alarm_at.constprop.0+0xb0>
10004c6a:	0208      	lsls	r0, r1, #8
10004c6c:	4320      	orrs	r0, r4
10004c6e:	e7cf      	b.n	10004c10 <alarm_pool_add_alarm_at.constprop.0+0xb0>
10004c70:	200004f8 	.word	0x200004f8
10004c74:	0fffffff 	.word	0x0fffffff
10004c78:	10004869 	.word	0x10004869

10004c7c <alarm_pool_init_default>:
10004c7c:	b510      	push	{r4, lr}
10004c7e:	4c12      	ldr	r4, [pc, #72]	; (10004cc8 <alarm_pool_init_default+0x4c>)
10004c80:	6863      	ldr	r3, [r4, #4]
10004c82:	2b00      	cmp	r3, #0
10004c84:	d004      	beq.n	10004c90 <alarm_pool_init_default+0x14>
10004c86:	210a      	movs	r1, #10
10004c88:	4810      	ldr	r0, [pc, #64]	; (10004ccc <alarm_pool_init_default+0x50>)
10004c8a:	f7ff fdcb 	bl	10004824 <lock_init>
10004c8e:	bd10      	pop	{r4, pc}
10004c90:	0023      	movs	r3, r4
10004c92:	4a0f      	ldr	r2, [pc, #60]	; (10004cd0 <alarm_pool_init_default+0x54>)
10004c94:	2110      	movs	r1, #16
10004c96:	6820      	ldr	r0, [r4, #0]
10004c98:	f000 fbdc 	bl	10005454 <ph_post_alloc_init>
10004c9c:	2003      	movs	r0, #3
10004c9e:	f000 fa3d 	bl	1000511c <hardware_alarm_claim>
10004ca2:	2003      	movs	r0, #3
10004ca4:	f000 fb84 	bl	100053b0 <hardware_alarm_cancel>
10004ca8:	2003      	movs	r0, #3
10004caa:	490a      	ldr	r1, [pc, #40]	; (10004cd4 <alarm_pool_init_default+0x58>)
10004cac:	f000 faca 	bl	10005244 <hardware_alarm_set_callback>
10004cb0:	f7ff faea 	bl	10004288 <next_striped_spin_lock_num>
10004cb4:	4b08      	ldr	r3, [pc, #32]	; (10004cd8 <alarm_pool_init_default+0x5c>)
10004cb6:	469c      	mov	ip, r3
10004cb8:	2303      	movs	r3, #3
10004cba:	4460      	add	r0, ip
10004cbc:	7523      	strb	r3, [r4, #20]
10004cbe:	4b07      	ldr	r3, [pc, #28]	; (10004cdc <alarm_pool_init_default+0x60>)
10004cc0:	0080      	lsls	r0, r0, #2
10004cc2:	6060      	str	r0, [r4, #4]
10004cc4:	60dc      	str	r4, [r3, #12]
10004cc6:	e7de      	b.n	10004c86 <alarm_pool_init_default+0xa>
10004cc8:	200004f8 	.word	0x200004f8
10004ccc:	20026b4c 	.word	0x20026b4c
10004cd0:	10004835 	.word	0x10004835
10004cd4:	10004999 	.word	0x10004999
10004cd8:	34000040 	.word	0x34000040
10004cdc:	20026b24 	.word	0x20026b24

10004ce0 <alarm_pool_get_default>:
10004ce0:	4800      	ldr	r0, [pc, #0]	; (10004ce4 <alarm_pool_get_default+0x4>)
10004ce2:	4770      	bx	lr
10004ce4:	200004f8 	.word	0x200004f8

10004ce8 <alarm_pool_add_alarm_at>:
10004ce8:	b5f0      	push	{r4, r5, r6, r7, lr}
10004cea:	4657      	mov	r7, sl
10004cec:	464e      	mov	r6, r9
10004cee:	4645      	mov	r5, r8
10004cf0:	46de      	mov	lr, fp
10004cf2:	b5e0      	push	{r5, r6, r7, lr}
10004cf4:	b085      	sub	sp, #20
10004cf6:	9301      	str	r3, [sp, #4]
10004cf8:	ab10      	add	r3, sp, #64	; 0x40
10004cfa:	781b      	ldrb	r3, [r3, #0]
10004cfc:	0006      	movs	r6, r0
10004cfe:	9303      	str	r3, [sp, #12]
10004d00:	2300      	movs	r3, #0
10004d02:	469a      	mov	sl, r3
10004d04:	4698      	mov	r8, r3
10004d06:	9200      	str	r2, [sp, #0]
10004d08:	6872      	ldr	r2, [r6, #4]
10004d0a:	f3ef 8910 	mrs	r9, PRIMASK
10004d0e:	b672      	cpsid	i
10004d10:	6813      	ldr	r3, [r2, #0]
10004d12:	2b00      	cmp	r3, #0
10004d14:	d0fc      	beq.n	10004d10 <alarm_pool_add_alarm_at+0x28>
10004d16:	f3bf 8f5f 	dmb	sy
10004d1a:	6835      	ldr	r5, [r6, #0]
10004d1c:	7bac      	ldrb	r4, [r5, #14]
10004d1e:	2c00      	cmp	r4, #0
10004d20:	d049      	beq.n	10004db6 <alarm_pool_add_alarm_at+0xce>
10004d22:	0067      	lsls	r7, r4, #1
10004d24:	682b      	ldr	r3, [r5, #0]
10004d26:	193f      	adds	r7, r7, r4
10004d28:	3f03      	subs	r7, #3
10004d2a:	19db      	adds	r3, r3, r7
10004d2c:	785a      	ldrb	r2, [r3, #1]
10004d2e:	73aa      	strb	r2, [r5, #14]
10004d30:	2a00      	cmp	r2, #0
10004d32:	d100      	bne.n	10004d36 <alarm_pool_add_alarm_at+0x4e>
10004d34:	73ea      	strb	r2, [r5, #15]
10004d36:	68b1      	ldr	r1, [r6, #8]
10004d38:	4a4f      	ldr	r2, [pc, #316]	; (10004e78 <alarm_pool_add_alarm_at+0x190>)
10004d3a:	468c      	mov	ip, r1
10004d3c:	9800      	ldr	r0, [sp, #0]
10004d3e:	9901      	ldr	r1, [sp, #4]
10004d40:	18a2      	adds	r2, r4, r2
10004d42:	0112      	lsls	r2, r2, #4
10004d44:	4462      	add	r2, ip
10004d46:	6010      	str	r0, [r2, #0]
10004d48:	6051      	str	r1, [r2, #4]
10004d4a:	990e      	ldr	r1, [sp, #56]	; 0x38
10004d4c:	6091      	str	r1, [r2, #8]
10004d4e:	990f      	ldr	r1, [sp, #60]	; 0x3c
10004d50:	60d1      	str	r1, [r2, #12]
10004d52:	4642      	mov	r2, r8
10004d54:	709a      	strb	r2, [r3, #2]
10004d56:	705a      	strb	r2, [r3, #1]
10004d58:	701a      	strb	r2, [r3, #0]
10004d5a:	7b6b      	ldrb	r3, [r5, #13]
10004d5c:	469b      	mov	fp, r3
10004d5e:	2b00      	cmp	r3, #0
10004d60:	d045      	beq.n	10004dee <alarm_pool_add_alarm_at+0x106>
10004d62:	0022      	movs	r2, r4
10004d64:	0019      	movs	r1, r3
10004d66:	68a8      	ldr	r0, [r5, #8]
10004d68:	686b      	ldr	r3, [r5, #4]
10004d6a:	4798      	blx	r3
10004d6c:	682a      	ldr	r2, [r5, #0]
10004d6e:	2800      	cmp	r0, #0
10004d70:	d030      	beq.n	10004dd4 <alarm_pool_add_alarm_at+0xec>
10004d72:	465b      	mov	r3, fp
10004d74:	4658      	mov	r0, fp
10004d76:	005b      	lsls	r3, r3, #1
10004d78:	445b      	add	r3, fp
10004d7a:	19d7      	adds	r7, r2, r7
10004d7c:	3b03      	subs	r3, #3
10004d7e:	70b8      	strb	r0, [r7, #2]
10004d80:	18d1      	adds	r1, r2, r3
10004d82:	5cd3      	ldrb	r3, [r2, r3]
10004d84:	2b00      	cmp	r3, #0
10004d86:	d000      	beq.n	10004d8a <alarm_pool_add_alarm_at+0xa2>
10004d88:	707b      	strb	r3, [r7, #1]
10004d8a:	465b      	mov	r3, fp
10004d8c:	700c      	strb	r4, [r1, #0]
10004d8e:	736b      	strb	r3, [r5, #13]
10004d90:	455c      	cmp	r4, fp
10004d92:	d02d      	beq.n	10004df0 <alarm_pool_add_alarm_at+0x108>
10004d94:	68f3      	ldr	r3, [r6, #12]
10004d96:	191b      	adds	r3, r3, r4
10004d98:	3b01      	subs	r3, #1
10004d9a:	7818      	ldrb	r0, [r3, #0]
10004d9c:	6873      	ldr	r3, [r6, #4]
10004d9e:	f3bf 8f5f 	dmb	sy
10004da2:	4642      	mov	r2, r8
10004da4:	601a      	str	r2, [r3, #0]
10004da6:	f389 8810 	msr	PRIMASK, r9
10004daa:	4653      	mov	r3, sl
10004dac:	2b00      	cmp	r3, #0
10004dae:	d12c      	bne.n	10004e0a <alarm_pool_add_alarm_at+0x122>
10004db0:	0200      	lsls	r0, r0, #8
10004db2:	4320      	orrs	r0, r4
10004db4:	e007      	b.n	10004dc6 <alarm_pool_add_alarm_at+0xde>
10004db6:	6873      	ldr	r3, [r6, #4]
10004db8:	f3bf 8f5f 	dmb	sy
10004dbc:	601c      	str	r4, [r3, #0]
10004dbe:	f389 8810 	msr	PRIMASK, r9
10004dc2:	2001      	movs	r0, #1
10004dc4:	4240      	negs	r0, r0
10004dc6:	b005      	add	sp, #20
10004dc8:	bcf0      	pop	{r4, r5, r6, r7}
10004dca:	46bb      	mov	fp, r7
10004dcc:	46b2      	mov	sl, r6
10004dce:	46a9      	mov	r9, r5
10004dd0:	46a0      	mov	r8, r4
10004dd2:	bdf0      	pop	{r4, r5, r6, r7, pc}
10004dd4:	465b      	mov	r3, fp
10004dd6:	005b      	lsls	r3, r3, #1
10004dd8:	445b      	add	r3, fp
10004dda:	3b03      	subs	r3, #3
10004ddc:	18d3      	adds	r3, r2, r3
10004dde:	709c      	strb	r4, [r3, #2]
10004de0:	19d1      	adds	r1, r2, r7
10004de2:	5dd2      	ldrb	r2, [r2, r7]
10004de4:	2a00      	cmp	r2, #0
10004de6:	d000      	beq.n	10004dea <alarm_pool_add_alarm_at+0x102>
10004de8:	705a      	strb	r2, [r3, #1]
10004dea:	465b      	mov	r3, fp
10004dec:	700b      	strb	r3, [r1, #0]
10004dee:	736c      	strb	r4, [r5, #13]
10004df0:	7d30      	ldrb	r0, [r6, #20]
10004df2:	9a00      	ldr	r2, [sp, #0]
10004df4:	9b01      	ldr	r3, [sp, #4]
10004df6:	f000 fa6b 	bl	100052d0 <hardware_alarm_set_target>
10004dfa:	4682      	mov	sl, r0
10004dfc:	2800      	cmp	r0, #0
10004dfe:	d0c9      	beq.n	10004d94 <alarm_pool_add_alarm_at+0xac>
10004e00:	0021      	movs	r1, r4
10004e02:	6830      	ldr	r0, [r6, #0]
10004e04:	f000 fc86 	bl	10005714 <ph_remove_and_free_node>
10004e08:	e7c4      	b.n	10004d94 <alarm_pool_add_alarm_at+0xac>
10004e0a:	9b03      	ldr	r3, [sp, #12]
10004e0c:	2b00      	cmp	r3, #0
10004e0e:	d030      	beq.n	10004e72 <alarm_pool_add_alarm_at+0x18a>
10004e10:	9b0e      	ldr	r3, [sp, #56]	; 0x38
10004e12:	2000      	movs	r0, #0
10004e14:	990f      	ldr	r1, [sp, #60]	; 0x3c
10004e16:	4798      	blx	r3
10004e18:	0003      	movs	r3, r0
10004e1a:	0004      	movs	r4, r0
10004e1c:	000d      	movs	r5, r1
10004e1e:	430b      	orrs	r3, r1
10004e20:	d027      	beq.n	10004e72 <alarm_pool_add_alarm_at+0x18a>
10004e22:	2900      	cmp	r1, #0
10004e24:	da0d      	bge.n	10004e42 <alarm_pool_add_alarm_at+0x15a>
10004e26:	9800      	ldr	r0, [sp, #0]
10004e28:	9901      	ldr	r1, [sp, #4]
10004e2a:	0002      	movs	r2, r0
10004e2c:	000b      	movs	r3, r1
10004e2e:	1b12      	subs	r2, r2, r4
10004e30:	41ab      	sbcs	r3, r5
10004e32:	4299      	cmp	r1, r3
10004e34:	d813      	bhi.n	10004e5e <alarm_pool_add_alarm_at+0x176>
10004e36:	d018      	beq.n	10004e6a <alarm_pool_add_alarm_at+0x182>
10004e38:	9200      	str	r2, [sp, #0]
10004e3a:	9301      	str	r3, [sp, #4]
10004e3c:	9b03      	ldr	r3, [sp, #12]
10004e3e:	469a      	mov	sl, r3
10004e40:	e762      	b.n	10004d08 <alarm_pool_add_alarm_at+0x20>
10004e42:	f000 f977 	bl	10005134 <time_us_64>
10004e46:	0002      	movs	r2, r0
10004e48:	000b      	movs	r3, r1
10004e4a:	18a4      	adds	r4, r4, r2
10004e4c:	415d      	adcs	r5, r3
10004e4e:	9400      	str	r4, [sp, #0]
10004e50:	9501      	str	r5, [sp, #4]
10004e52:	42a9      	cmp	r1, r5
10004e54:	d803      	bhi.n	10004e5e <alarm_pool_add_alarm_at+0x176>
10004e56:	d1f1      	bne.n	10004e3c <alarm_pool_add_alarm_at+0x154>
10004e58:	9900      	ldr	r1, [sp, #0]
10004e5a:	428a      	cmp	r2, r1
10004e5c:	d9ee      	bls.n	10004e3c <alarm_pool_add_alarm_at+0x154>
10004e5e:	2301      	movs	r3, #1
10004e60:	425b      	negs	r3, r3
10004e62:	17dc      	asrs	r4, r3, #31
10004e64:	9300      	str	r3, [sp, #0]
10004e66:	9401      	str	r4, [sp, #4]
10004e68:	e7e8      	b.n	10004e3c <alarm_pool_add_alarm_at+0x154>
10004e6a:	9900      	ldr	r1, [sp, #0]
10004e6c:	4291      	cmp	r1, r2
10004e6e:	d9e3      	bls.n	10004e38 <alarm_pool_add_alarm_at+0x150>
10004e70:	e7f5      	b.n	10004e5e <alarm_pool_add_alarm_at+0x176>
10004e72:	2000      	movs	r0, #0
10004e74:	e7a7      	b.n	10004dc6 <alarm_pool_add_alarm_at+0xde>
10004e76:	46c0      	nop			; (mov r8, r8)
10004e78:	0fffffff 	.word	0x0fffffff

10004e7c <sleep_until>:
10004e7c:	b5f0      	push	{r4, r5, r6, r7, lr}
10004e7e:	0004      	movs	r4, r0
10004e80:	000d      	movs	r5, r1
10004e82:	2606      	movs	r6, #6
10004e84:	4276      	negs	r6, r6
10004e86:	17f7      	asrs	r7, r6, #31
10004e88:	46c6      	mov	lr, r8
10004e8a:	1936      	adds	r6, r6, r4
10004e8c:	416f      	adcs	r7, r5
10004e8e:	b500      	push	{lr}
10004e90:	428f      	cmp	r7, r1
10004e92:	d813      	bhi.n	10004ebc <sleep_until+0x40>
10004e94:	d010      	beq.n	10004eb8 <sleep_until+0x3c>
10004e96:	f000 f94d 	bl	10005134 <time_us_64>
10004e9a:	0032      	movs	r2, r6
10004e9c:	003b      	movs	r3, r7
10004e9e:	1a12      	subs	r2, r2, r0
10004ea0:	418b      	sbcs	r3, r1
10004ea2:	2b00      	cmp	r3, #0
10004ea4:	dc14      	bgt.n	10004ed0 <sleep_until+0x54>
10004ea6:	2b00      	cmp	r3, #0
10004ea8:	d037      	beq.n	10004f1a <sleep_until+0x9e>
10004eaa:	0029      	movs	r1, r5
10004eac:	0020      	movs	r0, r4
10004eae:	f000 f9b9 	bl	10005224 <busy_wait_until>
10004eb2:	bc80      	pop	{r7}
10004eb4:	46b8      	mov	r8, r7
10004eb6:	bdf0      	pop	{r4, r5, r6, r7, pc}
10004eb8:	4286      	cmp	r6, r0
10004eba:	d9ec      	bls.n	10004e96 <sleep_until+0x1a>
10004ebc:	2600      	movs	r6, #0
10004ebe:	2700      	movs	r7, #0
10004ec0:	f000 f938 	bl	10005134 <time_us_64>
10004ec4:	0032      	movs	r2, r6
10004ec6:	003b      	movs	r3, r7
10004ec8:	1a12      	subs	r2, r2, r0
10004eca:	418b      	sbcs	r3, r1
10004ecc:	2b00      	cmp	r3, #0
10004ece:	ddea      	ble.n	10004ea6 <sleep_until+0x2a>
10004ed0:	0030      	movs	r0, r6
10004ed2:	0039      	movs	r1, r7
10004ed4:	f7ff fe44 	bl	10004b60 <alarm_pool_add_alarm_at.constprop.0>
10004ed8:	2800      	cmp	r0, #0
10004eda:	dbe6      	blt.n	10004eaa <sleep_until+0x2e>
10004edc:	2300      	movs	r3, #0
10004ede:	4698      	mov	r8, r3
10004ee0:	46bc      	mov	ip, r7
10004ee2:	4a0f      	ldr	r2, [pc, #60]	; (10004f20 <sleep_until+0xa4>)
10004ee4:	4f0f      	ldr	r7, [pc, #60]	; (10004f24 <sleep_until+0xa8>)
10004ee6:	6a7b      	ldr	r3, [r7, #36]	; 0x24
10004ee8:	459c      	cmp	ip, r3
10004eea:	d804      	bhi.n	10004ef6 <sleep_until+0x7a>
10004eec:	6ab9      	ldr	r1, [r7, #40]	; 0x28
10004eee:	428e      	cmp	r6, r1
10004ef0:	d9db      	bls.n	10004eaa <sleep_until+0x2e>
10004ef2:	459c      	cmp	ip, r3
10004ef4:	d1d9      	bne.n	10004eaa <sleep_until+0x2e>
10004ef6:	6811      	ldr	r1, [r2, #0]
10004ef8:	f3ef 8010 	mrs	r0, PRIMASK
10004efc:	b672      	cpsid	i
10004efe:	680b      	ldr	r3, [r1, #0]
10004f00:	2b00      	cmp	r3, #0
10004f02:	d0fc      	beq.n	10004efe <sleep_until+0x82>
10004f04:	f3bf 8f5f 	dmb	sy
10004f08:	6813      	ldr	r3, [r2, #0]
10004f0a:	f3bf 8f5f 	dmb	sy
10004f0e:	4641      	mov	r1, r8
10004f10:	6019      	str	r1, [r3, #0]
10004f12:	f380 8810 	msr	PRIMASK, r0
10004f16:	bf20      	wfe
10004f18:	e7e5      	b.n	10004ee6 <sleep_until+0x6a>
10004f1a:	2a00      	cmp	r2, #0
10004f1c:	d0c5      	beq.n	10004eaa <sleep_until+0x2e>
10004f1e:	e7d7      	b.n	10004ed0 <sleep_until+0x54>
10004f20:	20026b4c 	.word	0x20026b4c
10004f24:	40054000 	.word	0x40054000

10004f28 <sleep_us>:
10004f28:	b570      	push	{r4, r5, r6, lr}
10004f2a:	0004      	movs	r4, r0
10004f2c:	000d      	movs	r5, r1
10004f2e:	f000 f901 	bl	10005134 <time_us_64>
10004f32:	0002      	movs	r2, r0
10004f34:	000b      	movs	r3, r1
10004f36:	0020      	movs	r0, r4
10004f38:	0029      	movs	r1, r5
10004f3a:	1880      	adds	r0, r0, r2
10004f3c:	4159      	adcs	r1, r3
10004f3e:	428b      	cmp	r3, r1
10004f40:	d805      	bhi.n	10004f4e <sleep_us+0x26>
10004f42:	d002      	beq.n	10004f4a <sleep_us+0x22>
10004f44:	f7ff ff9a 	bl	10004e7c <sleep_until>
10004f48:	bd70      	pop	{r4, r5, r6, pc}
10004f4a:	4282      	cmp	r2, r0
10004f4c:	d9fa      	bls.n	10004f44 <sleep_us+0x1c>
10004f4e:	2001      	movs	r0, #1
10004f50:	4240      	negs	r0, r0
10004f52:	17c1      	asrs	r1, r0, #31
10004f54:	e7f6      	b.n	10004f44 <sleep_us+0x1c>
10004f56:	46c0      	nop			; (mov r8, r8)

10004f58 <sleep_ms>:
10004f58:	b570      	push	{r4, r5, r6, lr}
10004f5a:	0006      	movs	r6, r0
10004f5c:	f000 f8ea 	bl	10005134 <time_us_64>
10004f60:	22fa      	movs	r2, #250	; 0xfa
10004f62:	0004      	movs	r4, r0
10004f64:	000d      	movs	r5, r1
10004f66:	2300      	movs	r3, #0
10004f68:	0030      	movs	r0, r6
10004f6a:	2100      	movs	r1, #0
10004f6c:	0092      	lsls	r2, r2, #2
10004f6e:	f003 f8af 	bl	100080d0 <__wrap___aeabi_lmul>
10004f72:	1900      	adds	r0, r0, r4
10004f74:	4169      	adcs	r1, r5
10004f76:	428d      	cmp	r5, r1
10004f78:	d805      	bhi.n	10004f86 <sleep_ms+0x2e>
10004f7a:	d002      	beq.n	10004f82 <sleep_ms+0x2a>
10004f7c:	f7ff ff7e 	bl	10004e7c <sleep_until>
10004f80:	bd70      	pop	{r4, r5, r6, pc}
10004f82:	4284      	cmp	r4, r0
10004f84:	d9fa      	bls.n	10004f7c <sleep_ms+0x24>
10004f86:	2001      	movs	r0, #1
10004f88:	4240      	negs	r0, r0
10004f8a:	17c1      	asrs	r1, r0, #31
10004f8c:	e7f6      	b.n	10004f7c <sleep_ms+0x24>
10004f8e:	46c0      	nop			; (mov r8, r8)

10004f90 <best_effort_wfe_or_timeout>:
10004f90:	b5f8      	push	{r3, r4, r5, r6, r7, lr}
10004f92:	46ce      	mov	lr, r9
10004f94:	4647      	mov	r7, r8
10004f96:	b580      	push	{r7, lr}
10004f98:	0006      	movs	r6, r0
10004f9a:	000c      	movs	r4, r1
10004f9c:	f7ff fde0 	bl	10004b60 <alarm_pool_add_alarm_at.constprop.0>
10004fa0:	2800      	cmp	r0, #0
10004fa2:	dc0c      	bgt.n	10004fbe <best_effort_wfe_or_timeout+0x2e>
10004fa4:	4b2d      	ldr	r3, [pc, #180]	; (1000505c <best_effort_wfe_or_timeout+0xcc>)
10004fa6:	2000      	movs	r0, #0
10004fa8:	6a59      	ldr	r1, [r3, #36]	; 0x24
10004faa:	428c      	cmp	r4, r1
10004fac:	d803      	bhi.n	10004fb6 <best_effort_wfe_or_timeout+0x26>
10004fae:	6a9b      	ldr	r3, [r3, #40]	; 0x28
10004fb0:	3001      	adds	r0, #1
10004fb2:	42b3      	cmp	r3, r6
10004fb4:	d345      	bcc.n	10005042 <best_effort_wfe_or_timeout+0xb2>
10004fb6:	bcc0      	pop	{r6, r7}
10004fb8:	46b9      	mov	r9, r7
10004fba:	46b0      	mov	r8, r6
10004fbc:	bdf8      	pop	{r3, r4, r5, r6, r7, pc}
10004fbe:	bf20      	wfe
10004fc0:	4d27      	ldr	r5, [pc, #156]	; (10005060 <best_effort_wfe_or_timeout+0xd0>)
10004fc2:	686a      	ldr	r2, [r5, #4]
10004fc4:	f3ef 8710 	mrs	r7, PRIMASK
10004fc8:	b672      	cpsid	i
10004fca:	6813      	ldr	r3, [r2, #0]
10004fcc:	2b00      	cmp	r3, #0
10004fce:	d0fc      	beq.n	10004fca <best_effort_wfe_or_timeout+0x3a>
10004fd0:	f3bf 8f5f 	dmb	sy
10004fd4:	682b      	ldr	r3, [r5, #0]
10004fd6:	b2c1      	uxtb	r1, r0
10004fd8:	469c      	mov	ip, r3
10004fda:	7b5b      	ldrb	r3, [r3, #13]
10004fdc:	428b      	cmp	r3, r1
10004fde:	d035      	beq.n	1000504c <best_effort_wfe_or_timeout+0xbc>
10004fe0:	23ff      	movs	r3, #255	; 0xff
10004fe2:	4003      	ands	r3, r0
10004fe4:	005a      	lsls	r2, r3, #1
10004fe6:	4691      	mov	r9, r2
10004fe8:	4662      	mov	r2, ip
10004fea:	6812      	ldr	r2, [r2, #0]
10004fec:	4499      	add	r9, r3
10004fee:	4690      	mov	r8, r2
10004ff0:	464a      	mov	r2, r9
10004ff2:	4442      	add	r2, r8
10004ff4:	3a03      	subs	r2, #3
10004ff6:	7892      	ldrb	r2, [r2, #2]
10004ff8:	2a00      	cmp	r2, #0
10004ffa:	d01d      	beq.n	10005038 <best_effort_wfe_or_timeout+0xa8>
10004ffc:	68ea      	ldr	r2, [r5, #12]
10004ffe:	0a00      	lsrs	r0, r0, #8
10005000:	4690      	mov	r8, r2
10005002:	4443      	add	r3, r8
10005004:	3b01      	subs	r3, #1
10005006:	781b      	ldrb	r3, [r3, #0]
10005008:	b2c0      	uxtb	r0, r0
1000500a:	4283      	cmp	r3, r0
1000500c:	d021      	beq.n	10005052 <best_effort_wfe_or_timeout+0xc2>
1000500e:	686b      	ldr	r3, [r5, #4]
10005010:	f3bf 8f5f 	dmb	sy
10005014:	2200      	movs	r2, #0
10005016:	601a      	str	r2, [r3, #0]
10005018:	f387 8810 	msr	PRIMASK, r7
1000501c:	4a0f      	ldr	r2, [pc, #60]	; (1000505c <best_effort_wfe_or_timeout+0xcc>)
1000501e:	2000      	movs	r0, #0
10005020:	6a53      	ldr	r3, [r2, #36]	; 0x24
10005022:	429c      	cmp	r4, r3
10005024:	d8c7      	bhi.n	10004fb6 <best_effort_wfe_or_timeout+0x26>
10005026:	6a92      	ldr	r2, [r2, #40]	; 0x28
10005028:	3001      	adds	r0, #1
1000502a:	42b2      	cmp	r2, r6
1000502c:	d2c3      	bcs.n	10004fb6 <best_effort_wfe_or_timeout+0x26>
1000502e:	1ae0      	subs	r0, r4, r3
10005030:	1e42      	subs	r2, r0, #1
10005032:	4190      	sbcs	r0, r2
10005034:	b2c0      	uxtb	r0, r0
10005036:	e7be      	b.n	10004fb6 <best_effort_wfe_or_timeout+0x26>
10005038:	692b      	ldr	r3, [r5, #16]
1000503a:	4298      	cmp	r0, r3
1000503c:	d1e7      	bne.n	1000500e <best_effort_wfe_or_timeout+0x7e>
1000503e:	612a      	str	r2, [r5, #16]
10005040:	e7e5      	b.n	1000500e <best_effort_wfe_or_timeout+0x7e>
10005042:	1a60      	subs	r0, r4, r1
10005044:	1e43      	subs	r3, r0, #1
10005046:	4198      	sbcs	r0, r3
10005048:	b2c0      	uxtb	r0, r0
1000504a:	e7b4      	b.n	10004fb6 <best_effort_wfe_or_timeout+0x26>
1000504c:	23ff      	movs	r3, #255	; 0xff
1000504e:	4003      	ands	r3, r0
10005050:	e7d4      	b.n	10004ffc <best_effort_wfe_or_timeout+0x6c>
10005052:	4660      	mov	r0, ip
10005054:	f000 fb5e 	bl	10005714 <ph_remove_and_free_node>
10005058:	e7d9      	b.n	1000500e <best_effort_wfe_or_timeout+0x7e>
1000505a:	46c0      	nop			; (mov r8, r8)
1000505c:	40054000 	.word	0x40054000
10005060:	200004f8 	.word	0x200004f8

10005064 <hardware_alarm_irq_handler>:
10005064:	b5f0      	push	{r4, r5, r6, r7, lr}
10005066:	46d6      	mov	lr, sl
10005068:	464f      	mov	r7, r9
1000506a:	4646      	mov	r6, r8
1000506c:	b5c0      	push	{r6, r7, lr}
1000506e:	f3ef 8305 	mrs	r3, IPSR
10005072:	223f      	movs	r2, #63	; 0x3f
10005074:	4013      	ands	r3, r2
10005076:	0018      	movs	r0, r3
10005078:	3810      	subs	r0, #16
1000507a:	f3ef 8c10 	mrs	ip, PRIMASK
1000507e:	b672      	cpsid	i
10005080:	4d20      	ldr	r5, [pc, #128]	; (10005104 <hardware_alarm_irq_handler+0xa0>)
10005082:	682a      	ldr	r2, [r5, #0]
10005084:	2a00      	cmp	r2, #0
10005086:	d0fc      	beq.n	10005082 <hardware_alarm_irq_handler+0x1e>
10005088:	f3bf 8f5f 	dmb	sy
1000508c:	2201      	movs	r2, #1
1000508e:	0011      	movs	r1, r2
10005090:	4081      	lsls	r1, r0
10005092:	4c1d      	ldr	r4, [pc, #116]	; (10005108 <hardware_alarm_irq_handler+0xa4>)
10005094:	4688      	mov	r8, r1
10005096:	6361      	str	r1, [r4, #52]	; 0x34
10005098:	491c      	ldr	r1, [pc, #112]	; (1000510c <hardware_alarm_irq_handler+0xa8>)
1000509a:	0017      	movs	r7, r2
1000509c:	780e      	ldrb	r6, [r1, #0]
1000509e:	468a      	mov	sl, r1
100050a0:	0031      	movs	r1, r6
100050a2:	40c1      	lsrs	r1, r0
100050a4:	400f      	ands	r7, r1
100050a6:	420a      	tst	r2, r1
100050a8:	d109      	bne.n	100050be <hardware_alarm_irq_handler+0x5a>
100050aa:	f3bf 8f5f 	dmb	sy
100050ae:	602f      	str	r7, [r5, #0]
100050b0:	f38c 8810 	msr	PRIMASK, ip
100050b4:	bce0      	pop	{r5, r6, r7}
100050b6:	46ba      	mov	sl, r7
100050b8:	46b1      	mov	r9, r6
100050ba:	46a8      	mov	r8, r5
100050bc:	bdf0      	pop	{r4, r5, r6, r7, pc}
100050be:	4914      	ldr	r1, [pc, #80]	; (10005110 <hardware_alarm_irq_handler+0xac>)
100050c0:	0082      	lsls	r2, r0, #2
100050c2:	6a64      	ldr	r4, [r4, #36]	; 0x24
100050c4:	5851      	ldr	r1, [r2, r1]
100050c6:	428c      	cmp	r4, r1
100050c8:	d30f      	bcc.n	100050ea <hardware_alarm_irq_handler+0x86>
100050ca:	4b12      	ldr	r3, [pc, #72]	; (10005114 <hardware_alarm_irq_handler+0xb0>)
100050cc:	58d2      	ldr	r2, [r2, r3]
100050ce:	4643      	mov	r3, r8
100050d0:	439e      	bics	r6, r3
100050d2:	4653      	mov	r3, sl
100050d4:	701e      	strb	r6, [r3, #0]
100050d6:	f3bf 8f5f 	dmb	sy
100050da:	2300      	movs	r3, #0
100050dc:	602b      	str	r3, [r5, #0]
100050de:	f38c 8810 	msr	PRIMASK, ip
100050e2:	2a00      	cmp	r2, #0
100050e4:	d0e6      	beq.n	100050b4 <hardware_alarm_irq_handler+0x50>
100050e6:	4790      	blx	r2
100050e8:	e7e4      	b.n	100050b4 <hardware_alarm_irq_handler+0x50>
100050ea:	4a0b      	ldr	r2, [pc, #44]	; (10005118 <hardware_alarm_irq_handler+0xb4>)
100050ec:	009b      	lsls	r3, r3, #2
100050ee:	4690      	mov	r8, r2
100050f0:	4443      	add	r3, r8
100050f2:	681a      	ldr	r2, [r3, #0]
100050f4:	601a      	str	r2, [r3, #0]
100050f6:	f3bf 8f5f 	dmb	sy
100050fa:	2300      	movs	r3, #0
100050fc:	602b      	str	r3, [r5, #0]
100050fe:	f38c 8810 	msr	PRIMASK, ip
10005102:	e7d7      	b.n	100050b4 <hardware_alarm_irq_handler+0x50>
10005104:	d0000128 	.word	0xd0000128
10005108:	40054000 	.word	0x40054000
1000510c:	20026b95 	.word	0x20026b95
10005110:	20026b58 	.word	0x20026b58
10005114:	2002651c 	.word	0x2002651c
10005118:	40053fd0 	.word	0x40053fd0

1000511c <hardware_alarm_claim>:
1000511c:	b510      	push	{r4, lr}
1000511e:	0001      	movs	r1, r0
10005120:	4a02      	ldr	r2, [pc, #8]	; (1000512c <hardware_alarm_claim+0x10>)
10005122:	4803      	ldr	r0, [pc, #12]	; (10005130 <hardware_alarm_claim+0x14>)
10005124:	f7ff f82a 	bl	1000417c <hw_claim_or_assert>
10005128:	bd10      	pop	{r4, pc}
1000512a:	46c0      	nop			; (mov r8, r8)
1000512c:	100128cc 	.word	0x100128cc
10005130:	20026b8d 	.word	0x20026b8d

10005134 <time_us_64>:
10005134:	4b03      	ldr	r3, [pc, #12]	; (10005144 <time_us_64+0x10>)
10005136:	6a59      	ldr	r1, [r3, #36]	; 0x24
10005138:	000a      	movs	r2, r1
1000513a:	6a98      	ldr	r0, [r3, #40]	; 0x28
1000513c:	6a59      	ldr	r1, [r3, #36]	; 0x24
1000513e:	428a      	cmp	r2, r1
10005140:	d1fa      	bne.n	10005138 <time_us_64+0x4>
10005142:	4770      	bx	lr
10005144:	40054000 	.word	0x40054000

10005148 <busy_wait_us>:
10005148:	b570      	push	{r4, r5, r6, lr}
1000514a:	0004      	movs	r4, r0
1000514c:	000d      	movs	r5, r1
1000514e:	4a12      	ldr	r2, [pc, #72]	; (10005198 <busy_wait_us+0x50>)
10005150:	6a53      	ldr	r3, [r2, #36]	; 0x24
10005152:	0019      	movs	r1, r3
10005154:	6a96      	ldr	r6, [r2, #40]	; 0x28
10005156:	6a53      	ldr	r3, [r2, #36]	; 0x24
10005158:	428b      	cmp	r3, r1
1000515a:	d1fa      	bne.n	10005152 <busy_wait_us+0xa>
1000515c:	0030      	movs	r0, r6
1000515e:	0019      	movs	r1, r3
10005160:	1824      	adds	r4, r4, r0
10005162:	414d      	adcs	r5, r1
10005164:	42ab      	cmp	r3, r5
10005166:	d811      	bhi.n	1000518c <busy_wait_us+0x44>
10005168:	d00e      	beq.n	10005188 <busy_wait_us+0x40>
1000516a:	002b      	movs	r3, r5
1000516c:	490a      	ldr	r1, [pc, #40]	; (10005198 <busy_wait_us+0x50>)
1000516e:	6a4a      	ldr	r2, [r1, #36]	; 0x24
10005170:	429a      	cmp	r2, r3
10005172:	d3fc      	bcc.n	1000516e <busy_wait_us+0x26>
10005174:	d107      	bne.n	10005186 <busy_wait_us+0x3e>
10005176:	4a08      	ldr	r2, [pc, #32]	; (10005198 <busy_wait_us+0x50>)
10005178:	e002      	b.n	10005180 <busy_wait_us+0x38>
1000517a:	6a51      	ldr	r1, [r2, #36]	; 0x24
1000517c:	4299      	cmp	r1, r3
1000517e:	d102      	bne.n	10005186 <busy_wait_us+0x3e>
10005180:	6a91      	ldr	r1, [r2, #40]	; 0x28
10005182:	42a1      	cmp	r1, r4
10005184:	d3f9      	bcc.n	1000517a <busy_wait_us+0x32>
10005186:	bd70      	pop	{r4, r5, r6, pc}
10005188:	42a6      	cmp	r6, r4
1000518a:	d9ee      	bls.n	1000516a <busy_wait_us+0x22>
1000518c:	2301      	movs	r3, #1
1000518e:	2401      	movs	r4, #1
10005190:	4264      	negs	r4, r4
10005192:	17e5      	asrs	r5, r4, #31
10005194:	425b      	negs	r3, r3
10005196:	e7e9      	b.n	1000516c <busy_wait_us+0x24>
10005198:	40054000 	.word	0x40054000

1000519c <busy_wait_ms>:
1000519c:	4b1f      	ldr	r3, [pc, #124]	; (1000521c <busy_wait_ms+0x80>)
1000519e:	b570      	push	{r4, r5, r6, lr}
100051a0:	4298      	cmp	r0, r3
100051a2:	d80b      	bhi.n	100051bc <busy_wait_ms+0x20>
100051a4:	0142      	lsls	r2, r0, #5
100051a6:	1a12      	subs	r2, r2, r0
100051a8:	0092      	lsls	r2, r2, #2
100051aa:	1810      	adds	r0, r2, r0
100051ac:	4a1c      	ldr	r2, [pc, #112]	; (10005220 <busy_wait_ms+0x84>)
100051ae:	00c0      	lsls	r0, r0, #3
100051b0:	6a91      	ldr	r1, [r2, #40]	; 0x28
100051b2:	6a93      	ldr	r3, [r2, #40]	; 0x28
100051b4:	1a5b      	subs	r3, r3, r1
100051b6:	4298      	cmp	r0, r3
100051b8:	d8fb      	bhi.n	100051b2 <busy_wait_ms+0x16>
100051ba:	bd70      	pop	{r4, r5, r6, pc}
100051bc:	22fa      	movs	r2, #250	; 0xfa
100051be:	2300      	movs	r3, #0
100051c0:	0092      	lsls	r2, r2, #2
100051c2:	2100      	movs	r1, #0
100051c4:	f002 ff84 	bl	100080d0 <__wrap___aeabi_lmul>
100051c8:	0004      	movs	r4, r0
100051ca:	000d      	movs	r5, r1
100051cc:	4a14      	ldr	r2, [pc, #80]	; (10005220 <busy_wait_ms+0x84>)
100051ce:	6a53      	ldr	r3, [r2, #36]	; 0x24
100051d0:	0019      	movs	r1, r3
100051d2:	6a96      	ldr	r6, [r2, #40]	; 0x28
100051d4:	6a53      	ldr	r3, [r2, #36]	; 0x24
100051d6:	428b      	cmp	r3, r1
100051d8:	d1fa      	bne.n	100051d0 <busy_wait_ms+0x34>
100051da:	0030      	movs	r0, r6
100051dc:	0019      	movs	r1, r3
100051de:	1824      	adds	r4, r4, r0
100051e0:	414d      	adcs	r5, r1
100051e2:	42ab      	cmp	r3, r5
100051e4:	d913      	bls.n	1000520e <busy_wait_ms+0x72>
100051e6:	2301      	movs	r3, #1
100051e8:	2401      	movs	r4, #1
100051ea:	4264      	negs	r4, r4
100051ec:	17e5      	asrs	r5, r4, #31
100051ee:	425b      	negs	r3, r3
100051f0:	490b      	ldr	r1, [pc, #44]	; (10005220 <busy_wait_ms+0x84>)
100051f2:	6a4a      	ldr	r2, [r1, #36]	; 0x24
100051f4:	4293      	cmp	r3, r2
100051f6:	d8fc      	bhi.n	100051f2 <busy_wait_ms+0x56>
100051f8:	429a      	cmp	r2, r3
100051fa:	d1de      	bne.n	100051ba <busy_wait_ms+0x1e>
100051fc:	4a08      	ldr	r2, [pc, #32]	; (10005220 <busy_wait_ms+0x84>)
100051fe:	e002      	b.n	10005206 <busy_wait_ms+0x6a>
10005200:	6a51      	ldr	r1, [r2, #36]	; 0x24
10005202:	428b      	cmp	r3, r1
10005204:	d1d9      	bne.n	100051ba <busy_wait_ms+0x1e>
10005206:	6a91      	ldr	r1, [r2, #40]	; 0x28
10005208:	428c      	cmp	r4, r1
1000520a:	d8f9      	bhi.n	10005200 <busy_wait_ms+0x64>
1000520c:	e7d5      	b.n	100051ba <busy_wait_ms+0x1e>
1000520e:	42ab      	cmp	r3, r5
10005210:	d001      	beq.n	10005216 <busy_wait_ms+0x7a>
10005212:	002b      	movs	r3, r5
10005214:	e7ec      	b.n	100051f0 <busy_wait_ms+0x54>
10005216:	42a6      	cmp	r6, r4
10005218:	d8e5      	bhi.n	100051e6 <busy_wait_ms+0x4a>
1000521a:	e7fa      	b.n	10005212 <busy_wait_ms+0x76>
1000521c:	0020c49b 	.word	0x0020c49b
10005220:	40054000 	.word	0x40054000

10005224 <busy_wait_until>:
10005224:	4a06      	ldr	r2, [pc, #24]	; (10005240 <busy_wait_until+0x1c>)
10005226:	6a53      	ldr	r3, [r2, #36]	; 0x24
10005228:	4299      	cmp	r1, r3
1000522a:	d8fc      	bhi.n	10005226 <busy_wait_until+0x2>
1000522c:	d107      	bne.n	1000523e <busy_wait_until+0x1a>
1000522e:	4b04      	ldr	r3, [pc, #16]	; (10005240 <busy_wait_until+0x1c>)
10005230:	e002      	b.n	10005238 <busy_wait_until+0x14>
10005232:	6a5a      	ldr	r2, [r3, #36]	; 0x24
10005234:	4291      	cmp	r1, r2
10005236:	d102      	bne.n	1000523e <busy_wait_until+0x1a>
10005238:	6a9a      	ldr	r2, [r3, #40]	; 0x28
1000523a:	4282      	cmp	r2, r0
1000523c:	d3f9      	bcc.n	10005232 <busy_wait_until+0xe>
1000523e:	4770      	bx	lr
10005240:	40054000 	.word	0x40054000

10005244 <hardware_alarm_set_callback>:
10005244:	b570      	push	{r4, r5, r6, lr}
10005246:	0004      	movs	r4, r0
10005248:	000d      	movs	r5, r1
1000524a:	f3ef 8610 	mrs	r6, PRIMASK
1000524e:	b672      	cpsid	i
10005250:	4a1a      	ldr	r2, [pc, #104]	; (100052bc <hardware_alarm_set_callback+0x78>)
10005252:	6813      	ldr	r3, [r2, #0]
10005254:	2b00      	cmp	r3, #0
10005256:	d0fc      	beq.n	10005252 <hardware_alarm_set_callback+0xe>
10005258:	f3bf 8f5f 	dmb	sy
1000525c:	2d00      	cmp	r5, #0
1000525e:	d01b      	beq.n	10005298 <hardware_alarm_set_callback+0x54>
10005260:	0020      	movs	r0, r4
10005262:	f7ff f85d 	bl	10004320 <irq_get_vtable_handler>
10005266:	4916      	ldr	r1, [pc, #88]	; (100052c0 <hardware_alarm_set_callback+0x7c>)
10005268:	4281      	cmp	r1, r0
1000526a:	d00a      	beq.n	10005282 <hardware_alarm_set_callback+0x3e>
1000526c:	0020      	movs	r0, r4
1000526e:	f7ff f85f 	bl	10004330 <irq_set_exclusive_handler>
10005272:	2101      	movs	r1, #1
10005274:	0020      	movs	r0, r4
10005276:	f7ff f823 	bl	100042c0 <irq_set_enabled>
1000527a:	2301      	movs	r3, #1
1000527c:	40a3      	lsls	r3, r4
1000527e:	4a11      	ldr	r2, [pc, #68]	; (100052c4 <hardware_alarm_set_callback+0x80>)
10005280:	6013      	str	r3, [r2, #0]
10005282:	4b11      	ldr	r3, [pc, #68]	; (100052c8 <hardware_alarm_set_callback+0x84>)
10005284:	00a4      	lsls	r4, r4, #2
10005286:	50e5      	str	r5, [r4, r3]
10005288:	f3bf 8f5f 	dmb	sy
1000528c:	2200      	movs	r2, #0
1000528e:	4b0b      	ldr	r3, [pc, #44]	; (100052bc <hardware_alarm_set_callback+0x78>)
10005290:	601a      	str	r2, [r3, #0]
10005292:	f386 8810 	msr	PRIMASK, r6
10005296:	bd70      	pop	{r4, r5, r6, pc}
10005298:	4b0b      	ldr	r3, [pc, #44]	; (100052c8 <hardware_alarm_set_callback+0x84>)
1000529a:	00a2      	lsls	r2, r4, #2
1000529c:	50d5      	str	r5, [r2, r3]
1000529e:	2201      	movs	r2, #1
100052a0:	40a2      	lsls	r2, r4
100052a2:	490a      	ldr	r1, [pc, #40]	; (100052cc <hardware_alarm_set_callback+0x88>)
100052a4:	0020      	movs	r0, r4
100052a6:	780b      	ldrb	r3, [r1, #0]
100052a8:	4393      	bics	r3, r2
100052aa:	700b      	strb	r3, [r1, #0]
100052ac:	4904      	ldr	r1, [pc, #16]	; (100052c0 <hardware_alarm_set_callback+0x7c>)
100052ae:	f7ff f95b 	bl	10004568 <irq_remove_handler>
100052b2:	2100      	movs	r1, #0
100052b4:	0020      	movs	r0, r4
100052b6:	f7ff f803 	bl	100042c0 <irq_set_enabled>
100052ba:	e7e5      	b.n	10005288 <hardware_alarm_set_callback+0x44>
100052bc:	d0000128 	.word	0xd0000128
100052c0:	10005065 	.word	0x10005065
100052c4:	40056038 	.word	0x40056038
100052c8:	2002651c 	.word	0x2002651c
100052cc:	20026b95 	.word	0x20026b95

100052d0 <hardware_alarm_set_target>:
100052d0:	b5f0      	push	{r4, r5, r6, r7, lr}
100052d2:	464f      	mov	r7, r9
100052d4:	46d6      	mov	lr, sl
100052d6:	4646      	mov	r6, r8
100052d8:	b5c0      	push	{r6, r7, lr}
100052da:	0007      	movs	r7, r0
100052dc:	4c2f      	ldr	r4, [pc, #188]	; (1000539c <hardware_alarm_set_target+0xcc>)
100052de:	6a61      	ldr	r1, [r4, #36]	; 0x24
100052e0:	000d      	movs	r5, r1
100052e2:	6aa6      	ldr	r6, [r4, #40]	; 0x28
100052e4:	6a61      	ldr	r1, [r4, #36]	; 0x24
100052e6:	42a9      	cmp	r1, r5
100052e8:	d1fa      	bne.n	100052e0 <hardware_alarm_set_target+0x10>
100052ea:	428b      	cmp	r3, r1
100052ec:	d808      	bhi.n	10005300 <hardware_alarm_set_target+0x30>
100052ee:	d005      	beq.n	100052fc <hardware_alarm_set_target+0x2c>
100052f0:	2001      	movs	r0, #1
100052f2:	bce0      	pop	{r5, r6, r7}
100052f4:	46ba      	mov	sl, r7
100052f6:	46b1      	mov	r9, r6
100052f8:	46a8      	mov	r8, r5
100052fa:	bdf0      	pop	{r4, r5, r6, r7, pc}
100052fc:	42b2      	cmp	r2, r6
100052fe:	d9f7      	bls.n	100052f0 <hardware_alarm_set_target+0x20>
10005300:	f3ef 8a10 	mrs	sl, PRIMASK
10005304:	b672      	cpsid	i
10005306:	4826      	ldr	r0, [pc, #152]	; (100053a0 <hardware_alarm_set_target+0xd0>)
10005308:	6801      	ldr	r1, [r0, #0]
1000530a:	2900      	cmp	r1, #0
1000530c:	d0fc      	beq.n	10005308 <hardware_alarm_set_target+0x38>
1000530e:	f3bf 8f5f 	dmb	sy
10005312:	2501      	movs	r5, #1
10005314:	40bd      	lsls	r5, r7
10005316:	4923      	ldr	r1, [pc, #140]	; (100053a4 <hardware_alarm_set_target+0xd4>)
10005318:	4c20      	ldr	r4, [pc, #128]	; (1000539c <hardware_alarm_set_target+0xcc>)
1000531a:	4688      	mov	r8, r1
1000531c:	7809      	ldrb	r1, [r1, #0]
1000531e:	4689      	mov	r9, r1
10005320:	4329      	orrs	r1, r5
10005322:	b2c9      	uxtb	r1, r1
10005324:	468c      	mov	ip, r1
10005326:	4641      	mov	r1, r8
10005328:	4660      	mov	r0, ip
1000532a:	7008      	strb	r0, [r1, #0]
1000532c:	1d39      	adds	r1, r7, #4
1000532e:	481e      	ldr	r0, [pc, #120]	; (100053a8 <hardware_alarm_set_target+0xd8>)
10005330:	0089      	lsls	r1, r1, #2
10005332:	6365      	str	r5, [r4, #52]	; 0x34
10005334:	510a      	str	r2, [r1, r4]
10005336:	00b9      	lsls	r1, r7, #2
10005338:	500b      	str	r3, [r1, r0]
1000533a:	6a21      	ldr	r1, [r4, #32]
1000533c:	2000      	movs	r0, #0
1000533e:	4229      	tst	r1, r5
10005340:	d019      	beq.n	10005376 <hardware_alarm_set_target+0xa6>
10005342:	6a61      	ldr	r1, [r4, #36]	; 0x24
10005344:	0008      	movs	r0, r1
10005346:	6aa6      	ldr	r6, [r4, #40]	; 0x28
10005348:	6a61      	ldr	r1, [r4, #36]	; 0x24
1000534a:	4281      	cmp	r1, r0
1000534c:	d1fa      	bne.n	10005344 <hardware_alarm_set_target+0x74>
1000534e:	428b      	cmp	r3, r1
10005350:	d819      	bhi.n	10005386 <hardware_alarm_set_target+0xb6>
10005352:	d101      	bne.n	10005358 <hardware_alarm_set_target+0x88>
10005354:	42b2      	cmp	r2, r6
10005356:	d816      	bhi.n	10005386 <hardware_alarm_set_target+0xb6>
10005358:	45cc      	cmp	ip, r9
1000535a:	d01d      	beq.n	10005398 <hardware_alarm_set_target+0xc8>
1000535c:	4b0f      	ldr	r3, [pc, #60]	; (1000539c <hardware_alarm_set_target+0xcc>)
1000535e:	201f      	movs	r0, #31
10005360:	621d      	str	r5, [r3, #32]
10005362:	635d      	str	r5, [r3, #52]	; 0x34
10005364:	2301      	movs	r3, #1
10005366:	4007      	ands	r7, r0
10005368:	40bb      	lsls	r3, r7
1000536a:	4a10      	ldr	r2, [pc, #64]	; (100053ac <hardware_alarm_set_target+0xdc>)
1000536c:	381e      	subs	r0, #30
1000536e:	6013      	str	r3, [r2, #0]
10005370:	4643      	mov	r3, r8
10005372:	464a      	mov	r2, r9
10005374:	701a      	strb	r2, [r3, #0]
10005376:	f3bf 8f5f 	dmb	sy
1000537a:	2200      	movs	r2, #0
1000537c:	4b08      	ldr	r3, [pc, #32]	; (100053a0 <hardware_alarm_set_target+0xd0>)
1000537e:	601a      	str	r2, [r3, #0]
10005380:	f38a 8810 	msr	PRIMASK, sl
10005384:	e7b5      	b.n	100052f2 <hardware_alarm_set_target+0x22>
10005386:	2000      	movs	r0, #0
10005388:	f3bf 8f5f 	dmb	sy
1000538c:	2200      	movs	r2, #0
1000538e:	4b04      	ldr	r3, [pc, #16]	; (100053a0 <hardware_alarm_set_target+0xd0>)
10005390:	601a      	str	r2, [r3, #0]
10005392:	f38a 8810 	msr	PRIMASK, sl
10005396:	e7ac      	b.n	100052f2 <hardware_alarm_set_target+0x22>
10005398:	2001      	movs	r0, #1
1000539a:	e7ec      	b.n	10005376 <hardware_alarm_set_target+0xa6>
1000539c:	40054000 	.word	0x40054000
100053a0:	d0000128 	.word	0xd0000128
100053a4:	20026b95 	.word	0x20026b95
100053a8:	20026b58 	.word	0x20026b58
100053ac:	e000e280 	.word	0xe000e280

100053b0 <hardware_alarm_cancel>:
100053b0:	f3ef 8c10 	mrs	ip, PRIMASK
100053b4:	b672      	cpsid	i
100053b6:	490a      	ldr	r1, [pc, #40]	; (100053e0 <hardware_alarm_cancel+0x30>)
100053b8:	680b      	ldr	r3, [r1, #0]
100053ba:	2b00      	cmp	r3, #0
100053bc:	d0fc      	beq.n	100053b8 <hardware_alarm_cancel+0x8>
100053be:	f3bf 8f5f 	dmb	sy
100053c2:	2301      	movs	r3, #1
100053c4:	4083      	lsls	r3, r0
100053c6:	4a07      	ldr	r2, [pc, #28]	; (100053e4 <hardware_alarm_cancel+0x34>)
100053c8:	4807      	ldr	r0, [pc, #28]	; (100053e8 <hardware_alarm_cancel+0x38>)
100053ca:	6213      	str	r3, [r2, #32]
100053cc:	7802      	ldrb	r2, [r0, #0]
100053ce:	439a      	bics	r2, r3
100053d0:	7002      	strb	r2, [r0, #0]
100053d2:	f3bf 8f5f 	dmb	sy
100053d6:	2300      	movs	r3, #0
100053d8:	600b      	str	r3, [r1, #0]
100053da:	f38c 8810 	msr	PRIMASK, ip
100053de:	4770      	bx	lr
100053e0:	d0000128 	.word	0xd0000128
100053e4:	40054000 	.word	0x40054000
100053e8:	20026b95 	.word	0x20026b95

100053ec <ph_merge_nodes>:
100053ec:	b570      	push	{r4, r5, r6, lr}
100053ee:	0005      	movs	r5, r0
100053f0:	0014      	movs	r4, r2
100053f2:	0016      	movs	r6, r2
100053f4:	2900      	cmp	r1, #0
100053f6:	d015      	beq.n	10005424 <ph_merge_nodes+0x38>
100053f8:	000c      	movs	r4, r1
100053fa:	2a00      	cmp	r2, #0
100053fc:	d012      	beq.n	10005424 <ph_merge_nodes+0x38>
100053fe:	6880      	ldr	r0, [r0, #8]
10005400:	686b      	ldr	r3, [r5, #4]
10005402:	4798      	blx	r3
10005404:	6829      	ldr	r1, [r5, #0]
10005406:	2800      	cmp	r0, #0
10005408:	d00e      	beq.n	10005428 <ph_merge_nodes+0x3c>
1000540a:	0073      	lsls	r3, r6, #1
1000540c:	199b      	adds	r3, r3, r6
1000540e:	0062      	lsls	r2, r4, #1
10005410:	3b03      	subs	r3, #3
10005412:	1912      	adds	r2, r2, r4
10005414:	18cb      	adds	r3, r1, r3
10005416:	3a03      	subs	r2, #3
10005418:	709c      	strb	r4, [r3, #2]
1000541a:	1888      	adds	r0, r1, r2
1000541c:	5c8a      	ldrb	r2, [r1, r2]
1000541e:	2a00      	cmp	r2, #0
10005420:	d115      	bne.n	1000544e <ph_merge_nodes+0x62>
10005422:	7006      	strb	r6, [r0, #0]
10005424:	0020      	movs	r0, r4
10005426:	bd70      	pop	{r4, r5, r6, pc}
10005428:	0063      	lsls	r3, r4, #1
1000542a:	191b      	adds	r3, r3, r4
1000542c:	0072      	lsls	r2, r6, #1
1000542e:	3b03      	subs	r3, #3
10005430:	1992      	adds	r2, r2, r6
10005432:	18cb      	adds	r3, r1, r3
10005434:	3a03      	subs	r2, #3
10005436:	709e      	strb	r6, [r3, #2]
10005438:	1888      	adds	r0, r1, r2
1000543a:	5c8a      	ldrb	r2, [r1, r2]
1000543c:	2a00      	cmp	r2, #0
1000543e:	d102      	bne.n	10005446 <ph_merge_nodes+0x5a>
10005440:	7004      	strb	r4, [r0, #0]
10005442:	0034      	movs	r4, r6
10005444:	e7ee      	b.n	10005424 <ph_merge_nodes+0x38>
10005446:	705a      	strb	r2, [r3, #1]
10005448:	7004      	strb	r4, [r0, #0]
1000544a:	0034      	movs	r4, r6
1000544c:	e7ea      	b.n	10005424 <ph_merge_nodes+0x38>
1000544e:	705a      	strb	r2, [r3, #1]
10005450:	7006      	strb	r6, [r0, #0]
10005452:	e7e7      	b.n	10005424 <ph_merge_nodes+0x38>

10005454 <ph_post_alloc_init>:
10005454:	b530      	push	{r4, r5, lr}
10005456:	6083      	str	r3, [r0, #8]
10005458:	2300      	movs	r3, #0
1000545a:	b2cc      	uxtb	r4, r1
1000545c:	7343      	strb	r3, [r0, #13]
1000545e:	3301      	adds	r3, #1
10005460:	7304      	strb	r4, [r0, #12]
10005462:	6042      	str	r2, [r0, #4]
10005464:	7383      	strb	r3, [r0, #14]
10005466:	73c4      	strb	r4, [r0, #15]
10005468:	000d      	movs	r5, r1
1000546a:	6800      	ldr	r0, [r0, #0]
1000546c:	2c01      	cmp	r4, #1
1000546e:	d906      	bls.n	1000547e <ph_post_alloc_init+0x2a>
10005470:	1c42      	adds	r2, r0, #1
10005472:	3301      	adds	r3, #1
10005474:	b2db      	uxtb	r3, r3
10005476:	7013      	strb	r3, [r2, #0]
10005478:	3203      	adds	r2, #3
1000547a:	429c      	cmp	r4, r3
1000547c:	d1f9      	bne.n	10005472 <ph_post_alloc_init+0x1e>
1000547e:	21ff      	movs	r1, #255	; 0xff
10005480:	4029      	ands	r1, r5
10005482:	004b      	lsls	r3, r1, #1
10005484:	1859      	adds	r1, r3, r1
10005486:	2300      	movs	r3, #0
10005488:	1840      	adds	r0, r0, r1
1000548a:	3803      	subs	r0, #3
1000548c:	7043      	strb	r3, [r0, #1]
1000548e:	bd30      	pop	{r4, r5, pc}

10005490 <ph_merge_two_pass>:
10005490:	b5f8      	push	{r3, r4, r5, r6, r7, lr}
10005492:	46ce      	mov	lr, r9
10005494:	4647      	mov	r7, r8
10005496:	0006      	movs	r6, r0
10005498:	000c      	movs	r4, r1
1000549a:	b580      	push	{r7, lr}
1000549c:	2900      	cmp	r1, #0
1000549e:	d007      	beq.n	100054b0 <ph_merge_two_pass+0x20>
100054a0:	004d      	lsls	r5, r1, #1
100054a2:	6803      	ldr	r3, [r0, #0]
100054a4:	186d      	adds	r5, r5, r1
100054a6:	3d03      	subs	r5, #3
100054a8:	195a      	adds	r2, r3, r5
100054aa:	7857      	ldrb	r7, [r2, #1]
100054ac:	2f00      	cmp	r7, #0
100054ae:	d104      	bne.n	100054ba <ph_merge_two_pass+0x2a>
100054b0:	0020      	movs	r0, r4
100054b2:	bcc0      	pop	{r6, r7}
100054b4:	46b9      	mov	r9, r7
100054b6:	46b0      	mov	r8, r6
100054b8:	bdf8      	pop	{r3, r4, r5, r6, r7, pc}
100054ba:	0079      	lsls	r1, r7, #1
100054bc:	19c9      	adds	r1, r1, r7
100054be:	3903      	subs	r1, #3
100054c0:	4688      	mov	r8, r1
100054c2:	4443      	add	r3, r8
100054c4:	7859      	ldrb	r1, [r3, #1]
100054c6:	4689      	mov	r9, r1
100054c8:	2100      	movs	r1, #0
100054ca:	7059      	strb	r1, [r3, #1]
100054cc:	7051      	strb	r1, [r2, #1]
100054ce:	6873      	ldr	r3, [r6, #4]
100054d0:	003a      	movs	r2, r7
100054d2:	0021      	movs	r1, r4
100054d4:	6880      	ldr	r0, [r0, #8]
100054d6:	4798      	blx	r3
100054d8:	6833      	ldr	r3, [r6, #0]
100054da:	2800      	cmp	r0, #0
100054dc:	d014      	beq.n	10005508 <ph_merge_two_pass+0x78>
100054de:	4642      	mov	r2, r8
100054e0:	189a      	adds	r2, r3, r2
100054e2:	7094      	strb	r4, [r2, #2]
100054e4:	1959      	adds	r1, r3, r5
100054e6:	5d5b      	ldrb	r3, [r3, r5]
100054e8:	2b00      	cmp	r3, #0
100054ea:	d000      	beq.n	100054ee <ph_merge_two_pass+0x5e>
100054ec:	7053      	strb	r3, [r2, #1]
100054ee:	700f      	strb	r7, [r1, #0]
100054f0:	0027      	movs	r7, r4
100054f2:	4649      	mov	r1, r9
100054f4:	0030      	movs	r0, r6
100054f6:	f7ff ffcb 	bl	10005490 <ph_merge_two_pass>
100054fa:	0039      	movs	r1, r7
100054fc:	0002      	movs	r2, r0
100054fe:	0030      	movs	r0, r6
10005500:	f7ff ff74 	bl	100053ec <ph_merge_nodes>
10005504:	0004      	movs	r4, r0
10005506:	e7d3      	b.n	100054b0 <ph_merge_two_pass+0x20>
10005508:	4642      	mov	r2, r8
1000550a:	4641      	mov	r1, r8
1000550c:	195d      	adds	r5, r3, r5
1000550e:	70af      	strb	r7, [r5, #2]
10005510:	189a      	adds	r2, r3, r2
10005512:	5c5b      	ldrb	r3, [r3, r1]
10005514:	2b00      	cmp	r3, #0
10005516:	d000      	beq.n	1000551a <ph_merge_two_pass+0x8a>
10005518:	706b      	strb	r3, [r5, #1]
1000551a:	7014      	strb	r4, [r2, #0]
1000551c:	e7e9      	b.n	100054f2 <ph_merge_two_pass+0x62>
1000551e:	46c0      	nop			; (mov r8, r8)

10005520 <ph_remove_any_head>:
10005520:	b5f0      	push	{r4, r5, r6, r7, lr}
10005522:	4657      	mov	r7, sl
10005524:	4645      	mov	r5, r8
10005526:	46de      	mov	lr, fp
10005528:	464e      	mov	r6, r9
1000552a:	b5e0      	push	{r5, r6, r7, lr}
1000552c:	000d      	movs	r5, r1
1000552e:	006b      	lsls	r3, r5, #1
10005530:	6801      	ldr	r1, [r0, #0]
10005532:	195b      	adds	r3, r3, r5
10005534:	1edf      	subs	r7, r3, #3
10005536:	0004      	movs	r4, r0
10005538:	5dc8      	ldrb	r0, [r1, r7]
1000553a:	b083      	sub	sp, #12
1000553c:	9201      	str	r2, [sp, #4]
1000553e:	19ca      	adds	r2, r1, r7
10005540:	2800      	cmp	r0, #0
10005542:	d04c      	beq.n	100055de <ph_remove_any_head+0xbe>
10005544:	0043      	lsls	r3, r0, #1
10005546:	181b      	adds	r3, r3, r0
10005548:	3b03      	subs	r3, #3
1000554a:	18cb      	adds	r3, r1, r3
1000554c:	785e      	ldrb	r6, [r3, #1]
1000554e:	46b4      	mov	ip, r6
10005550:	2e00      	cmp	r6, #0
10005552:	d116      	bne.n	10005582 <ph_remove_any_head+0x62>
10005554:	9e01      	ldr	r6, [sp, #4]
10005556:	2e00      	cmp	r6, #0
10005558:	d03e      	beq.n	100055d8 <ph_remove_any_head+0xb8>
1000555a:	7be6      	ldrb	r6, [r4, #15]
1000555c:	2e00      	cmp	r6, #0
1000555e:	d004      	beq.n	1000556a <ph_remove_any_head+0x4a>
10005560:	0073      	lsls	r3, r6, #1
10005562:	199b      	adds	r3, r3, r6
10005564:	18cb      	adds	r3, r1, r3
10005566:	3b03      	subs	r3, #3
10005568:	705d      	strb	r5, [r3, #1]
1000556a:	73e5      	strb	r5, [r4, #15]
1000556c:	2800      	cmp	r0, #0
1000556e:	d12f      	bne.n	100055d0 <ph_remove_any_head+0xb0>
10005570:	2300      	movs	r3, #0
10005572:	7053      	strb	r3, [r2, #1]
10005574:	b003      	add	sp, #12
10005576:	bcf0      	pop	{r4, r5, r6, r7}
10005578:	46bb      	mov	fp, r7
1000557a:	46b2      	mov	sl, r6
1000557c:	46a9      	mov	r9, r5
1000557e:	46a0      	mov	r8, r4
10005580:	bdf0      	pop	{r4, r5, r6, r7, pc}
10005582:	0072      	lsls	r2, r6, #1
10005584:	4462      	add	r2, ip
10005586:	3a03      	subs	r2, #3
10005588:	1889      	adds	r1, r1, r2
1000558a:	784a      	ldrb	r2, [r1, #1]
1000558c:	4690      	mov	r8, r2
1000558e:	2200      	movs	r2, #0
10005590:	704a      	strb	r2, [r1, #1]
10005592:	4691      	mov	r9, r2
10005594:	705a      	strb	r2, [r3, #1]
10005596:	0001      	movs	r1, r0
10005598:	0032      	movs	r2, r6
1000559a:	0020      	movs	r0, r4
1000559c:	f7ff ff26 	bl	100053ec <ph_merge_nodes>
100055a0:	4643      	mov	r3, r8
100055a2:	4682      	mov	sl, r0
100055a4:	2b00      	cmp	r3, #0
100055a6:	d007      	beq.n	100055b8 <ph_remove_any_head+0x98>
100055a8:	005b      	lsls	r3, r3, #1
100055aa:	6821      	ldr	r1, [r4, #0]
100055ac:	4443      	add	r3, r8
100055ae:	3b03      	subs	r3, #3
100055b0:	18cb      	adds	r3, r1, r3
100055b2:	785a      	ldrb	r2, [r3, #1]
100055b4:	2a00      	cmp	r2, #0
100055b6:	d116      	bne.n	100055e6 <ph_remove_any_head+0xc6>
100055b8:	4642      	mov	r2, r8
100055ba:	4651      	mov	r1, sl
100055bc:	0020      	movs	r0, r4
100055be:	f7ff ff15 	bl	100053ec <ph_merge_nodes>
100055c2:	6821      	ldr	r1, [r4, #0]
100055c4:	9b01      	ldr	r3, [sp, #4]
100055c6:	19ca      	adds	r2, r1, r7
100055c8:	2b00      	cmp	r3, #0
100055ca:	d1c6      	bne.n	1000555a <ph_remove_any_head+0x3a>
100055cc:	2800      	cmp	r0, #0
100055ce:	d0cf      	beq.n	10005570 <ph_remove_any_head+0x50>
100055d0:	0043      	lsls	r3, r0, #1
100055d2:	181b      	adds	r3, r3, r0
100055d4:	3b03      	subs	r3, #3
100055d6:	18cb      	adds	r3, r1, r3
100055d8:	2100      	movs	r1, #0
100055da:	7099      	strb	r1, [r3, #2]
100055dc:	e7c8      	b.n	10005570 <ph_remove_any_head+0x50>
100055de:	9b01      	ldr	r3, [sp, #4]
100055e0:	2b00      	cmp	r3, #0
100055e2:	d1ba      	bne.n	1000555a <ph_remove_any_head+0x3a>
100055e4:	e7c4      	b.n	10005570 <ph_remove_any_head+0x50>
100055e6:	0050      	lsls	r0, r2, #1
100055e8:	1880      	adds	r0, r0, r2
100055ea:	3803      	subs	r0, #3
100055ec:	1809      	adds	r1, r1, r0
100055ee:	7848      	ldrb	r0, [r1, #1]
100055f0:	4683      	mov	fp, r0
100055f2:	4648      	mov	r0, r9
100055f4:	7048      	strb	r0, [r1, #1]
100055f6:	7058      	strb	r0, [r3, #1]
100055f8:	4641      	mov	r1, r8
100055fa:	0020      	movs	r0, r4
100055fc:	f7ff fef6 	bl	100053ec <ph_merge_nodes>
10005600:	4659      	mov	r1, fp
10005602:	4680      	mov	r8, r0
10005604:	0020      	movs	r0, r4
10005606:	f7ff ff43 	bl	10005490 <ph_merge_two_pass>
1000560a:	4641      	mov	r1, r8
1000560c:	0002      	movs	r2, r0
1000560e:	0020      	movs	r0, r4
10005610:	f7ff feec 	bl	100053ec <ph_merge_nodes>
10005614:	4680      	mov	r8, r0
10005616:	e7cf      	b.n	100055b8 <ph_remove_any_head+0x98>

10005618 <ph_remove_head>:
10005618:	b5f0      	push	{r4, r5, r6, r7, lr}
1000561a:	4657      	mov	r7, sl
1000561c:	4645      	mov	r5, r8
1000561e:	46de      	mov	lr, fp
10005620:	464e      	mov	r6, r9
10005622:	b5e0      	push	{r5, r6, r7, lr}
10005624:	b083      	sub	sp, #12
10005626:	9101      	str	r1, [sp, #4]
10005628:	7b45      	ldrb	r5, [r0, #13]
1000562a:	0004      	movs	r4, r0
1000562c:	006b      	lsls	r3, r5, #1
1000562e:	6800      	ldr	r0, [r0, #0]
10005630:	195b      	adds	r3, r3, r5
10005632:	1edf      	subs	r7, r3, #3
10005634:	5dc1      	ldrb	r1, [r0, r7]
10005636:	19c2      	adds	r2, r0, r7
10005638:	2900      	cmp	r1, #0
1000563a:	d04e      	beq.n	100056da <ph_remove_head+0xc2>
1000563c:	004b      	lsls	r3, r1, #1
1000563e:	185b      	adds	r3, r3, r1
10005640:	3b03      	subs	r3, #3
10005642:	18c3      	adds	r3, r0, r3
10005644:	785e      	ldrb	r6, [r3, #1]
10005646:	46b4      	mov	ip, r6
10005648:	2e00      	cmp	r6, #0
1000564a:	d118      	bne.n	1000567e <ph_remove_head+0x66>
1000564c:	9e01      	ldr	r6, [sp, #4]
1000564e:	2e00      	cmp	r6, #0
10005650:	d040      	beq.n	100056d4 <ph_remove_head+0xbc>
10005652:	7be6      	ldrb	r6, [r4, #15]
10005654:	2e00      	cmp	r6, #0
10005656:	d004      	beq.n	10005662 <ph_remove_head+0x4a>
10005658:	0073      	lsls	r3, r6, #1
1000565a:	199b      	adds	r3, r3, r6
1000565c:	18c3      	adds	r3, r0, r3
1000565e:	3b03      	subs	r3, #3
10005660:	705d      	strb	r5, [r3, #1]
10005662:	73e5      	strb	r5, [r4, #15]
10005664:	2900      	cmp	r1, #0
10005666:	d131      	bne.n	100056cc <ph_remove_head+0xb4>
10005668:	2300      	movs	r3, #0
1000566a:	0028      	movs	r0, r5
1000566c:	7053      	strb	r3, [r2, #1]
1000566e:	7361      	strb	r1, [r4, #13]
10005670:	b003      	add	sp, #12
10005672:	bcf0      	pop	{r4, r5, r6, r7}
10005674:	46bb      	mov	fp, r7
10005676:	46b2      	mov	sl, r6
10005678:	46a9      	mov	r9, r5
1000567a:	46a0      	mov	r8, r4
1000567c:	bdf0      	pop	{r4, r5, r6, r7, pc}
1000567e:	0072      	lsls	r2, r6, #1
10005680:	4462      	add	r2, ip
10005682:	3a03      	subs	r2, #3
10005684:	1880      	adds	r0, r0, r2
10005686:	7842      	ldrb	r2, [r0, #1]
10005688:	4690      	mov	r8, r2
1000568a:	2200      	movs	r2, #0
1000568c:	7042      	strb	r2, [r0, #1]
1000568e:	4691      	mov	r9, r2
10005690:	705a      	strb	r2, [r3, #1]
10005692:	0020      	movs	r0, r4
10005694:	0032      	movs	r2, r6
10005696:	f7ff fea9 	bl	100053ec <ph_merge_nodes>
1000569a:	4643      	mov	r3, r8
1000569c:	4682      	mov	sl, r0
1000569e:	2b00      	cmp	r3, #0
100056a0:	d007      	beq.n	100056b2 <ph_remove_head+0x9a>
100056a2:	005b      	lsls	r3, r3, #1
100056a4:	6821      	ldr	r1, [r4, #0]
100056a6:	4443      	add	r3, r8
100056a8:	3b03      	subs	r3, #3
100056aa:	18cb      	adds	r3, r1, r3
100056ac:	785a      	ldrb	r2, [r3, #1]
100056ae:	2a00      	cmp	r2, #0
100056b0:	d117      	bne.n	100056e2 <ph_remove_head+0xca>
100056b2:	4642      	mov	r2, r8
100056b4:	4651      	mov	r1, sl
100056b6:	0020      	movs	r0, r4
100056b8:	f7ff fe98 	bl	100053ec <ph_merge_nodes>
100056bc:	9b01      	ldr	r3, [sp, #4]
100056be:	0001      	movs	r1, r0
100056c0:	6820      	ldr	r0, [r4, #0]
100056c2:	19c2      	adds	r2, r0, r7
100056c4:	2b00      	cmp	r3, #0
100056c6:	d1c4      	bne.n	10005652 <ph_remove_head+0x3a>
100056c8:	2900      	cmp	r1, #0
100056ca:	d0cd      	beq.n	10005668 <ph_remove_head+0x50>
100056cc:	004b      	lsls	r3, r1, #1
100056ce:	185b      	adds	r3, r3, r1
100056d0:	3b03      	subs	r3, #3
100056d2:	18c3      	adds	r3, r0, r3
100056d4:	2000      	movs	r0, #0
100056d6:	7098      	strb	r0, [r3, #2]
100056d8:	e7c6      	b.n	10005668 <ph_remove_head+0x50>
100056da:	9b01      	ldr	r3, [sp, #4]
100056dc:	2b00      	cmp	r3, #0
100056de:	d1b8      	bne.n	10005652 <ph_remove_head+0x3a>
100056e0:	e7c2      	b.n	10005668 <ph_remove_head+0x50>
100056e2:	0050      	lsls	r0, r2, #1
100056e4:	1880      	adds	r0, r0, r2
100056e6:	3803      	subs	r0, #3
100056e8:	1809      	adds	r1, r1, r0
100056ea:	7848      	ldrb	r0, [r1, #1]
100056ec:	4683      	mov	fp, r0
100056ee:	4648      	mov	r0, r9
100056f0:	7048      	strb	r0, [r1, #1]
100056f2:	7058      	strb	r0, [r3, #1]
100056f4:	4641      	mov	r1, r8
100056f6:	0020      	movs	r0, r4
100056f8:	f7ff fe78 	bl	100053ec <ph_merge_nodes>
100056fc:	4659      	mov	r1, fp
100056fe:	4680      	mov	r8, r0
10005700:	0020      	movs	r0, r4
10005702:	f7ff fec5 	bl	10005490 <ph_merge_two_pass>
10005706:	4641      	mov	r1, r8
10005708:	0002      	movs	r2, r0
1000570a:	0020      	movs	r0, r4
1000570c:	f7ff fe6e 	bl	100053ec <ph_merge_nodes>
10005710:	4680      	mov	r8, r0
10005712:	e7ce      	b.n	100056b2 <ph_remove_head+0x9a>

10005714 <ph_remove_and_free_node>:
10005714:	b570      	push	{r4, r5, r6, lr}
10005716:	0004      	movs	r4, r0
10005718:	2900      	cmp	r1, #0
1000571a:	d02c      	beq.n	10005776 <ph_remove_and_free_node+0x62>
1000571c:	7b43      	ldrb	r3, [r0, #13]
1000571e:	428b      	cmp	r3, r1
10005720:	d02e      	beq.n	10005780 <ph_remove_and_free_node+0x6c>
10005722:	6805      	ldr	r5, [r0, #0]
10005724:	0048      	lsls	r0, r1, #1
10005726:	1840      	adds	r0, r0, r1
10005728:	3803      	subs	r0, #3
1000572a:	1828      	adds	r0, r5, r0
1000572c:	7882      	ldrb	r2, [r0, #2]
1000572e:	2a00      	cmp	r2, #0
10005730:	d021      	beq.n	10005776 <ph_remove_and_free_node+0x62>
10005732:	0053      	lsls	r3, r2, #1
10005734:	189b      	adds	r3, r3, r2
10005736:	3b03      	subs	r3, #3
10005738:	5cea      	ldrb	r2, [r5, r3]
1000573a:	18ee      	adds	r6, r5, r3
1000573c:	428a      	cmp	r2, r1
1000573e:	d102      	bne.n	10005746 <ph_remove_and_free_node+0x32>
10005740:	e01b      	b.n	1000577a <ph_remove_and_free_node+0x66>
10005742:	2a00      	cmp	r2, #0
10005744:	d008      	beq.n	10005758 <ph_remove_and_free_node+0x44>
10005746:	0053      	lsls	r3, r2, #1
10005748:	189b      	adds	r3, r3, r2
1000574a:	3b03      	subs	r3, #3
1000574c:	18eb      	adds	r3, r5, r3
1000574e:	785a      	ldrb	r2, [r3, #1]
10005750:	428a      	cmp	r2, r1
10005752:	d1f6      	bne.n	10005742 <ph_remove_and_free_node+0x2e>
10005754:	7842      	ldrb	r2, [r0, #1]
10005756:	705a      	strb	r2, [r3, #1]
10005758:	2300      	movs	r3, #0
1000575a:	2201      	movs	r2, #1
1000575c:	7083      	strb	r3, [r0, #2]
1000575e:	7043      	strb	r3, [r0, #1]
10005760:	0020      	movs	r0, r4
10005762:	f7ff fedd 	bl	10005520 <ph_remove_any_head>
10005766:	7b61      	ldrb	r1, [r4, #13]
10005768:	0002      	movs	r2, r0
1000576a:	0020      	movs	r0, r4
1000576c:	f7ff fe3e 	bl	100053ec <ph_merge_nodes>
10005770:	7360      	strb	r0, [r4, #13]
10005772:	2001      	movs	r0, #1
10005774:	e000      	b.n	10005778 <ph_remove_and_free_node+0x64>
10005776:	2000      	movs	r0, #0
10005778:	bd70      	pop	{r4, r5, r6, pc}
1000577a:	7843      	ldrb	r3, [r0, #1]
1000577c:	7033      	strb	r3, [r6, #0]
1000577e:	e7eb      	b.n	10005758 <ph_remove_and_free_node+0x44>
10005780:	2201      	movs	r2, #1
10005782:	0019      	movs	r1, r3
10005784:	f7ff fecc 	bl	10005520 <ph_remove_any_head>
10005788:	7360      	strb	r0, [r4, #13]
1000578a:	2001      	movs	r0, #1
1000578c:	e7f4      	b.n	10005778 <ph_remove_and_free_node+0x64>
1000578e:	46c0      	nop			; (mov r8, r8)

10005790 <mutex_init>:
10005790:	b510      	push	{r4, lr}
10005792:	0004      	movs	r4, r0
10005794:	f7fe fd78 	bl	10004288 <next_striped_spin_lock_num>
10005798:	0001      	movs	r1, r0
1000579a:	0020      	movs	r0, r4
1000579c:	f7ff f842 	bl	10004824 <lock_init>
100057a0:	23ff      	movs	r3, #255	; 0xff
100057a2:	7123      	strb	r3, [r4, #4]
100057a4:	f3bf 8f5f 	dmb	sy
100057a8:	bd10      	pop	{r4, pc}
100057aa:	46c0      	nop			; (mov r8, r8)

100057ac <recursive_mutex_init>:
100057ac:	b510      	push	{r4, lr}
100057ae:	0004      	movs	r4, r0
100057b0:	f7fe fd6a 	bl	10004288 <next_striped_spin_lock_num>
100057b4:	0001      	movs	r1, r0
100057b6:	0020      	movs	r0, r4
100057b8:	f7ff f834 	bl	10004824 <lock_init>
100057bc:	23ff      	movs	r3, #255	; 0xff
100057be:	80a3      	strh	r3, [r4, #4]
100057c0:	f3bf 8f5f 	dmb	sy
100057c4:	bd10      	pop	{r4, pc}
100057c6:	46c0      	nop			; (mov r8, r8)

100057c8 <critical_section_init>:
100057c8:	b510      	push	{r4, lr}
100057ca:	0004      	movs	r4, r0
100057cc:	2001      	movs	r0, #1
100057ce:	f7fe fd67 	bl	100042a0 <spin_lock_claim_unused>
100057d2:	4b04      	ldr	r3, [pc, #16]	; (100057e4 <critical_section_init+0x1c>)
100057d4:	469c      	mov	ip, r3
100057d6:	4460      	add	r0, ip
100057d8:	0080      	lsls	r0, r0, #2
100057da:	6020      	str	r0, [r4, #0]
100057dc:	f3bf 8f5f 	dmb	sy
100057e0:	bd10      	pop	{r4, pc}
100057e2:	46c0      	nop			; (mov r8, r8)
100057e4:	34000040 	.word	0x34000040

100057e8 <runtime_init>:
100057e8:	4b2c      	ldr	r3, [pc, #176]	; (1000589c <runtime_init+0xb4>)
100057ea:	4a2d      	ldr	r2, [pc, #180]	; (100058a0 <runtime_init+0xb8>)
100057ec:	b570      	push	{r4, r5, r6, lr}
100057ee:	601a      	str	r2, [r3, #0]
100057f0:	4a2c      	ldr	r2, [pc, #176]	; (100058a4 <runtime_init+0xbc>)
100057f2:	4b2d      	ldr	r3, [pc, #180]	; (100058a8 <runtime_init+0xc0>)
100057f4:	492d      	ldr	r1, [pc, #180]	; (100058ac <runtime_init+0xc4>)
100057f6:	601a      	str	r2, [r3, #0]
100057f8:	0014      	movs	r4, r2
100057fa:	688b      	ldr	r3, [r1, #8]
100057fc:	439c      	bics	r4, r3
100057fe:	d1fb      	bne.n	100057f8 <runtime_init+0x10>
10005800:	4d2b      	ldr	r5, [pc, #172]	; (100058b0 <runtime_init+0xc8>)
10005802:	4e2c      	ldr	r6, [pc, #176]	; (100058b4 <runtime_init+0xcc>)
10005804:	42b5      	cmp	r5, r6
10005806:	d208      	bcs.n	1000581a <runtime_init+0x32>
10005808:	3e01      	subs	r6, #1
1000580a:	1b76      	subs	r6, r6, r5
1000580c:	08b6      	lsrs	r6, r6, #2
1000580e:	cd08      	ldmia	r5!, {r3}
10005810:	4798      	blx	r3
10005812:	0023      	movs	r3, r4
10005814:	3401      	adds	r4, #1
10005816:	42b3      	cmp	r3, r6
10005818:	d1f9      	bne.n	1000580e <runtime_init+0x26>
1000581a:	f000 f87d 	bl	10005918 <clocks_init>
1000581e:	4a26      	ldr	r2, [pc, #152]	; (100058b8 <runtime_init+0xd0>)
10005820:	4b21      	ldr	r3, [pc, #132]	; (100058a8 <runtime_init+0xc0>)
10005822:	601a      	str	r2, [r3, #0]
10005824:	4a21      	ldr	r2, [pc, #132]	; (100058ac <runtime_init+0xc4>)
10005826:	6893      	ldr	r3, [r2, #8]
10005828:	43db      	mvns	r3, r3
1000582a:	01db      	lsls	r3, r3, #7
1000582c:	09dd      	lsrs	r5, r3, #7
1000582e:	2b00      	cmp	r3, #0
10005830:	d1f9      	bne.n	10005826 <runtime_init+0x3e>
10005832:	2240      	movs	r2, #64	; 0x40
10005834:	4b21      	ldr	r3, [pc, #132]	; (100058bc <runtime_init+0xd4>)
10005836:	4c22      	ldr	r4, [pc, #136]	; (100058c0 <runtime_init+0xd8>)
10005838:	4e22      	ldr	r6, [pc, #136]	; (100058c4 <runtime_init+0xdc>)
1000583a:	679a      	str	r2, [r3, #120]	; 0x78
1000583c:	675a      	str	r2, [r3, #116]	; 0x74
1000583e:	671a      	str	r2, [r3, #112]	; 0x70
10005840:	66da      	str	r2, [r3, #108]	; 0x6c
10005842:	42b4      	cmp	r4, r6
10005844:	d208      	bcs.n	10005858 <runtime_init+0x70>
10005846:	6823      	ldr	r3, [r4, #0]
10005848:	0020      	movs	r0, r4
1000584a:	2b00      	cmp	r3, #0
1000584c:	d020      	beq.n	10005890 <runtime_init+0xa8>
1000584e:	3408      	adds	r4, #8
10005850:	f7ff ffac 	bl	100057ac <recursive_mutex_init>
10005854:	42b4      	cmp	r4, r6
10005856:	d3f6      	bcc.n	10005846 <runtime_init+0x5e>
10005858:	4e1b      	ldr	r6, [pc, #108]	; (100058c8 <runtime_init+0xe0>)
1000585a:	4c1c      	ldr	r4, [pc, #112]	; (100058cc <runtime_init+0xe4>)
1000585c:	22c0      	movs	r2, #192	; 0xc0
1000585e:	68a1      	ldr	r1, [r4, #8]
10005860:	0030      	movs	r0, r6
10005862:	f002 fdb1 	bl	100083c8 <__wrap___aeabi_memcpy>
10005866:	60a6      	str	r6, [r4, #8]
10005868:	f7fe fd00 	bl	1000426c <spin_locks_reset>
1000586c:	f7fe ffb0 	bl	100047d0 <irq_init_priorities>
10005870:	f7ff fa04 	bl	10004c7c <alarm_pool_init_default>
10005874:	4c16      	ldr	r4, [pc, #88]	; (100058d0 <runtime_init+0xe8>)
10005876:	4e17      	ldr	r6, [pc, #92]	; (100058d4 <runtime_init+0xec>)
10005878:	42b4      	cmp	r4, r6
1000587a:	d208      	bcs.n	1000588e <runtime_init+0xa6>
1000587c:	3e01      	subs	r6, #1
1000587e:	1b36      	subs	r6, r6, r4
10005880:	08b6      	lsrs	r6, r6, #2
10005882:	cc08      	ldmia	r4!, {r3}
10005884:	4798      	blx	r3
10005886:	002b      	movs	r3, r5
10005888:	3501      	adds	r5, #1
1000588a:	429e      	cmp	r6, r3
1000588c:	d1f9      	bne.n	10005882 <runtime_init+0x9a>
1000588e:	bd70      	pop	{r4, r5, r6, pc}
10005890:	3408      	adds	r4, #8
10005892:	f7ff ff7d 	bl	10005790 <mutex_init>
10005896:	42b4      	cmp	r4, r6
10005898:	d3d5      	bcc.n	10005846 <runtime_init+0x5e>
1000589a:	e7dd      	b.n	10005858 <runtime_init+0x70>
1000589c:	4000e000 	.word	0x4000e000
100058a0:	fefbcdbf 	.word	0xfefbcdbf
100058a4:	003c7ffe 	.word	0x003c7ffe
100058a8:	4000f000 	.word	0x4000f000
100058ac:	4000c000 	.word	0x4000c000
100058b0:	20000588 	.word	0x20000588
100058b4:	20000598 	.word	0x20000598
100058b8:	01ffffff 	.word	0x01ffffff
100058bc:	4001f000 	.word	0x4001f000
100058c0:	20000580 	.word	0x20000580
100058c4:	20000588 	.word	0x20000588
100058c8:	20000000 	.word	0x20000000
100058cc:	e000ed00 	.word	0xe000ed00
100058d0:	20000598 	.word	0x20000598
100058d4:	200005a0 	.word	0x200005a0

100058d8 <exit>:
100058d8:	be00      	bkpt	0x0000
100058da:	e7fd      	b.n	100058d8 <exit>

100058dc <panic>:
100058dc:	b40f      	push	{r0, r1, r2, r3}
100058de:	b500      	push	{lr}
100058e0:	4808      	ldr	r0, [pc, #32]	; (10005904 <panic+0x28>)
100058e2:	b083      	sub	sp, #12
100058e4:	f002 fea6 	bl	10008634 <__wrap_puts>
100058e8:	9b04      	ldr	r3, [sp, #16]
100058ea:	2b00      	cmp	r3, #0
100058ec:	d007      	beq.n	100058fe <panic+0x22>
100058ee:	a905      	add	r1, sp, #20
100058f0:	0018      	movs	r0, r3
100058f2:	9101      	str	r1, [sp, #4]
100058f4:	f001 fd12 	bl	1000731c <weak_raw_vprintf>
100058f8:	4803      	ldr	r0, [pc, #12]	; (10005908 <panic+0x2c>)
100058fa:	f002 fe9b 	bl	10008634 <__wrap_puts>
100058fe:	be00      	bkpt	0x0000
10005900:	e7fd      	b.n	100058fe <panic+0x22>
10005902:	46c0      	nop			; (mov r8, r8)
10005904:	100128f0 	.word	0x100128f0
10005908:	10012900 	.word	0x10012900

1000590c <hard_assertion_failure>:
1000590c:	b510      	push	{r4, lr}
1000590e:	4801      	ldr	r0, [pc, #4]	; (10005914 <hard_assertion_failure+0x8>)
10005910:	f7ff ffe4 	bl	100058dc <panic>
10005914:	10012904 	.word	0x10012904

10005918 <clocks_init>:
10005918:	b530      	push	{r4, r5, lr}
1000591a:	200c      	movs	r0, #12
1000591c:	b083      	sub	sp, #12
1000591e:	f000 f9b7 	bl	10005c90 <watchdog_start_tick>
10005922:	f7fe fc9b 	bl	1000425c <running_on_fpga>
10005926:	2800      	cmp	r0, #0
10005928:	d00e      	beq.n	10005948 <clocks_init+0x30>
1000592a:	4b94      	ldr	r3, [pc, #592]	; (10005b7c <clocks_init+0x264>)
1000592c:	4a94      	ldr	r2, [pc, #592]	; (10005b80 <clocks_init+0x268>)
1000592e:	601a      	str	r2, [r3, #0]
10005930:	605a      	str	r2, [r3, #4]
10005932:	609a      	str	r2, [r3, #8]
10005934:	60da      	str	r2, [r3, #12]
10005936:	611a      	str	r2, [r3, #16]
10005938:	615a      	str	r2, [r3, #20]
1000593a:	619a      	str	r2, [r3, #24]
1000593c:	61da      	str	r2, [r3, #28]
1000593e:	621a      	str	r2, [r3, #32]
10005940:	4a90      	ldr	r2, [pc, #576]	; (10005b84 <clocks_init+0x26c>)
10005942:	625a      	str	r2, [r3, #36]	; 0x24
10005944:	b003      	add	sp, #12
10005946:	bd30      	pop	{r4, r5, pc}
10005948:	4c8f      	ldr	r4, [pc, #572]	; (10005b88 <clocks_init+0x270>)
1000594a:	67a0      	str	r0, [r4, #120]	; 0x78
1000594c:	f000 f9f4 	bl	10005d38 <xosc_init>
10005950:	2201      	movs	r2, #1
10005952:	4b8e      	ldr	r3, [pc, #568]	; (10005b8c <clocks_init+0x274>)
10005954:	601a      	str	r2, [r3, #0]
10005956:	6c63      	ldr	r3, [r4, #68]	; 0x44
10005958:	2b01      	cmp	r3, #1
1000595a:	d1fc      	bne.n	10005956 <clocks_init+0x3e>
1000595c:	2203      	movs	r2, #3
1000595e:	4b8c      	ldr	r3, [pc, #560]	; (10005b90 <clocks_init+0x278>)
10005960:	601a      	str	r2, [r3, #0]
10005962:	4a89      	ldr	r2, [pc, #548]	; (10005b88 <clocks_init+0x270>)
10005964:	6b93      	ldr	r3, [r2, #56]	; 0x38
10005966:	2b01      	cmp	r3, #1
10005968:	d1fc      	bne.n	10005964 <clocks_init+0x4c>
1000596a:	3301      	adds	r3, #1
1000596c:	2101      	movs	r1, #1
1000596e:	4a89      	ldr	r2, [pc, #548]	; (10005b94 <clocks_init+0x27c>)
10005970:	4889      	ldr	r0, [pc, #548]	; (10005b98 <clocks_init+0x280>)
10005972:	9300      	str	r3, [sp, #0]
10005974:	3304      	adds	r3, #4
10005976:	f000 f933 	bl	10005be0 <pll_init>
1000597a:	2305      	movs	r3, #5
1000597c:	4a87      	ldr	r2, [pc, #540]	; (10005b9c <clocks_init+0x284>)
1000597e:	9300      	str	r3, [sp, #0]
10005980:	2101      	movs	r1, #1
10005982:	4887      	ldr	r0, [pc, #540]	; (10005ba0 <clocks_init+0x288>)
10005984:	f000 f92c 	bl	10005be0 <pll_init>
10005988:	4b86      	ldr	r3, [pc, #536]	; (10005ba4 <clocks_init+0x28c>)
1000598a:	685a      	ldr	r2, [r3, #4]
1000598c:	2aff      	cmp	r2, #255	; 0xff
1000598e:	d802      	bhi.n	10005996 <clocks_init+0x7e>
10005990:	2280      	movs	r2, #128	; 0x80
10005992:	0052      	lsls	r2, r2, #1
10005994:	605a      	str	r2, [r3, #4]
10005996:	2280      	movs	r2, #128	; 0x80
10005998:	4c78      	ldr	r4, [pc, #480]	; (10005b7c <clocks_init+0x264>)
1000599a:	4b7d      	ldr	r3, [pc, #500]	; (10005b90 <clocks_init+0x278>)
1000599c:	6921      	ldr	r1, [r4, #16]
1000599e:	0112      	lsls	r2, r2, #4
100059a0:	4d80      	ldr	r5, [pc, #512]	; (10005ba4 <clocks_init+0x28c>)
100059a2:	601a      	str	r2, [r3, #0]
100059a4:	2900      	cmp	r1, #0
100059a6:	d005      	beq.n	100059b4 <clocks_init+0x9c>
100059a8:	6960      	ldr	r0, [r4, #20]
100059aa:	f001 fd31 	bl	10007410 <__wrap___aeabi_uidiv>
100059ae:	3001      	adds	r0, #1
100059b0:	3801      	subs	r0, #1
100059b2:	d1fd      	bne.n	100059b0 <clocks_init+0x98>
100059b4:	21e0      	movs	r1, #224	; 0xe0
100059b6:	4b7b      	ldr	r3, [pc, #492]	; (10005ba4 <clocks_init+0x28c>)
100059b8:	2002      	movs	r0, #2
100059ba:	681a      	ldr	r2, [r3, #0]
100059bc:	4011      	ands	r1, r2
100059be:	2280      	movs	r2, #128	; 0x80
100059c0:	0152      	lsls	r2, r2, #5
100059c2:	432a      	orrs	r2, r5
100059c4:	6011      	str	r1, [r2, #0]
100059c6:	6819      	ldr	r1, [r3, #0]
100059c8:	4048      	eors	r0, r1
100059ca:	2103      	movs	r1, #3
100059cc:	4001      	ands	r1, r0
100059ce:	6011      	str	r1, [r2, #0]
100059d0:	2104      	movs	r1, #4
100059d2:	689a      	ldr	r2, [r3, #8]
100059d4:	4211      	tst	r1, r2
100059d6:	d0fc      	beq.n	100059d2 <clocks_init+0xba>
100059d8:	2280      	movs	r2, #128	; 0x80
100059da:	2180      	movs	r1, #128	; 0x80
100059dc:	0192      	lsls	r2, r2, #6
100059de:	432a      	orrs	r2, r5
100059e0:	0109      	lsls	r1, r1, #4
100059e2:	6011      	str	r1, [r2, #0]
100059e4:	2280      	movs	r2, #128	; 0x80
100059e6:	0052      	lsls	r2, r2, #1
100059e8:	605a      	str	r2, [r3, #4]
100059ea:	4b6f      	ldr	r3, [pc, #444]	; (10005ba8 <clocks_init+0x290>)
100059ec:	6123      	str	r3, [r4, #16]
100059ee:	4b6f      	ldr	r3, [pc, #444]	; (10005bac <clocks_init+0x294>)
100059f0:	6859      	ldr	r1, [r3, #4]
100059f2:	29ff      	cmp	r1, #255	; 0xff
100059f4:	d800      	bhi.n	100059f8 <clocks_init+0xe0>
100059f6:	605a      	str	r2, [r3, #4]
100059f8:	2103      	movs	r1, #3
100059fa:	4a64      	ldr	r2, [pc, #400]	; (10005b8c <clocks_init+0x274>)
100059fc:	4b6b      	ldr	r3, [pc, #428]	; (10005bac <clocks_init+0x294>)
100059fe:	6011      	str	r1, [r2, #0]
10005a00:	3902      	subs	r1, #2
10005a02:	689a      	ldr	r2, [r3, #8]
10005a04:	4211      	tst	r1, r2
10005a06:	d0fc      	beq.n	10005a02 <clocks_init+0xea>
10005a08:	20e0      	movs	r0, #224	; 0xe0
10005a0a:	681a      	ldr	r2, [r3, #0]
10005a0c:	4010      	ands	r0, r2
10005a0e:	2280      	movs	r2, #128	; 0x80
10005a10:	0152      	lsls	r2, r2, #5
10005a12:	431a      	orrs	r2, r3
10005a14:	6010      	str	r0, [r2, #0]
10005a16:	6818      	ldr	r0, [r3, #0]
10005a18:	4048      	eors	r0, r1
10005a1a:	2103      	movs	r1, #3
10005a1c:	4001      	ands	r1, r0
10005a1e:	2002      	movs	r0, #2
10005a20:	6011      	str	r1, [r2, #0]
10005a22:	4962      	ldr	r1, [pc, #392]	; (10005bac <clocks_init+0x294>)
10005a24:	688a      	ldr	r2, [r1, #8]
10005a26:	4210      	tst	r0, r2
10005a28:	d0fc      	beq.n	10005a24 <clocks_init+0x10c>
10005a2a:	2280      	movs	r2, #128	; 0x80
10005a2c:	0192      	lsls	r2, r2, #6
10005a2e:	4313      	orrs	r3, r2
10005a30:	2280      	movs	r2, #128	; 0x80
10005a32:	0112      	lsls	r2, r2, #4
10005a34:	601a      	str	r2, [r3, #0]
10005a36:	2280      	movs	r2, #128	; 0x80
10005a38:	4b5d      	ldr	r3, [pc, #372]	; (10005bb0 <clocks_init+0x298>)
10005a3a:	0052      	lsls	r2, r2, #1
10005a3c:	604a      	str	r2, [r1, #4]
10005a3e:	6163      	str	r3, [r4, #20]
10005a40:	4b5c      	ldr	r3, [pc, #368]	; (10005bb4 <clocks_init+0x29c>)
10005a42:	6859      	ldr	r1, [r3, #4]
10005a44:	29ff      	cmp	r1, #255	; 0xff
10005a46:	d800      	bhi.n	10005a4a <clocks_init+0x132>
10005a48:	605a      	str	r2, [r3, #4]
10005a4a:	2280      	movs	r2, #128	; 0x80
10005a4c:	4b5a      	ldr	r3, [pc, #360]	; (10005bb8 <clocks_init+0x2a0>)
10005a4e:	69e1      	ldr	r1, [r4, #28]
10005a50:	0112      	lsls	r2, r2, #4
10005a52:	4d58      	ldr	r5, [pc, #352]	; (10005bb4 <clocks_init+0x29c>)
10005a54:	601a      	str	r2, [r3, #0]
10005a56:	2900      	cmp	r1, #0
10005a58:	d005      	beq.n	10005a66 <clocks_init+0x14e>
10005a5a:	6960      	ldr	r0, [r4, #20]
10005a5c:	f001 fcd8 	bl	10007410 <__wrap___aeabi_uidiv>
10005a60:	3001      	adds	r0, #1
10005a62:	3801      	subs	r0, #1
10005a64:	d1fd      	bne.n	10005a62 <clocks_init+0x14a>
10005a66:	22e0      	movs	r2, #224	; 0xe0
10005a68:	4952      	ldr	r1, [pc, #328]	; (10005bb4 <clocks_init+0x29c>)
10005a6a:	680b      	ldr	r3, [r1, #0]
10005a6c:	401a      	ands	r2, r3
10005a6e:	2380      	movs	r3, #128	; 0x80
10005a70:	015b      	lsls	r3, r3, #5
10005a72:	432b      	orrs	r3, r5
10005a74:	601a      	str	r2, [r3, #0]
10005a76:	2380      	movs	r3, #128	; 0x80
10005a78:	2280      	movs	r2, #128	; 0x80
10005a7a:	019b      	lsls	r3, r3, #6
10005a7c:	432b      	orrs	r3, r5
10005a7e:	0112      	lsls	r2, r2, #4
10005a80:	601a      	str	r2, [r3, #0]
10005a82:	2280      	movs	r2, #128	; 0x80
10005a84:	4b3e      	ldr	r3, [pc, #248]	; (10005b80 <clocks_init+0x268>)
10005a86:	0052      	lsls	r2, r2, #1
10005a88:	604a      	str	r2, [r1, #4]
10005a8a:	61e3      	str	r3, [r4, #28]
10005a8c:	4b4b      	ldr	r3, [pc, #300]	; (10005bbc <clocks_init+0x2a4>)
10005a8e:	6859      	ldr	r1, [r3, #4]
10005a90:	29ff      	cmp	r1, #255	; 0xff
10005a92:	d800      	bhi.n	10005a96 <clocks_init+0x17e>
10005a94:	605a      	str	r2, [r3, #4]
10005a96:	2280      	movs	r2, #128	; 0x80
10005a98:	4b49      	ldr	r3, [pc, #292]	; (10005bc0 <clocks_init+0x2a8>)
10005a9a:	6a21      	ldr	r1, [r4, #32]
10005a9c:	0112      	lsls	r2, r2, #4
10005a9e:	4d47      	ldr	r5, [pc, #284]	; (10005bbc <clocks_init+0x2a4>)
10005aa0:	601a      	str	r2, [r3, #0]
10005aa2:	2900      	cmp	r1, #0
10005aa4:	d005      	beq.n	10005ab2 <clocks_init+0x19a>
10005aa6:	6960      	ldr	r0, [r4, #20]
10005aa8:	f001 fcb2 	bl	10007410 <__wrap___aeabi_uidiv>
10005aac:	3001      	adds	r0, #1
10005aae:	3801      	subs	r0, #1
10005ab0:	d1fd      	bne.n	10005aae <clocks_init+0x196>
10005ab2:	22e0      	movs	r2, #224	; 0xe0
10005ab4:	4941      	ldr	r1, [pc, #260]	; (10005bbc <clocks_init+0x2a4>)
10005ab6:	680b      	ldr	r3, [r1, #0]
10005ab8:	401a      	ands	r2, r3
10005aba:	2380      	movs	r3, #128	; 0x80
10005abc:	015b      	lsls	r3, r3, #5
10005abe:	432b      	orrs	r3, r5
10005ac0:	601a      	str	r2, [r3, #0]
10005ac2:	2380      	movs	r3, #128	; 0x80
10005ac4:	2280      	movs	r2, #128	; 0x80
10005ac6:	019b      	lsls	r3, r3, #6
10005ac8:	432b      	orrs	r3, r5
10005aca:	0112      	lsls	r2, r2, #4
10005acc:	601a      	str	r2, [r3, #0]
10005ace:	2380      	movs	r3, #128	; 0x80
10005ad0:	2280      	movs	r2, #128	; 0x80
10005ad2:	005b      	lsls	r3, r3, #1
10005ad4:	604b      	str	r3, [r1, #4]
10005ad6:	4b2a      	ldr	r3, [pc, #168]	; (10005b80 <clocks_init+0x268>)
10005ad8:	02d2      	lsls	r2, r2, #11
10005ada:	6223      	str	r3, [r4, #32]
10005adc:	4b39      	ldr	r3, [pc, #228]	; (10005bc4 <clocks_init+0x2ac>)
10005ade:	6859      	ldr	r1, [r3, #4]
10005ae0:	4291      	cmp	r1, r2
10005ae2:	d200      	bcs.n	10005ae6 <clocks_init+0x1ce>
10005ae4:	605a      	str	r2, [r3, #4]
10005ae6:	2280      	movs	r2, #128	; 0x80
10005ae8:	4b37      	ldr	r3, [pc, #220]	; (10005bc8 <clocks_init+0x2b0>)
10005aea:	6a61      	ldr	r1, [r4, #36]	; 0x24
10005aec:	0112      	lsls	r2, r2, #4
10005aee:	4d35      	ldr	r5, [pc, #212]	; (10005bc4 <clocks_init+0x2ac>)
10005af0:	601a      	str	r2, [r3, #0]
10005af2:	2900      	cmp	r1, #0
10005af4:	d005      	beq.n	10005b02 <clocks_init+0x1ea>
10005af6:	6960      	ldr	r0, [r4, #20]
10005af8:	f001 fc8a 	bl	10007410 <__wrap___aeabi_uidiv>
10005afc:	3001      	adds	r0, #1
10005afe:	3801      	subs	r0, #1
10005b00:	d1fd      	bne.n	10005afe <clocks_init+0x1e6>
10005b02:	22e0      	movs	r2, #224	; 0xe0
10005b04:	492f      	ldr	r1, [pc, #188]	; (10005bc4 <clocks_init+0x2ac>)
10005b06:	680b      	ldr	r3, [r1, #0]
10005b08:	401a      	ands	r2, r3
10005b0a:	2380      	movs	r3, #128	; 0x80
10005b0c:	015b      	lsls	r3, r3, #5
10005b0e:	432b      	orrs	r3, r5
10005b10:	601a      	str	r2, [r3, #0]
10005b12:	2380      	movs	r3, #128	; 0x80
10005b14:	2280      	movs	r2, #128	; 0x80
10005b16:	019b      	lsls	r3, r3, #6
10005b18:	432b      	orrs	r3, r5
10005b1a:	0112      	lsls	r2, r2, #4
10005b1c:	601a      	str	r2, [r3, #0]
10005b1e:	2380      	movs	r3, #128	; 0x80
10005b20:	02db      	lsls	r3, r3, #11
10005b22:	604b      	str	r3, [r1, #4]
10005b24:	4b17      	ldr	r3, [pc, #92]	; (10005b84 <clocks_init+0x26c>)
10005b26:	6263      	str	r3, [r4, #36]	; 0x24
10005b28:	4b28      	ldr	r3, [pc, #160]	; (10005bcc <clocks_init+0x2b4>)
10005b2a:	685a      	ldr	r2, [r3, #4]
10005b2c:	2aff      	cmp	r2, #255	; 0xff
10005b2e:	d802      	bhi.n	10005b36 <clocks_init+0x21e>
10005b30:	2280      	movs	r2, #128	; 0x80
10005b32:	0052      	lsls	r2, r2, #1
10005b34:	605a      	str	r2, [r3, #4]
10005b36:	2280      	movs	r2, #128	; 0x80
10005b38:	4b25      	ldr	r3, [pc, #148]	; (10005bd0 <clocks_init+0x2b8>)
10005b3a:	69a1      	ldr	r1, [r4, #24]
10005b3c:	0112      	lsls	r2, r2, #4
10005b3e:	4d23      	ldr	r5, [pc, #140]	; (10005bcc <clocks_init+0x2b4>)
10005b40:	601a      	str	r2, [r3, #0]
10005b42:	2900      	cmp	r1, #0
10005b44:	d005      	beq.n	10005b52 <clocks_init+0x23a>
10005b46:	6960      	ldr	r0, [r4, #20]
10005b48:	f001 fc62 	bl	10007410 <__wrap___aeabi_uidiv>
10005b4c:	3001      	adds	r0, #1
10005b4e:	3801      	subs	r0, #1
10005b50:	d1fd      	bne.n	10005b4e <clocks_init+0x236>
10005b52:	22e0      	movs	r2, #224	; 0xe0
10005b54:	491d      	ldr	r1, [pc, #116]	; (10005bcc <clocks_init+0x2b4>)
10005b56:	680b      	ldr	r3, [r1, #0]
10005b58:	401a      	ands	r2, r3
10005b5a:	2380      	movs	r3, #128	; 0x80
10005b5c:	015b      	lsls	r3, r3, #5
10005b5e:	432b      	orrs	r3, r5
10005b60:	601a      	str	r2, [r3, #0]
10005b62:	2380      	movs	r3, #128	; 0x80
10005b64:	2280      	movs	r2, #128	; 0x80
10005b66:	019b      	lsls	r3, r3, #6
10005b68:	432b      	orrs	r3, r5
10005b6a:	0112      	lsls	r2, r2, #4
10005b6c:	601a      	str	r2, [r3, #0]
10005b6e:	2380      	movs	r3, #128	; 0x80
10005b70:	005b      	lsls	r3, r3, #1
10005b72:	604b      	str	r3, [r1, #4]
10005b74:	4b0e      	ldr	r3, [pc, #56]	; (10005bb0 <clocks_init+0x298>)
10005b76:	61a3      	str	r3, [r4, #24]
10005b78:	e6e4      	b.n	10005944 <clocks_init+0x2c>
10005b7a:	46c0      	nop			; (mov r8, r8)
10005b7c:	20026638 	.word	0x20026638
10005b80:	02dc6c00 	.word	0x02dc6c00
10005b84:	0000b71b 	.word	0x0000b71b
10005b88:	40008000 	.word	0x40008000
10005b8c:	4000b03c 	.word	0x4000b03c
10005b90:	4000b030 	.word	0x4000b030
10005b94:	59682f00 	.word	0x59682f00
10005b98:	40028000 	.word	0x40028000
10005b9c:	47868c00 	.word	0x47868c00
10005ba0:	4002c000 	.word	0x4002c000
10005ba4:	40008030 	.word	0x40008030
10005ba8:	00b71b00 	.word	0x00b71b00
10005bac:	4000803c 	.word	0x4000803c
10005bb0:	07735940 	.word	0x07735940
10005bb4:	40008054 	.word	0x40008054
10005bb8:	4000b054 	.word	0x4000b054
10005bbc:	40008060 	.word	0x40008060
10005bc0:	4000b060 	.word	0x4000b060
10005bc4:	4000806c 	.word	0x4000806c
10005bc8:	4000b06c 	.word	0x4000b06c
10005bcc:	40008048 	.word	0x40008048
10005bd0:	4000b048 	.word	0x4000b048

10005bd4 <clock_get_hz>:
10005bd4:	4b01      	ldr	r3, [pc, #4]	; (10005bdc <clock_get_hz+0x8>)
10005bd6:	0080      	lsls	r0, r0, #2
10005bd8:	58c0      	ldr	r0, [r0, r3]
10005bda:	4770      	bx	lr
10005bdc:	20026638 	.word	0x20026638

10005be0 <pll_init>:
10005be0:	b5f0      	push	{r4, r5, r6, r7, lr}
10005be2:	46c6      	mov	lr, r8
10005be4:	0004      	movs	r4, r0
10005be6:	b500      	push	{lr}
10005be8:	200c      	movs	r0, #12
10005bea:	4690      	mov	r8, r2
10005bec:	001f      	movs	r7, r3
10005bee:	000e      	movs	r6, r1
10005bf0:	f001 fc0e 	bl	10007410 <__wrap___aeabi_uidiv>
10005bf4:	0141      	lsls	r1, r0, #5
10005bf6:	1a09      	subs	r1, r1, r0
10005bf8:	018d      	lsls	r5, r1, #6
10005bfa:	1a69      	subs	r1, r5, r1
10005bfc:	00c9      	lsls	r1, r1, #3
10005bfe:	1809      	adds	r1, r1, r0
10005c00:	0189      	lsls	r1, r1, #6
10005c02:	4640      	mov	r0, r8
10005c04:	f001 fc04 	bl	10007410 <__wrap___aeabi_uidiv>
10005c08:	9b06      	ldr	r3, [sp, #24]
10005c0a:	043f      	lsls	r7, r7, #16
10005c0c:	031a      	lsls	r2, r3, #12
10005c0e:	6823      	ldr	r3, [r4, #0]
10005c10:	4317      	orrs	r7, r2
10005c12:	2b00      	cmp	r3, #0
10005c14:	db22      	blt.n	10005c5c <pll_init+0x7c>
10005c16:	4b1a      	ldr	r3, [pc, #104]	; (10005c80 <pll_init+0xa0>)
10005c18:	4d1a      	ldr	r5, [pc, #104]	; (10005c84 <pll_init+0xa4>)
10005c1a:	18e2      	adds	r2, r4, r3
10005c1c:	4253      	negs	r3, r2
10005c1e:	415a      	adcs	r2, r3
10005c20:	2380      	movs	r3, #128	; 0x80
10005c22:	015b      	lsls	r3, r3, #5
10005c24:	469c      	mov	ip, r3
10005c26:	0312      	lsls	r2, r2, #12
10005c28:	4b17      	ldr	r3, [pc, #92]	; (10005c88 <pll_init+0xa8>)
10005c2a:	4462      	add	r2, ip
10005c2c:	601a      	str	r2, [r3, #0]
10005c2e:	4b17      	ldr	r3, [pc, #92]	; (10005c8c <pll_init+0xac>)
10005c30:	601a      	str	r2, [r3, #0]
10005c32:	0011      	movs	r1, r2
10005c34:	68ab      	ldr	r3, [r5, #8]
10005c36:	4399      	bics	r1, r3
10005c38:	d1fb      	bne.n	10005c32 <pll_init+0x52>
10005c3a:	22c0      	movs	r2, #192	; 0xc0
10005c3c:	1d23      	adds	r3, r4, #4
10005c3e:	0192      	lsls	r2, r2, #6
10005c40:	431a      	orrs	r2, r3
10005c42:	2321      	movs	r3, #33	; 0x21
10005c44:	6026      	str	r6, [r4, #0]
10005c46:	60a0      	str	r0, [r4, #8]
10005c48:	6013      	str	r3, [r2, #0]
10005c4a:	6823      	ldr	r3, [r4, #0]
10005c4c:	2b00      	cmp	r3, #0
10005c4e:	dafc      	bge.n	10005c4a <pll_init+0x6a>
10005c50:	2308      	movs	r3, #8
10005c52:	60e7      	str	r7, [r4, #12]
10005c54:	6013      	str	r3, [r2, #0]
10005c56:	bc80      	pop	{r7}
10005c58:	46b8      	mov	r8, r7
10005c5a:	bdf0      	pop	{r4, r5, r6, r7, pc}
10005c5c:	233f      	movs	r3, #63	; 0x3f
10005c5e:	6822      	ldr	r2, [r4, #0]
10005c60:	4013      	ands	r3, r2
10005c62:	42b3      	cmp	r3, r6
10005c64:	d1d7      	bne.n	10005c16 <pll_init+0x36>
10005c66:	68a3      	ldr	r3, [r4, #8]
10005c68:	051b      	lsls	r3, r3, #20
10005c6a:	0d1b      	lsrs	r3, r3, #20
10005c6c:	4283      	cmp	r3, r0
10005c6e:	d1d2      	bne.n	10005c16 <pll_init+0x36>
10005c70:	22ee      	movs	r2, #238	; 0xee
10005c72:	68e3      	ldr	r3, [r4, #12]
10005c74:	02d2      	lsls	r2, r2, #11
10005c76:	4013      	ands	r3, r2
10005c78:	42bb      	cmp	r3, r7
10005c7a:	d1cc      	bne.n	10005c16 <pll_init+0x36>
10005c7c:	e7eb      	b.n	10005c56 <pll_init+0x76>
10005c7e:	46c0      	nop			; (mov r8, r8)
10005c80:	bffd4000 	.word	0xbffd4000
10005c84:	4000c000 	.word	0x4000c000
10005c88:	4000e000 	.word	0x4000e000
10005c8c:	4000f000 	.word	0x4000f000

10005c90 <watchdog_start_tick>:
10005c90:	2380      	movs	r3, #128	; 0x80
10005c92:	4a02      	ldr	r2, [pc, #8]	; (10005c9c <watchdog_start_tick+0xc>)
10005c94:	009b      	lsls	r3, r3, #2
10005c96:	4303      	orrs	r3, r0
10005c98:	62d3      	str	r3, [r2, #44]	; 0x2c
10005c9a:	4770      	bx	lr
10005c9c:	40058000 	.word	0x40058000

10005ca0 <watchdog_reboot>:
10005ca0:	b510      	push	{r4, lr}
10005ca2:	0014      	movs	r4, r2
10005ca4:	2280      	movs	r2, #128	; 0x80
10005ca6:	4b1b      	ldr	r3, [pc, #108]	; (10005d14 <watchdog_reboot+0x74>)
10005ca8:	05d2      	lsls	r2, r2, #23
10005caa:	601a      	str	r2, [r3, #0]
10005cac:	2800      	cmp	r0, #0
10005cae:	d01a      	beq.n	10005ce6 <watchdog_reboot+0x46>
10005cb0:	2301      	movs	r3, #1
10005cb2:	4a19      	ldr	r2, [pc, #100]	; (10005d18 <watchdog_reboot+0x78>)
10005cb4:	4318      	orrs	r0, r3
10005cb6:	4b19      	ldr	r3, [pc, #100]	; (10005d1c <watchdog_reboot+0x7c>)
10005cb8:	61da      	str	r2, [r3, #28]
10005cba:	4a19      	ldr	r2, [pc, #100]	; (10005d20 <watchdog_reboot+0x80>)
10005cbc:	4042      	eors	r2, r0
10005cbe:	621a      	str	r2, [r3, #32]
10005cc0:	6259      	str	r1, [r3, #36]	; 0x24
10005cc2:	6298      	str	r0, [r3, #40]	; 0x28
10005cc4:	2280      	movs	r2, #128	; 0x80
10005cc6:	4b13      	ldr	r3, [pc, #76]	; (10005d14 <watchdog_reboot+0x74>)
10005cc8:	05d2      	lsls	r2, r2, #23
10005cca:	601a      	str	r2, [r3, #0]
10005ccc:	4915      	ldr	r1, [pc, #84]	; (10005d24 <watchdog_reboot+0x84>)
10005cce:	4a16      	ldr	r2, [pc, #88]	; (10005d28 <watchdog_reboot+0x88>)
10005cd0:	6011      	str	r1, [r2, #0]
10005cd2:	22e0      	movs	r2, #224	; 0xe0
10005cd4:	04d2      	lsls	r2, r2, #19
10005cd6:	601a      	str	r2, [r3, #0]
10005cd8:	2c00      	cmp	r4, #0
10005cda:	d107      	bne.n	10005cec <watchdog_reboot+0x4c>
10005cdc:	2280      	movs	r2, #128	; 0x80
10005cde:	4b13      	ldr	r3, [pc, #76]	; (10005d2c <watchdog_reboot+0x8c>)
10005ce0:	0612      	lsls	r2, r2, #24
10005ce2:	601a      	str	r2, [r3, #0]
10005ce4:	bd10      	pop	{r4, pc}
10005ce6:	4b0d      	ldr	r3, [pc, #52]	; (10005d1c <watchdog_reboot+0x7c>)
10005ce8:	61d8      	str	r0, [r3, #28]
10005cea:	e7eb      	b.n	10005cc4 <watchdog_reboot+0x24>
10005cec:	0163      	lsls	r3, r4, #5
10005cee:	1b1b      	subs	r3, r3, r4
10005cf0:	009a      	lsls	r2, r3, #2
10005cf2:	2380      	movs	r3, #128	; 0x80
10005cf4:	1912      	adds	r2, r2, r4
10005cf6:	0112      	lsls	r2, r2, #4
10005cf8:	045b      	lsls	r3, r3, #17
10005cfa:	429a      	cmp	r2, r3
10005cfc:	d300      	bcc.n	10005d00 <watchdog_reboot+0x60>
10005cfe:	4a0c      	ldr	r2, [pc, #48]	; (10005d30 <watchdog_reboot+0x90>)
10005d00:	4b0c      	ldr	r3, [pc, #48]	; (10005d34 <watchdog_reboot+0x94>)
10005d02:	601a      	str	r2, [r3, #0]
10005d04:	4b05      	ldr	r3, [pc, #20]	; (10005d1c <watchdog_reboot+0x7c>)
10005d06:	605a      	str	r2, [r3, #4]
10005d08:	2280      	movs	r2, #128	; 0x80
10005d0a:	4b08      	ldr	r3, [pc, #32]	; (10005d2c <watchdog_reboot+0x8c>)
10005d0c:	05d2      	lsls	r2, r2, #23
10005d0e:	601a      	str	r2, [r3, #0]
10005d10:	e7e8      	b.n	10005ce4 <watchdog_reboot+0x44>
10005d12:	46c0      	nop			; (mov r8, r8)
10005d14:	4005b000 	.word	0x4005b000
10005d18:	b007c0d3 	.word	0xb007c0d3
10005d1c:	40058000 	.word	0x40058000
10005d20:	4ff83f2d 	.word	0x4ff83f2d
10005d24:	0001fffc 	.word	0x0001fffc
10005d28:	40012008 	.word	0x40012008
10005d2c:	4005a000 	.word	0x4005a000
10005d30:	00ffffff 	.word	0x00ffffff
10005d34:	20026b14 	.word	0x20026b14

10005d38 <xosc_init>:
10005d38:	23aa      	movs	r3, #170	; 0xaa
10005d3a:	4a06      	ldr	r2, [pc, #24]	; (10005d54 <xosc_init+0x1c>)
10005d3c:	011b      	lsls	r3, r3, #4
10005d3e:	6013      	str	r3, [r2, #0]
10005d40:	232f      	movs	r3, #47	; 0x2f
10005d42:	4905      	ldr	r1, [pc, #20]	; (10005d58 <xosc_init+0x20>)
10005d44:	60d3      	str	r3, [r2, #12]
10005d46:	4b05      	ldr	r3, [pc, #20]	; (10005d5c <xosc_init+0x24>)
10005d48:	6019      	str	r1, [r3, #0]
10005d4a:	6853      	ldr	r3, [r2, #4]
10005d4c:	2b00      	cmp	r3, #0
10005d4e:	dafc      	bge.n	10005d4a <xosc_init+0x12>
10005d50:	4770      	bx	lr
10005d52:	46c0      	nop			; (mov r8, r8)
10005d54:	40024000 	.word	0x40024000
10005d58:	00fab000 	.word	0x00fab000
10005d5c:	40026000 	.word	0x40026000

10005d60 <_out_buffer>:
10005d60:	429a      	cmp	r2, r3
10005d62:	d200      	bcs.n	10005d66 <_out_buffer+0x6>
10005d64:	5488      	strb	r0, [r1, r2]
10005d66:	4770      	bx	lr

10005d68 <_out_null>:
10005d68:	4770      	bx	lr
10005d6a:	46c0      	nop			; (mov r8, r8)

10005d6c <_out_rev>:
10005d6c:	b5f8      	push	{r3, r4, r5, r6, r7, lr}
10005d6e:	4657      	mov	r7, sl
10005d70:	464e      	mov	r6, r9
10005d72:	4645      	mov	r5, r8
10005d74:	46de      	mov	lr, fp
10005d76:	b5e0      	push	{r5, r6, r7, lr}
10005d78:	4699      	mov	r9, r3
10005d7a:	9b0a      	ldr	r3, [sp, #40]	; 0x28
10005d7c:	0007      	movs	r7, r0
10005d7e:	469a      	mov	sl, r3
10005d80:	9b0d      	ldr	r3, [sp, #52]	; 0x34
10005d82:	4688      	mov	r8, r1
10005d84:	4693      	mov	fp, r2
10005d86:	0015      	movs	r5, r2
10005d88:	9e0b      	ldr	r6, [sp, #44]	; 0x2c
10005d8a:	079b      	lsls	r3, r3, #30
10005d8c:	d110      	bne.n	10005db0 <_out_rev+0x44>
10005d8e:	9b0c      	ldr	r3, [sp, #48]	; 0x30
10005d90:	429e      	cmp	r6, r3
10005d92:	d20d      	bcs.n	10005db0 <_out_rev+0x44>
10005d94:	1b9d      	subs	r5, r3, r6
10005d96:	0014      	movs	r4, r2
10005d98:	000e      	movs	r6, r1
10005d9a:	445d      	add	r5, fp
10005d9c:	0022      	movs	r2, r4
10005d9e:	464b      	mov	r3, r9
10005da0:	3401      	adds	r4, #1
10005da2:	0031      	movs	r1, r6
10005da4:	2020      	movs	r0, #32
10005da6:	47b8      	blx	r7
10005da8:	42a5      	cmp	r5, r4
10005daa:	d1f7      	bne.n	10005d9c <_out_rev+0x30>
10005dac:	46b0      	mov	r8, r6
10005dae:	9e0b      	ldr	r6, [sp, #44]	; 0x2c
10005db0:	2e00      	cmp	r6, #0
10005db2:	d027      	beq.n	10005e04 <_out_rev+0x98>
10005db4:	4644      	mov	r4, r8
10005db6:	1975      	adds	r5, r6, r5
10005db8:	4653      	mov	r3, sl
10005dba:	1baa      	subs	r2, r5, r6
10005dbc:	3e01      	subs	r6, #1
10005dbe:	5d98      	ldrb	r0, [r3, r6]
10005dc0:	0021      	movs	r1, r4
10005dc2:	464b      	mov	r3, r9
10005dc4:	47b8      	blx	r7
10005dc6:	2e00      	cmp	r6, #0
10005dc8:	d1f6      	bne.n	10005db8 <_out_rev+0x4c>
10005dca:	0023      	movs	r3, r4
10005dcc:	002c      	movs	r4, r5
10005dce:	4698      	mov	r8, r3
10005dd0:	9b0d      	ldr	r3, [sp, #52]	; 0x34
10005dd2:	079b      	lsls	r3, r3, #30
10005dd4:	d50f      	bpl.n	10005df6 <_out_rev+0x8a>
10005dd6:	465b      	mov	r3, fp
10005dd8:	1ae5      	subs	r5, r4, r3
10005dda:	9b0c      	ldr	r3, [sp, #48]	; 0x30
10005ddc:	42ab      	cmp	r3, r5
10005dde:	d90a      	bls.n	10005df6 <_out_rev+0x8a>
10005de0:	4646      	mov	r6, r8
10005de2:	4698      	mov	r8, r3
10005de4:	0022      	movs	r2, r4
10005de6:	464b      	mov	r3, r9
10005de8:	0031      	movs	r1, r6
10005dea:	2020      	movs	r0, #32
10005dec:	3501      	adds	r5, #1
10005dee:	47b8      	blx	r7
10005df0:	3401      	adds	r4, #1
10005df2:	45a8      	cmp	r8, r5
10005df4:	d8f6      	bhi.n	10005de4 <_out_rev+0x78>
10005df6:	0020      	movs	r0, r4
10005df8:	bcf0      	pop	{r4, r5, r6, r7}
10005dfa:	46bb      	mov	fp, r7
10005dfc:	46b2      	mov	sl, r6
10005dfe:	46a9      	mov	r9, r5
10005e00:	46a0      	mov	r8, r4
10005e02:	bdf8      	pop	{r3, r4, r5, r6, r7, pc}
10005e04:	002c      	movs	r4, r5
10005e06:	e7e3      	b.n	10005dd0 <_out_rev+0x64>

10005e08 <_ntoa_format>:
10005e08:	b5f0      	push	{r4, r5, r6, r7, lr}
10005e0a:	464f      	mov	r7, r9
10005e0c:	4646      	mov	r6, r8
10005e0e:	46d6      	mov	lr, sl
10005e10:	b5c0      	push	{r6, r7, lr}
10005e12:	b084      	sub	sp, #16
10005e14:	4698      	mov	r8, r3
10005e16:	ab0e      	add	r3, sp, #56	; 0x38
10005e18:	781b      	ldrb	r3, [r3, #0]
10005e1a:	9f12      	ldr	r7, [sp, #72]	; 0x48
10005e1c:	4699      	mov	r9, r3
10005e1e:	4694      	mov	ip, r2
10005e20:	9c0d      	ldr	r4, [sp, #52]	; 0x34
10005e22:	9b10      	ldr	r3, [sp, #64]	; 0x40
10005e24:	9e11      	ldr	r6, [sp, #68]	; 0x44
10005e26:	07ba      	lsls	r2, r7, #30
10005e28:	d425      	bmi.n	10005e76 <_ntoa_format+0x6e>
10005e2a:	2e00      	cmp	r6, #0
10005e2c:	d14b      	bne.n	10005ec6 <_ntoa_format+0xbe>
10005e2e:	429c      	cmp	r4, r3
10005e30:	d300      	bcc.n	10005e34 <_ntoa_format+0x2c>
10005e32:	e0bf      	b.n	10005fb4 <_ntoa_format+0x1ac>
10005e34:	2201      	movs	r2, #1
10005e36:	403a      	ands	r2, r7
10005e38:	4692      	mov	sl, r2
10005e3a:	2c1f      	cmp	r4, #31
10005e3c:	d900      	bls.n	10005e40 <_ntoa_format+0x38>
10005e3e:	e0b8      	b.n	10005fb2 <_ntoa_format+0x1aa>
10005e40:	9a0c      	ldr	r2, [sp, #48]	; 0x30
10005e42:	1e55      	subs	r5, r2, #1
10005e44:	2230      	movs	r2, #48	; 0x30
10005e46:	e001      	b.n	10005e4c <_ntoa_format+0x44>
10005e48:	2c20      	cmp	r4, #32
10005e4a:	d003      	beq.n	10005e54 <_ntoa_format+0x4c>
10005e4c:	3401      	adds	r4, #1
10005e4e:	552a      	strb	r2, [r5, r4]
10005e50:	42a3      	cmp	r3, r4
10005e52:	d8f9      	bhi.n	10005e48 <_ntoa_format+0x40>
10005e54:	4652      	mov	r2, sl
10005e56:	2a00      	cmp	r2, #0
10005e58:	d00d      	beq.n	10005e76 <_ntoa_format+0x6e>
10005e5a:	42a6      	cmp	r6, r4
10005e5c:	d90b      	bls.n	10005e76 <_ntoa_format+0x6e>
10005e5e:	2c20      	cmp	r4, #32
10005e60:	d044      	beq.n	10005eec <_ntoa_format+0xe4>
10005e62:	9a0c      	ldr	r2, [sp, #48]	; 0x30
10005e64:	1e55      	subs	r5, r2, #1
10005e66:	2230      	movs	r2, #48	; 0x30
10005e68:	e001      	b.n	10005e6e <_ntoa_format+0x66>
10005e6a:	2c20      	cmp	r4, #32
10005e6c:	d03e      	beq.n	10005eec <_ntoa_format+0xe4>
10005e6e:	3401      	adds	r4, #1
10005e70:	552a      	strb	r2, [r5, r4]
10005e72:	42b4      	cmp	r4, r6
10005e74:	d1f9      	bne.n	10005e6a <_ntoa_format+0x62>
10005e76:	06fa      	lsls	r2, r7, #27
10005e78:	d54d      	bpl.n	10005f16 <_ntoa_format+0x10e>
10005e7a:	057a      	lsls	r2, r7, #21
10005e7c:	d43f      	bmi.n	10005efe <_ntoa_format+0xf6>
10005e7e:	2c00      	cmp	r4, #0
10005e80:	d139      	bne.n	10005ef6 <_ntoa_format+0xee>
10005e82:	9b0f      	ldr	r3, [sp, #60]	; 0x3c
10005e84:	2b10      	cmp	r3, #16
10005e86:	d100      	bne.n	10005e8a <_ntoa_format+0x82>
10005e88:	e079      	b.n	10005f7e <_ntoa_format+0x176>
10005e8a:	9b0f      	ldr	r3, [sp, #60]	; 0x3c
10005e8c:	2b02      	cmp	r3, #2
10005e8e:	d100      	bne.n	10005e92 <_ntoa_format+0x8a>
10005e90:	e08a      	b.n	10005fa8 <_ntoa_format+0x1a0>
10005e92:	2330      	movs	r3, #48	; 0x30
10005e94:	9a0c      	ldr	r2, [sp, #48]	; 0x30
10005e96:	2401      	movs	r4, #1
10005e98:	7013      	strb	r3, [r2, #0]
10005e9a:	464b      	mov	r3, r9
10005e9c:	2b00      	cmp	r3, #0
10005e9e:	d03f      	beq.n	10005f20 <_ntoa_format+0x118>
10005ea0:	232d      	movs	r3, #45	; 0x2d
10005ea2:	9a0c      	ldr	r2, [sp, #48]	; 0x30
10005ea4:	5513      	strb	r3, [r2, r4]
10005ea6:	3401      	adds	r4, #1
10005ea8:	9b0c      	ldr	r3, [sp, #48]	; 0x30
10005eaa:	4662      	mov	r2, ip
10005eac:	9300      	str	r3, [sp, #0]
10005eae:	9703      	str	r7, [sp, #12]
10005eb0:	4643      	mov	r3, r8
10005eb2:	9602      	str	r6, [sp, #8]
10005eb4:	9401      	str	r4, [sp, #4]
10005eb6:	f7ff ff59 	bl	10005d6c <_out_rev>
10005eba:	b004      	add	sp, #16
10005ebc:	bce0      	pop	{r5, r6, r7}
10005ebe:	46ba      	mov	sl, r7
10005ec0:	46b1      	mov	r9, r6
10005ec2:	46a8      	mov	r8, r5
10005ec4:	bdf0      	pop	{r4, r5, r6, r7, pc}
10005ec6:	2201      	movs	r2, #1
10005ec8:	0015      	movs	r5, r2
10005eca:	403d      	ands	r5, r7
10005ecc:	46aa      	mov	sl, r5
10005ece:	423a      	tst	r2, r7
10005ed0:	d02f      	beq.n	10005f32 <_ntoa_format+0x12a>
10005ed2:	464a      	mov	r2, r9
10005ed4:	2a00      	cmp	r2, #0
10005ed6:	d102      	bne.n	10005ede <_ntoa_format+0xd6>
10005ed8:	320c      	adds	r2, #12
10005eda:	423a      	tst	r2, r7
10005edc:	d000      	beq.n	10005ee0 <_ntoa_format+0xd8>
10005ede:	3e01      	subs	r6, #1
10005ee0:	429c      	cmp	r4, r3
10005ee2:	d2ba      	bcs.n	10005e5a <_ntoa_format+0x52>
10005ee4:	2c1f      	cmp	r4, #31
10005ee6:	d9ab      	bls.n	10005e40 <_ntoa_format+0x38>
10005ee8:	2e20      	cmp	r6, #32
10005eea:	d927      	bls.n	10005f3c <_ntoa_format+0x134>
10005eec:	2420      	movs	r4, #32
10005eee:	06fa      	lsls	r2, r7, #27
10005ef0:	d5da      	bpl.n	10005ea8 <_ntoa_format+0xa0>
10005ef2:	057a      	lsls	r2, r7, #21
10005ef4:	d403      	bmi.n	10005efe <_ntoa_format+0xf6>
10005ef6:	42a3      	cmp	r3, r4
10005ef8:	d02d      	beq.n	10005f56 <_ntoa_format+0x14e>
10005efa:	42a6      	cmp	r6, r4
10005efc:	d02b      	beq.n	10005f56 <_ntoa_format+0x14e>
10005efe:	9b0f      	ldr	r3, [sp, #60]	; 0x3c
10005f00:	2b10      	cmp	r3, #16
10005f02:	d032      	beq.n	10005f6a <_ntoa_format+0x162>
10005f04:	2b02      	cmp	r3, #2
10005f06:	d020      	beq.n	10005f4a <_ntoa_format+0x142>
10005f08:	2c20      	cmp	r4, #32
10005f0a:	d0cd      	beq.n	10005ea8 <_ntoa_format+0xa0>
10005f0c:	2230      	movs	r2, #48	; 0x30
10005f0e:	9b0c      	ldr	r3, [sp, #48]	; 0x30
10005f10:	191b      	adds	r3, r3, r4
10005f12:	701a      	strb	r2, [r3, #0]
10005f14:	3401      	adds	r4, #1
10005f16:	2c20      	cmp	r4, #32
10005f18:	d0c6      	beq.n	10005ea8 <_ntoa_format+0xa0>
10005f1a:	464b      	mov	r3, r9
10005f1c:	2b00      	cmp	r3, #0
10005f1e:	d1bf      	bne.n	10005ea0 <_ntoa_format+0x98>
10005f20:	077b      	lsls	r3, r7, #29
10005f22:	d40d      	bmi.n	10005f40 <_ntoa_format+0x138>
10005f24:	073b      	lsls	r3, r7, #28
10005f26:	d5bf      	bpl.n	10005ea8 <_ntoa_format+0xa0>
10005f28:	2320      	movs	r3, #32
10005f2a:	9a0c      	ldr	r2, [sp, #48]	; 0x30
10005f2c:	5513      	strb	r3, [r2, r4]
10005f2e:	3401      	adds	r4, #1
10005f30:	e7ba      	b.n	10005ea8 <_ntoa_format+0xa0>
10005f32:	429c      	cmp	r4, r3
10005f34:	d29f      	bcs.n	10005e76 <_ntoa_format+0x6e>
10005f36:	2c1f      	cmp	r4, #31
10005f38:	d800      	bhi.n	10005f3c <_ntoa_format+0x134>
10005f3a:	e781      	b.n	10005e40 <_ntoa_format+0x38>
10005f3c:	2420      	movs	r4, #32
10005f3e:	e79a      	b.n	10005e76 <_ntoa_format+0x6e>
10005f40:	232b      	movs	r3, #43	; 0x2b
10005f42:	9a0c      	ldr	r2, [sp, #48]	; 0x30
10005f44:	5513      	strb	r3, [r2, r4]
10005f46:	3401      	adds	r4, #1
10005f48:	e7ae      	b.n	10005ea8 <_ntoa_format+0xa0>
10005f4a:	2c20      	cmp	r4, #32
10005f4c:	d0ac      	beq.n	10005ea8 <_ntoa_format+0xa0>
10005f4e:	9b0c      	ldr	r3, [sp, #48]	; 0x30
10005f50:	191b      	adds	r3, r3, r4
10005f52:	3401      	adds	r4, #1
10005f54:	e03a      	b.n	10005fcc <_ntoa_format+0x1c4>
10005f56:	1e63      	subs	r3, r4, #1
10005f58:	2c01      	cmp	r4, #1
10005f5a:	d092      	beq.n	10005e82 <_ntoa_format+0x7a>
10005f5c:	9a0f      	ldr	r2, [sp, #60]	; 0x3c
10005f5e:	2a10      	cmp	r2, #16
10005f60:	d02a      	beq.n	10005fb8 <_ntoa_format+0x1b0>
10005f62:	2a02      	cmp	r2, #2
10005f64:	d02f      	beq.n	10005fc6 <_ntoa_format+0x1be>
10005f66:	001c      	movs	r4, r3
10005f68:	e7d0      	b.n	10005f0c <_ntoa_format+0x104>
10005f6a:	06bb      	lsls	r3, r7, #26
10005f6c:	d40e      	bmi.n	10005f8c <_ntoa_format+0x184>
10005f6e:	2c20      	cmp	r4, #32
10005f70:	d09a      	beq.n	10005ea8 <_ntoa_format+0xa0>
10005f72:	9b0c      	ldr	r3, [sp, #48]	; 0x30
10005f74:	191a      	adds	r2, r3, r4
10005f76:	3401      	adds	r4, #1
10005f78:	2378      	movs	r3, #120	; 0x78
10005f7a:	7013      	strb	r3, [r2, #0]
10005f7c:	e7c4      	b.n	10005f08 <_ntoa_format+0x100>
10005f7e:	06bb      	lsls	r3, r7, #26
10005f80:	d40d      	bmi.n	10005f9e <_ntoa_format+0x196>
10005f82:	2378      	movs	r3, #120	; 0x78
10005f84:	9a0c      	ldr	r2, [sp, #48]	; 0x30
10005f86:	2401      	movs	r4, #1
10005f88:	7013      	strb	r3, [r2, #0]
10005f8a:	e7bf      	b.n	10005f0c <_ntoa_format+0x104>
10005f8c:	2c20      	cmp	r4, #32
10005f8e:	d100      	bne.n	10005f92 <_ntoa_format+0x18a>
10005f90:	e78a      	b.n	10005ea8 <_ntoa_format+0xa0>
10005f92:	2258      	movs	r2, #88	; 0x58
10005f94:	9b0c      	ldr	r3, [sp, #48]	; 0x30
10005f96:	191b      	adds	r3, r3, r4
10005f98:	701a      	strb	r2, [r3, #0]
10005f9a:	3401      	adds	r4, #1
10005f9c:	e7b4      	b.n	10005f08 <_ntoa_format+0x100>
10005f9e:	2358      	movs	r3, #88	; 0x58
10005fa0:	9a0c      	ldr	r2, [sp, #48]	; 0x30
10005fa2:	2401      	movs	r4, #1
10005fa4:	7013      	strb	r3, [r2, #0]
10005fa6:	e7b1      	b.n	10005f0c <_ntoa_format+0x104>
10005fa8:	9a0c      	ldr	r2, [sp, #48]	; 0x30
10005faa:	3360      	adds	r3, #96	; 0x60
10005fac:	2401      	movs	r4, #1
10005fae:	7013      	strb	r3, [r2, #0]
10005fb0:	e7ac      	b.n	10005f0c <_ntoa_format+0x104>
10005fb2:	2420      	movs	r4, #32
10005fb4:	2600      	movs	r6, #0
10005fb6:	e75e      	b.n	10005e76 <_ntoa_format+0x6e>
10005fb8:	3c02      	subs	r4, #2
10005fba:	06ba      	lsls	r2, r7, #26
10005fbc:	d4e9      	bmi.n	10005f92 <_ntoa_format+0x18a>
10005fbe:	9a0c      	ldr	r2, [sp, #48]	; 0x30
10005fc0:	1912      	adds	r2, r2, r4
10005fc2:	001c      	movs	r4, r3
10005fc4:	e7d8      	b.n	10005f78 <_ntoa_format+0x170>
10005fc6:	9a0c      	ldr	r2, [sp, #48]	; 0x30
10005fc8:	4692      	mov	sl, r2
10005fca:	4453      	add	r3, sl
10005fcc:	2262      	movs	r2, #98	; 0x62
10005fce:	701a      	strb	r2, [r3, #0]
10005fd0:	e79a      	b.n	10005f08 <_ntoa_format+0x100>
10005fd2:	46c0      	nop			; (mov r8, r8)

10005fd4 <_out_char>:
10005fd4:	b510      	push	{r4, lr}
10005fd6:	2800      	cmp	r0, #0
10005fd8:	d100      	bne.n	10005fdc <_out_char+0x8>
10005fda:	bd10      	pop	{r4, pc}
10005fdc:	f002 fada 	bl	10008594 <__wrap_putchar>
10005fe0:	e7fb      	b.n	10005fda <_out_char+0x6>
10005fe2:	46c0      	nop			; (mov r8, r8)

10005fe4 <_etoa>:
10005fe4:	b5f0      	push	{r4, r5, r6, r7, lr}
10005fe6:	46de      	mov	lr, fp
10005fe8:	4657      	mov	r7, sl
10005fea:	464e      	mov	r6, r9
10005fec:	4645      	mov	r5, r8
10005fee:	b5e0      	push	{r5, r6, r7, lr}
10005ff0:	b09b      	sub	sp, #108	; 0x6c
10005ff2:	469b      	mov	fp, r3
10005ff4:	9b24      	ldr	r3, [sp, #144]	; 0x90
10005ff6:	4689      	mov	r9, r1
10005ff8:	4698      	mov	r8, r3
10005ffa:	9b25      	ldr	r3, [sp, #148]	; 0x94
10005ffc:	900b      	str	r0, [sp, #44]	; 0x2c
10005ffe:	920c      	str	r2, [sp, #48]	; 0x30
10006000:	4640      	mov	r0, r8
10006002:	4642      	mov	r2, r8
10006004:	0019      	movs	r1, r3
10006006:	469a      	mov	sl, r3
10006008:	f001 fcd3 	bl	100079b2 <__wrap___aeabi_dcmpun>
1000600c:	2800      	cmp	r0, #0
1000600e:	d000      	beq.n	10006012 <_etoa+0x2e>
10006010:	e0d8      	b.n	100061c4 <_etoa+0x1e0>
10006012:	2201      	movs	r2, #1
10006014:	4640      	mov	r0, r8
10006016:	4651      	mov	r1, sl
10006018:	4b77      	ldr	r3, [pc, #476]	; (100061f8 <_etoa+0x214>)
1000601a:	4252      	negs	r2, r2
1000601c:	f001 fcc4 	bl	100079a8 <__wrap___aeabi_dcmpgt>
10006020:	2800      	cmp	r0, #0
10006022:	d000      	beq.n	10006026 <_etoa+0x42>
10006024:	e0ce      	b.n	100061c4 <_etoa+0x1e0>
10006026:	2201      	movs	r2, #1
10006028:	4640      	mov	r0, r8
1000602a:	4651      	mov	r1, sl
1000602c:	4b73      	ldr	r3, [pc, #460]	; (100061fc <_etoa+0x218>)
1000602e:	4252      	negs	r2, r2
10006030:	f001 fca4 	bl	1000797c <__wrap___aeabi_dcmplt>
10006034:	2800      	cmp	r0, #0
10006036:	d000      	beq.n	1000603a <_etoa+0x56>
10006038:	e0c4      	b.n	100061c4 <_etoa+0x1e0>
1000603a:	2200      	movs	r2, #0
1000603c:	2300      	movs	r3, #0
1000603e:	4640      	mov	r0, r8
10006040:	4651      	mov	r1, sl
10006042:	f001 fc9b 	bl	1000797c <__wrap___aeabi_dcmplt>
10006046:	2800      	cmp	r0, #0
10006048:	d000      	beq.n	1000604c <_etoa+0x68>
1000604a:	e1b9      	b.n	100063c0 <_etoa+0x3dc>
1000604c:	4642      	mov	r2, r8
1000604e:	4653      	mov	r3, sl
10006050:	920a      	str	r2, [sp, #40]	; 0x28
10006052:	9309      	str	r3, [sp, #36]	; 0x24
10006054:	2380      	movs	r3, #128	; 0x80
10006056:	9a28      	ldr	r2, [sp, #160]	; 0xa0
10006058:	00db      	lsls	r3, r3, #3
1000605a:	401a      	ands	r2, r3
1000605c:	920e      	str	r2, [sp, #56]	; 0x38
1000605e:	9a28      	ldr	r2, [sp, #160]	; 0xa0
10006060:	421a      	tst	r2, r3
10006062:	d101      	bne.n	10006068 <_etoa+0x84>
10006064:	2306      	movs	r3, #6
10006066:	9326      	str	r3, [sp, #152]	; 0x98
10006068:	9a0a      	ldr	r2, [sp, #40]	; 0x28
1000606a:	9b09      	ldr	r3, [sp, #36]	; 0x24
1000606c:	0016      	movs	r6, r2
1000606e:	4313      	orrs	r3, r2
10006070:	d000      	beq.n	10006074 <_etoa+0x90>
10006072:	e0c7      	b.n	10006204 <_etoa+0x220>
10006074:	9b28      	ldr	r3, [sp, #160]	; 0xa0
10006076:	2500      	movs	r5, #0
10006078:	2600      	movs	r6, #0
1000607a:	051b      	lsls	r3, r3, #20
1000607c:	d400      	bmi.n	10006080 <_etoa+0x9c>
1000607e:	e19b      	b.n	100063b8 <_etoa+0x3d4>
10006080:	2300      	movs	r3, #0
10006082:	930d      	str	r3, [sp, #52]	; 0x34
10006084:	9a26      	ldr	r2, [sp, #152]	; 0x98
10006086:	9b0d      	ldr	r3, [sp, #52]	; 0x34
10006088:	429a      	cmp	r2, r3
1000608a:	dc00      	bgt.n	1000608e <_etoa+0xaa>
1000608c:	e19f      	b.n	100063ce <_etoa+0x3ea>
1000608e:	1ad0      	subs	r0, r2, r3
10006090:	1e43      	subs	r3, r0, #1
10006092:	9326      	str	r3, [sp, #152]	; 0x98
10006094:	2380      	movs	r3, #128	; 0x80
10006096:	9a28      	ldr	r2, [sp, #160]	; 0xa0
10006098:	00db      	lsls	r3, r3, #3
1000609a:	431a      	orrs	r2, r3
1000609c:	2300      	movs	r3, #0
1000609e:	2700      	movs	r7, #0
100060a0:	9228      	str	r2, [sp, #160]	; 0xa0
100060a2:	930d      	str	r3, [sp, #52]	; 0x34
100060a4:	9b27      	ldr	r3, [sp, #156]	; 0x9c
100060a6:	2400      	movs	r4, #0
100060a8:	42bb      	cmp	r3, r7
100060aa:	d900      	bls.n	100060ae <_etoa+0xca>
100060ac:	1bdc      	subs	r4, r3, r7
100060ae:	2302      	movs	r3, #2
100060b0:	9a28      	ldr	r2, [sp, #160]	; 0xa0
100060b2:	401a      	ands	r2, r3
100060b4:	920e      	str	r2, [sp, #56]	; 0x38
100060b6:	9a28      	ldr	r2, [sp, #160]	; 0xa0
100060b8:	4213      	tst	r3, r2
100060ba:	d003      	beq.n	100060c4 <_etoa+0xe0>
100060bc:	427b      	negs	r3, r7
100060be:	417b      	adcs	r3, r7
100060c0:	425b      	negs	r3, r3
100060c2:	401c      	ands	r4, r3
100060c4:	9b0d      	ldr	r3, [sp, #52]	; 0x34
100060c6:	2b00      	cmp	r3, #0
100060c8:	d007      	beq.n	100060da <_etoa+0xf6>
100060ca:	980a      	ldr	r0, [sp, #40]	; 0x28
100060cc:	9909      	ldr	r1, [sp, #36]	; 0x24
100060ce:	002a      	movs	r2, r5
100060d0:	0033      	movs	r3, r6
100060d2:	f001 fbf2 	bl	100078ba <__wrap___aeabi_ddiv>
100060d6:	900a      	str	r0, [sp, #40]	; 0x28
100060d8:	9109      	str	r1, [sp, #36]	; 0x24
100060da:	2200      	movs	r2, #0
100060dc:	2300      	movs	r3, #0
100060de:	4640      	mov	r0, r8
100060e0:	4651      	mov	r1, sl
100060e2:	f001 fc4b 	bl	1000797c <__wrap___aeabi_dcmplt>
100060e6:	2800      	cmp	r0, #0
100060e8:	d005      	beq.n	100060f6 <_etoa+0x112>
100060ea:	2080      	movs	r0, #128	; 0x80
100060ec:	0600      	lsls	r0, r0, #24
100060ee:	4684      	mov	ip, r0
100060f0:	9909      	ldr	r1, [sp, #36]	; 0x24
100060f2:	4461      	add	r1, ip
100060f4:	9109      	str	r1, [sp, #36]	; 0x24
100060f6:	9a28      	ldr	r2, [sp, #160]	; 0xa0
100060f8:	4b41      	ldr	r3, [pc, #260]	; (10006200 <_etoa+0x21c>)
100060fa:	9d0b      	ldr	r5, [sp, #44]	; 0x2c
100060fc:	4013      	ands	r3, r2
100060fe:	9304      	str	r3, [sp, #16]
10006100:	9b26      	ldr	r3, [sp, #152]	; 0x98
10006102:	9a0a      	ldr	r2, [sp, #40]	; 0x28
10006104:	9302      	str	r3, [sp, #8]
10006106:	9b09      	ldr	r3, [sp, #36]	; 0x24
10006108:	9403      	str	r4, [sp, #12]
1000610a:	9200      	str	r2, [sp, #0]
1000610c:	9301      	str	r3, [sp, #4]
1000610e:	4649      	mov	r1, r9
10006110:	465b      	mov	r3, fp
10006112:	0028      	movs	r0, r5
10006114:	9a0c      	ldr	r2, [sp, #48]	; 0x30
10006116:	f000 f98b 	bl	10006430 <_ftoa>
1000611a:	0004      	movs	r4, r0
1000611c:	2f00      	cmp	r7, #0
1000611e:	d062      	beq.n	100061e6 <_etoa+0x202>
10006120:	9b28      	ldr	r3, [sp, #160]	; 0xa0
10006122:	0022      	movs	r2, r4
10006124:	0698      	lsls	r0, r3, #26
10006126:	231f      	movs	r3, #31
10006128:	17c0      	asrs	r0, r0, #31
1000612a:	4398      	bics	r0, r3
1000612c:	1c63      	adds	r3, r4, #1
1000612e:	4698      	mov	r8, r3
10006130:	4649      	mov	r1, r9
10006132:	465b      	mov	r3, fp
10006134:	3065      	adds	r0, #101	; 0x65
10006136:	47a8      	blx	r5
10006138:	9b0d      	ldr	r3, [sp, #52]	; 0x34
1000613a:	2500      	movs	r5, #0
1000613c:	17da      	asrs	r2, r3, #31
1000613e:	189c      	adds	r4, r3, r2
10006140:	0fdb      	lsrs	r3, r3, #31
10006142:	469a      	mov	sl, r3
10006144:	4054      	eors	r4, r2
10006146:	3f01      	subs	r7, #1
10006148:	e001      	b.n	1000614e <_etoa+0x16a>
1000614a:	2d20      	cmp	r5, #32
1000614c:	d013      	beq.n	10006176 <_etoa+0x192>
1000614e:	aa0a      	add	r2, sp, #40	; 0x28
10006150:	4694      	mov	ip, r2
10006152:	231f      	movs	r3, #31
10006154:	0020      	movs	r0, r4
10006156:	4463      	add	r3, ip
10006158:	210a      	movs	r1, #10
1000615a:	3501      	adds	r5, #1
1000615c:	195e      	adds	r6, r3, r5
1000615e:	f001 f957 	bl	10007410 <__wrap___aeabi_uidiv>
10006162:	3130      	adds	r1, #48	; 0x30
10006164:	7031      	strb	r1, [r6, #0]
10006166:	0020      	movs	r0, r4
10006168:	210a      	movs	r1, #10
1000616a:	f001 f951 	bl	10007410 <__wrap___aeabi_uidiv>
1000616e:	0026      	movs	r6, r4
10006170:	0004      	movs	r4, r0
10006172:	2e09      	cmp	r6, #9
10006174:	d8e9      	bhi.n	1000614a <_etoa+0x166>
10006176:	2305      	movs	r3, #5
10006178:	9306      	str	r3, [sp, #24]
1000617a:	2300      	movs	r3, #0
1000617c:	9304      	str	r3, [sp, #16]
1000617e:	330a      	adds	r3, #10
10006180:	9303      	str	r3, [sp, #12]
10006182:	4653      	mov	r3, sl
10006184:	9705      	str	r7, [sp, #20]
10006186:	9f0b      	ldr	r7, [sp, #44]	; 0x2c
10006188:	9302      	str	r3, [sp, #8]
1000618a:	ab12      	add	r3, sp, #72	; 0x48
1000618c:	9300      	str	r3, [sp, #0]
1000618e:	4642      	mov	r2, r8
10006190:	465b      	mov	r3, fp
10006192:	4649      	mov	r1, r9
10006194:	0038      	movs	r0, r7
10006196:	9501      	str	r5, [sp, #4]
10006198:	f7ff fe36 	bl	10005e08 <_ntoa_format>
1000619c:	9b0e      	ldr	r3, [sp, #56]	; 0x38
1000619e:	0004      	movs	r4, r0
100061a0:	2b00      	cmp	r3, #0
100061a2:	d020      	beq.n	100061e6 <_etoa+0x202>
100061a4:	9b0c      	ldr	r3, [sp, #48]	; 0x30
100061a6:	1ac5      	subs	r5, r0, r3
100061a8:	9b27      	ldr	r3, [sp, #156]	; 0x9c
100061aa:	42ab      	cmp	r3, r5
100061ac:	d91b      	bls.n	100061e6 <_etoa+0x202>
100061ae:	001e      	movs	r6, r3
100061b0:	0022      	movs	r2, r4
100061b2:	465b      	mov	r3, fp
100061b4:	4649      	mov	r1, r9
100061b6:	2020      	movs	r0, #32
100061b8:	3501      	adds	r5, #1
100061ba:	47b8      	blx	r7
100061bc:	3401      	adds	r4, #1
100061be:	42ae      	cmp	r6, r5
100061c0:	d8f6      	bhi.n	100061b0 <_etoa+0x1cc>
100061c2:	e010      	b.n	100061e6 <_etoa+0x202>
100061c4:	9b28      	ldr	r3, [sp, #160]	; 0xa0
100061c6:	4642      	mov	r2, r8
100061c8:	9304      	str	r3, [sp, #16]
100061ca:	9b27      	ldr	r3, [sp, #156]	; 0x9c
100061cc:	4649      	mov	r1, r9
100061ce:	9303      	str	r3, [sp, #12]
100061d0:	9b26      	ldr	r3, [sp, #152]	; 0x98
100061d2:	980b      	ldr	r0, [sp, #44]	; 0x2c
100061d4:	9302      	str	r3, [sp, #8]
100061d6:	4653      	mov	r3, sl
100061d8:	9200      	str	r2, [sp, #0]
100061da:	9301      	str	r3, [sp, #4]
100061dc:	465b      	mov	r3, fp
100061de:	9a0c      	ldr	r2, [sp, #48]	; 0x30
100061e0:	f000 f926 	bl	10006430 <_ftoa>
100061e4:	0004      	movs	r4, r0
100061e6:	0020      	movs	r0, r4
100061e8:	b01b      	add	sp, #108	; 0x6c
100061ea:	bcf0      	pop	{r4, r5, r6, r7}
100061ec:	46bb      	mov	fp, r7
100061ee:	46b2      	mov	sl, r6
100061f0:	46a9      	mov	r9, r5
100061f2:	46a0      	mov	r8, r4
100061f4:	bdf0      	pop	{r4, r5, r6, r7, pc}
100061f6:	46c0      	nop			; (mov r8, r8)
100061f8:	7fefffff 	.word	0x7fefffff
100061fc:	ffefffff 	.word	0xffefffff
10006200:	fffff7ff 	.word	0xfffff7ff
10006204:	4b73      	ldr	r3, [pc, #460]	; (100063d4 <_etoa+0x3f0>)
10006206:	9f09      	ldr	r7, [sp, #36]	; 0x24
10006208:	469c      	mov	ip, r3
1000620a:	0078      	lsls	r0, r7, #1
1000620c:	0d40      	lsrs	r0, r0, #21
1000620e:	4460      	add	r0, ip
10006210:	f001 fbe2 	bl	100079d8 <__wrap___aeabi_i2d>
10006214:	4a70      	ldr	r2, [pc, #448]	; (100063d8 <_etoa+0x3f4>)
10006216:	4b71      	ldr	r3, [pc, #452]	; (100063dc <_etoa+0x3f8>)
10006218:	f001 fb6d 	bl	100078f6 <__wrap___aeabi_dmul>
1000621c:	4a70      	ldr	r2, [pc, #448]	; (100063e0 <_etoa+0x3fc>)
1000621e:	4b71      	ldr	r3, [pc, #452]	; (100063e4 <_etoa+0x400>)
10006220:	f001 fb42 	bl	100078a8 <__wrap___aeabi_dadd>
10006224:	033b      	lsls	r3, r7, #12
10006226:	4a70      	ldr	r2, [pc, #448]	; (100063e8 <_etoa+0x404>)
10006228:	0b1b      	lsrs	r3, r3, #12
1000622a:	431a      	orrs	r2, r3
1000622c:	0004      	movs	r4, r0
1000622e:	000d      	movs	r5, r1
10006230:	0030      	movs	r0, r6
10006232:	0011      	movs	r1, r2
10006234:	4b6d      	ldr	r3, [pc, #436]	; (100063ec <_etoa+0x408>)
10006236:	2200      	movs	r2, #0
10006238:	f001 fb2d 	bl	10007896 <__wrap___aeabi_dsub>
1000623c:	4a6c      	ldr	r2, [pc, #432]	; (100063f0 <_etoa+0x40c>)
1000623e:	4b6d      	ldr	r3, [pc, #436]	; (100063f4 <_etoa+0x410>)
10006240:	f001 fb59 	bl	100078f6 <__wrap___aeabi_dmul>
10006244:	0002      	movs	r2, r0
10006246:	000b      	movs	r3, r1
10006248:	0020      	movs	r0, r4
1000624a:	0029      	movs	r1, r5
1000624c:	f001 fb2c 	bl	100078a8 <__wrap___aeabi_dadd>
10006250:	f001 fbda 	bl	10007a08 <__wrap___aeabi_d2iz>
10006254:	900d      	str	r0, [sp, #52]	; 0x34
10006256:	f001 fbbf 	bl	100079d8 <__wrap___aeabi_i2d>
1000625a:	4a67      	ldr	r2, [pc, #412]	; (100063f8 <_etoa+0x414>)
1000625c:	4b67      	ldr	r3, [pc, #412]	; (100063fc <_etoa+0x418>)
1000625e:	0004      	movs	r4, r0
10006260:	000d      	movs	r5, r1
10006262:	f001 fb48 	bl	100078f6 <__wrap___aeabi_dmul>
10006266:	2200      	movs	r2, #0
10006268:	4b65      	ldr	r3, [pc, #404]	; (10006400 <_etoa+0x41c>)
1000626a:	f001 fb1d 	bl	100078a8 <__wrap___aeabi_dadd>
1000626e:	f001 fbcb 	bl	10007a08 <__wrap___aeabi_d2iz>
10006272:	4a64      	ldr	r2, [pc, #400]	; (10006404 <_etoa+0x420>)
10006274:	0006      	movs	r6, r0
10006276:	4b64      	ldr	r3, [pc, #400]	; (10006408 <_etoa+0x424>)
10006278:	0020      	movs	r0, r4
1000627a:	0029      	movs	r1, r5
1000627c:	f001 fb3b 	bl	100078f6 <__wrap___aeabi_dmul>
10006280:	0004      	movs	r4, r0
10006282:	0030      	movs	r0, r6
10006284:	000d      	movs	r5, r1
10006286:	960f      	str	r6, [sp, #60]	; 0x3c
10006288:	f001 fba6 	bl	100079d8 <__wrap___aeabi_i2d>
1000628c:	4a5f      	ldr	r2, [pc, #380]	; (1000640c <_etoa+0x428>)
1000628e:	4b60      	ldr	r3, [pc, #384]	; (10006410 <_etoa+0x42c>)
10006290:	f001 fb31 	bl	100078f6 <__wrap___aeabi_dmul>
10006294:	0002      	movs	r2, r0
10006296:	000b      	movs	r3, r1
10006298:	0020      	movs	r0, r4
1000629a:	0029      	movs	r1, r5
1000629c:	f001 fafb 	bl	10007896 <__wrap___aeabi_dsub>
100062a0:	0002      	movs	r2, r0
100062a2:	000b      	movs	r3, r1
100062a4:	0006      	movs	r6, r0
100062a6:	000f      	movs	r7, r1
100062a8:	f001 fb25 	bl	100078f6 <__wrap___aeabi_dmul>
100062ac:	0032      	movs	r2, r6
100062ae:	0004      	movs	r4, r0
100062b0:	000d      	movs	r5, r1
100062b2:	003b      	movs	r3, r7
100062b4:	0030      	movs	r0, r6
100062b6:	0039      	movs	r1, r7
100062b8:	f001 faf6 	bl	100078a8 <__wrap___aeabi_dadd>
100062bc:	2200      	movs	r2, #0
100062be:	9010      	str	r0, [sp, #64]	; 0x40
100062c0:	9111      	str	r1, [sp, #68]	; 0x44
100062c2:	4b54      	ldr	r3, [pc, #336]	; (10006414 <_etoa+0x430>)
100062c4:	0020      	movs	r0, r4
100062c6:	0029      	movs	r1, r5
100062c8:	f001 faf7 	bl	100078ba <__wrap___aeabi_ddiv>
100062cc:	2200      	movs	r2, #0
100062ce:	4b52      	ldr	r3, [pc, #328]	; (10006418 <_etoa+0x434>)
100062d0:	f001 faea 	bl	100078a8 <__wrap___aeabi_dadd>
100062d4:	0002      	movs	r2, r0
100062d6:	000b      	movs	r3, r1
100062d8:	0020      	movs	r0, r4
100062da:	0029      	movs	r1, r5
100062dc:	f001 faed 	bl	100078ba <__wrap___aeabi_ddiv>
100062e0:	2200      	movs	r2, #0
100062e2:	4b4e      	ldr	r3, [pc, #312]	; (1000641c <_etoa+0x438>)
100062e4:	f001 fae0 	bl	100078a8 <__wrap___aeabi_dadd>
100062e8:	0002      	movs	r2, r0
100062ea:	000b      	movs	r3, r1
100062ec:	0020      	movs	r0, r4
100062ee:	0029      	movs	r1, r5
100062f0:	f001 fae3 	bl	100078ba <__wrap___aeabi_ddiv>
100062f4:	000d      	movs	r5, r1
100062f6:	2180      	movs	r1, #128	; 0x80
100062f8:	0004      	movs	r4, r0
100062fa:	0032      	movs	r2, r6
100062fc:	003b      	movs	r3, r7
100062fe:	2000      	movs	r0, #0
10006300:	05c9      	lsls	r1, r1, #23
10006302:	f001 fac8 	bl	10007896 <__wrap___aeabi_dsub>
10006306:	0002      	movs	r2, r0
10006308:	000b      	movs	r3, r1
1000630a:	0020      	movs	r0, r4
1000630c:	0029      	movs	r1, r5
1000630e:	f001 facb 	bl	100078a8 <__wrap___aeabi_dadd>
10006312:	0002      	movs	r2, r0
10006314:	000b      	movs	r3, r1
10006316:	9810      	ldr	r0, [sp, #64]	; 0x40
10006318:	9911      	ldr	r1, [sp, #68]	; 0x44
1000631a:	f001 face 	bl	100078ba <__wrap___aeabi_ddiv>
1000631e:	2200      	movs	r2, #0
10006320:	4b31      	ldr	r3, [pc, #196]	; (100063e8 <_etoa+0x404>)
10006322:	f001 fac1 	bl	100078a8 <__wrap___aeabi_dadd>
10006326:	4b3e      	ldr	r3, [pc, #248]	; (10006420 <_etoa+0x43c>)
10006328:	9c0f      	ldr	r4, [sp, #60]	; 0x3c
1000632a:	469c      	mov	ip, r3
1000632c:	4464      	add	r4, ip
1000632e:	2200      	movs	r2, #0
10006330:	0523      	lsls	r3, r4, #20
10006332:	f001 fae0 	bl	100078f6 <__wrap___aeabi_dmul>
10006336:	0005      	movs	r5, r0
10006338:	000e      	movs	r6, r1
1000633a:	0002      	movs	r2, r0
1000633c:	000b      	movs	r3, r1
1000633e:	980a      	ldr	r0, [sp, #40]	; 0x28
10006340:	9909      	ldr	r1, [sp, #36]	; 0x24
10006342:	f001 fb1b 	bl	1000797c <__wrap___aeabi_dcmplt>
10006346:	2800      	cmp	r0, #0
10006348:	d00a      	beq.n	10006360 <_etoa+0x37c>
1000634a:	9b0d      	ldr	r3, [sp, #52]	; 0x34
1000634c:	0028      	movs	r0, r5
1000634e:	3b01      	subs	r3, #1
10006350:	0031      	movs	r1, r6
10006352:	930d      	str	r3, [sp, #52]	; 0x34
10006354:	2200      	movs	r2, #0
10006356:	4b30      	ldr	r3, [pc, #192]	; (10006418 <_etoa+0x434>)
10006358:	f001 faaf 	bl	100078ba <__wrap___aeabi_ddiv>
1000635c:	0005      	movs	r5, r0
1000635e:	000e      	movs	r6, r1
10006360:	27c6      	movs	r7, #198	; 0xc6
10006362:	990d      	ldr	r1, [sp, #52]	; 0x34
10006364:	002b      	movs	r3, r5
10006366:	3163      	adds	r1, #99	; 0x63
10006368:	428f      	cmp	r7, r1
1000636a:	41bf      	sbcs	r7, r7
1000636c:	9928      	ldr	r1, [sp, #160]	; 0xa0
1000636e:	427f      	negs	r7, r7
10006370:	3704      	adds	r7, #4
10006372:	0509      	lsls	r1, r1, #20
10006374:	d400      	bmi.n	10006378 <_etoa+0x394>
10006376:	e695      	b.n	100060a4 <_etoa+0xc0>
10006378:	4333      	orrs	r3, r6
1000637a:	d100      	bne.n	1000637e <_etoa+0x39a>
1000637c:	e682      	b.n	10006084 <_etoa+0xa0>
1000637e:	9c09      	ldr	r4, [sp, #36]	; 0x24
10006380:	4a28      	ldr	r2, [pc, #160]	; (10006424 <_etoa+0x440>)
10006382:	0021      	movs	r1, r4
10006384:	4b28      	ldr	r3, [pc, #160]	; (10006428 <_etoa+0x444>)
10006386:	980a      	ldr	r0, [sp, #40]	; 0x28
10006388:	f001 fb06 	bl	10007998 <__wrap___aeabi_dcmpge>
1000638c:	2800      	cmp	r0, #0
1000638e:	d008      	beq.n	100063a2 <_etoa+0x3be>
10006390:	2200      	movs	r2, #0
10006392:	0021      	movs	r1, r4
10006394:	4b25      	ldr	r3, [pc, #148]	; (1000642c <_etoa+0x448>)
10006396:	980a      	ldr	r0, [sp, #40]	; 0x28
10006398:	f001 faf0 	bl	1000797c <__wrap___aeabi_dcmplt>
1000639c:	2800      	cmp	r0, #0
1000639e:	d000      	beq.n	100063a2 <_etoa+0x3be>
100063a0:	e670      	b.n	10006084 <_etoa+0xa0>
100063a2:	9b26      	ldr	r3, [sp, #152]	; 0x98
100063a4:	2b00      	cmp	r3, #0
100063a6:	d100      	bne.n	100063aa <_etoa+0x3c6>
100063a8:	e67c      	b.n	100060a4 <_etoa+0xc0>
100063aa:	9b0e      	ldr	r3, [sp, #56]	; 0x38
100063ac:	1e5a      	subs	r2, r3, #1
100063ae:	4193      	sbcs	r3, r2
100063b0:	9a26      	ldr	r2, [sp, #152]	; 0x98
100063b2:	1ad3      	subs	r3, r2, r3
100063b4:	9326      	str	r3, [sp, #152]	; 0x98
100063b6:	e675      	b.n	100060a4 <_etoa+0xc0>
100063b8:	2300      	movs	r3, #0
100063ba:	2704      	movs	r7, #4
100063bc:	930d      	str	r3, [sp, #52]	; 0x34
100063be:	e671      	b.n	100060a4 <_etoa+0xc0>
100063c0:	4643      	mov	r3, r8
100063c2:	930a      	str	r3, [sp, #40]	; 0x28
100063c4:	2380      	movs	r3, #128	; 0x80
100063c6:	061b      	lsls	r3, r3, #24
100063c8:	4453      	add	r3, sl
100063ca:	9309      	str	r3, [sp, #36]	; 0x24
100063cc:	e642      	b.n	10006054 <_etoa+0x70>
100063ce:	2300      	movs	r3, #0
100063d0:	9326      	str	r3, [sp, #152]	; 0x98
100063d2:	e65f      	b.n	10006094 <_etoa+0xb0>
100063d4:	fffffc01 	.word	0xfffffc01
100063d8:	509f79fb 	.word	0x509f79fb
100063dc:	3fd34413 	.word	0x3fd34413
100063e0:	8b60c8b3 	.word	0x8b60c8b3
100063e4:	3fc68a28 	.word	0x3fc68a28
100063e8:	3ff00000 	.word	0x3ff00000
100063ec:	3ff80000 	.word	0x3ff80000
100063f0:	636f4361 	.word	0x636f4361
100063f4:	3fd287a7 	.word	0x3fd287a7
100063f8:	0979a371 	.word	0x0979a371
100063fc:	400a934f 	.word	0x400a934f
10006400:	3fe00000 	.word	0x3fe00000
10006404:	bbb55516 	.word	0xbbb55516
10006408:	40026bb1 	.word	0x40026bb1
1000640c:	fefa39ef 	.word	0xfefa39ef
10006410:	3fe62e42 	.word	0x3fe62e42
10006414:	402c0000 	.word	0x402c0000
10006418:	40240000 	.word	0x40240000
1000641c:	40180000 	.word	0x40180000
10006420:	000003ff 	.word	0x000003ff
10006424:	eb1c432d 	.word	0xeb1c432d
10006428:	3f1a36e2 	.word	0x3f1a36e2
1000642c:	412e8480 	.word	0x412e8480

10006430 <_ftoa>:
10006430:	b5f0      	push	{r4, r5, r6, r7, lr}
10006432:	464e      	mov	r6, r9
10006434:	46de      	mov	lr, fp
10006436:	4657      	mov	r7, sl
10006438:	4645      	mov	r5, r8
1000643a:	b5e0      	push	{r5, r6, r7, lr}
1000643c:	b097      	sub	sp, #92	; 0x5c
1000643e:	4699      	mov	r9, r3
10006440:	9e20      	ldr	r6, [sp, #128]	; 0x80
10006442:	9f21      	ldr	r7, [sp, #132]	; 0x84
10006444:	9b22      	ldr	r3, [sp, #136]	; 0x88
10006446:	4683      	mov	fp, r0
10006448:	4698      	mov	r8, r3
1000644a:	9107      	str	r1, [sp, #28]
1000644c:	920c      	str	r2, [sp, #48]	; 0x30
1000644e:	003b      	movs	r3, r7
10006450:	0032      	movs	r2, r6
10006452:	0030      	movs	r0, r6
10006454:	0039      	movs	r1, r7
10006456:	f001 faac 	bl	100079b2 <__wrap___aeabi_dcmpun>
1000645a:	2800      	cmp	r0, #0
1000645c:	d000      	beq.n	10006460 <_ftoa+0x30>
1000645e:	e1a9      	b.n	100067b4 <_ftoa+0x384>
10006460:	2201      	movs	r2, #1
10006462:	0030      	movs	r0, r6
10006464:	0039      	movs	r1, r7
10006466:	4bca      	ldr	r3, [pc, #808]	; (10006790 <_ftoa+0x360>)
10006468:	4252      	negs	r2, r2
1000646a:	f001 fa87 	bl	1000797c <__wrap___aeabi_dcmplt>
1000646e:	2800      	cmp	r0, #0
10006470:	d000      	beq.n	10006474 <_ftoa+0x44>
10006472:	e0e1      	b.n	10006638 <_ftoa+0x208>
10006474:	2201      	movs	r2, #1
10006476:	0030      	movs	r0, r6
10006478:	0039      	movs	r1, r7
1000647a:	4bc6      	ldr	r3, [pc, #792]	; (10006794 <_ftoa+0x364>)
1000647c:	4252      	negs	r2, r2
1000647e:	f001 fa93 	bl	100079a8 <__wrap___aeabi_dcmpgt>
10006482:	2800      	cmp	r0, #0
10006484:	d000      	beq.n	10006488 <_ftoa+0x58>
10006486:	e0b7      	b.n	100065f8 <_ftoa+0x1c8>
10006488:	2200      	movs	r2, #0
1000648a:	0030      	movs	r0, r6
1000648c:	0039      	movs	r1, r7
1000648e:	4bc2      	ldr	r3, [pc, #776]	; (10006798 <_ftoa+0x368>)
10006490:	f001 fa8a 	bl	100079a8 <__wrap___aeabi_dcmpgt>
10006494:	2800      	cmp	r0, #0
10006496:	d000      	beq.n	1000649a <_ftoa+0x6a>
10006498:	e099      	b.n	100065ce <_ftoa+0x19e>
1000649a:	2200      	movs	r2, #0
1000649c:	0030      	movs	r0, r6
1000649e:	0039      	movs	r1, r7
100064a0:	4bbe      	ldr	r3, [pc, #760]	; (1000679c <_ftoa+0x36c>)
100064a2:	f001 fa6b 	bl	1000797c <__wrap___aeabi_dcmplt>
100064a6:	2800      	cmp	r0, #0
100064a8:	d000      	beq.n	100064ac <_ftoa+0x7c>
100064aa:	e090      	b.n	100065ce <_ftoa+0x19e>
100064ac:	2200      	movs	r2, #0
100064ae:	2300      	movs	r3, #0
100064b0:	0030      	movs	r0, r6
100064b2:	0039      	movs	r1, r7
100064b4:	f001 fa62 	bl	1000797c <__wrap___aeabi_dcmplt>
100064b8:	2800      	cmp	r0, #0
100064ba:	d000      	beq.n	100064be <_ftoa+0x8e>
100064bc:	e0b1      	b.n	10006622 <_ftoa+0x1f2>
100064be:	2300      	movs	r3, #0
100064c0:	930d      	str	r3, [sp, #52]	; 0x34
100064c2:	9b24      	ldr	r3, [sp, #144]	; 0x90
100064c4:	055b      	lsls	r3, r3, #21
100064c6:	d401      	bmi.n	100064cc <_ftoa+0x9c>
100064c8:	2306      	movs	r3, #6
100064ca:	4698      	mov	r8, r3
100064cc:	ab08      	add	r3, sp, #32
100064ce:	469c      	mov	ip, r3
100064d0:	2217      	movs	r2, #23
100064d2:	2400      	movs	r4, #0
100064d4:	2330      	movs	r3, #48	; 0x30
100064d6:	4641      	mov	r1, r8
100064d8:	4462      	add	r2, ip
100064da:	e004      	b.n	100064e6 <_ftoa+0xb6>
100064dc:	3401      	adds	r4, #1
100064de:	5513      	strb	r3, [r2, r4]
100064e0:	3901      	subs	r1, #1
100064e2:	2c20      	cmp	r4, #32
100064e4:	d001      	beq.n	100064ea <_ftoa+0xba>
100064e6:	2909      	cmp	r1, #9
100064e8:	d8f8      	bhi.n	100064dc <_ftoa+0xac>
100064ea:	4688      	mov	r8, r1
100064ec:	0030      	movs	r0, r6
100064ee:	0039      	movs	r1, r7
100064f0:	f001 fa8a 	bl	10007a08 <__wrap___aeabi_d2iz>
100064f4:	4643      	mov	r3, r8
100064f6:	00da      	lsls	r2, r3, #3
100064f8:	4ba9      	ldr	r3, [pc, #676]	; (100067a0 <_ftoa+0x370>)
100064fa:	0005      	movs	r5, r0
100064fc:	189b      	adds	r3, r3, r2
100064fe:	681a      	ldr	r2, [r3, #0]
10006500:	685b      	ldr	r3, [r3, #4]
10006502:	9208      	str	r2, [sp, #32]
10006504:	9309      	str	r3, [sp, #36]	; 0x24
10006506:	f001 fa67 	bl	100079d8 <__wrap___aeabi_i2d>
1000650a:	0002      	movs	r2, r0
1000650c:	000b      	movs	r3, r1
1000650e:	0030      	movs	r0, r6
10006510:	0039      	movs	r1, r7
10006512:	f001 f9c0 	bl	10007896 <__wrap___aeabi_dsub>
10006516:	9a08      	ldr	r2, [sp, #32]
10006518:	9b09      	ldr	r3, [sp, #36]	; 0x24
1000651a:	f001 f9ec 	bl	100078f6 <__wrap___aeabi_dmul>
1000651e:	900a      	str	r0, [sp, #40]	; 0x28
10006520:	910b      	str	r1, [sp, #44]	; 0x2c
10006522:	f001 fa95 	bl	10007a50 <__wrap___aeabi_d2uiz>
10006526:	4682      	mov	sl, r0
10006528:	f001 fa52 	bl	100079d0 <__wrap___aeabi_ui2d>
1000652c:	0002      	movs	r2, r0
1000652e:	000b      	movs	r3, r1
10006530:	980a      	ldr	r0, [sp, #40]	; 0x28
10006532:	990b      	ldr	r1, [sp, #44]	; 0x2c
10006534:	f001 f9af 	bl	10007896 <__wrap___aeabi_dsub>
10006538:	2200      	movs	r2, #0
1000653a:	4b9a      	ldr	r3, [pc, #616]	; (100067a4 <_ftoa+0x374>)
1000653c:	900a      	str	r0, [sp, #40]	; 0x28
1000653e:	910b      	str	r1, [sp, #44]	; 0x2c
10006540:	f001 fa32 	bl	100079a8 <__wrap___aeabi_dcmpgt>
10006544:	2800      	cmp	r0, #0
10006546:	d100      	bne.n	1000654a <_ftoa+0x11a>
10006548:	e0c0      	b.n	100066cc <_ftoa+0x29c>
1000654a:	2301      	movs	r3, #1
1000654c:	469c      	mov	ip, r3
1000654e:	44e2      	add	sl, ip
10006550:	4650      	mov	r0, sl
10006552:	f001 fa3d 	bl	100079d0 <__wrap___aeabi_ui2d>
10006556:	0002      	movs	r2, r0
10006558:	000b      	movs	r3, r1
1000655a:	9808      	ldr	r0, [sp, #32]
1000655c:	9909      	ldr	r1, [sp, #36]	; 0x24
1000655e:	f001 fa13 	bl	10007988 <__wrap___aeabi_dcmple>
10006562:	2800      	cmp	r0, #0
10006564:	d002      	beq.n	1000656c <_ftoa+0x13c>
10006566:	2300      	movs	r3, #0
10006568:	469a      	mov	sl, r3
1000656a:	3501      	adds	r5, #1
1000656c:	4643      	mov	r3, r8
1000656e:	2b00      	cmp	r3, #0
10006570:	d06a      	beq.n	10006648 <_ftoa+0x218>
10006572:	ab08      	add	r3, sp, #32
10006574:	2617      	movs	r6, #23
10006576:	469c      	mov	ip, r3
10006578:	9508      	str	r5, [sp, #32]
1000657a:	4466      	add	r6, ip
1000657c:	4655      	mov	r5, sl
1000657e:	e014      	b.n	100065aa <_ftoa+0x17a>
10006580:	2301      	movs	r3, #1
10006582:	425b      	negs	r3, r3
10006584:	4443      	add	r3, r8
10006586:	210a      	movs	r1, #10
10006588:	0028      	movs	r0, r5
1000658a:	469a      	mov	sl, r3
1000658c:	f000 ff40 	bl	10007410 <__wrap___aeabi_uidiv>
10006590:	3401      	adds	r4, #1
10006592:	3130      	adds	r1, #48	; 0x30
10006594:	1937      	adds	r7, r6, r4
10006596:	7039      	strb	r1, [r7, #0]
10006598:	0028      	movs	r0, r5
1000659a:	210a      	movs	r1, #10
1000659c:	f000 ff38 	bl	10007410 <__wrap___aeabi_uidiv>
100065a0:	2d09      	cmp	r5, #9
100065a2:	d800      	bhi.n	100065a6 <_ftoa+0x176>
100065a4:	e0d0      	b.n	10006748 <_ftoa+0x318>
100065a6:	46d0      	mov	r8, sl
100065a8:	0005      	movs	r5, r0
100065aa:	2c20      	cmp	r4, #32
100065ac:	d1e8      	bne.n	10006580 <_ftoa+0x150>
100065ae:	ab0e      	add	r3, sp, #56	; 0x38
100065b0:	4698      	mov	r8, r3
100065b2:	2303      	movs	r3, #3
100065b4:	9a24      	ldr	r2, [sp, #144]	; 0x90
100065b6:	4013      	ands	r3, r2
100065b8:	2b01      	cmp	r3, #1
100065ba:	d100      	bne.n	100065be <_ftoa+0x18e>
100065bc:	e096      	b.n	100066ec <_ftoa+0x2bc>
100065be:	2320      	movs	r3, #32
100065c0:	9a24      	ldr	r2, [sp, #144]	; 0x90
100065c2:	9301      	str	r3, [sp, #4]
100065c4:	9203      	str	r2, [sp, #12]
100065c6:	9a23      	ldr	r2, [sp, #140]	; 0x8c
100065c8:	4643      	mov	r3, r8
100065ca:	9202      	str	r2, [sp, #8]
100065cc:	e01e      	b.n	1000660c <_ftoa+0x1dc>
100065ce:	9b24      	ldr	r3, [sp, #144]	; 0x90
100065d0:	4658      	mov	r0, fp
100065d2:	9304      	str	r3, [sp, #16]
100065d4:	9b23      	ldr	r3, [sp, #140]	; 0x8c
100065d6:	9600      	str	r6, [sp, #0]
100065d8:	9701      	str	r7, [sp, #4]
100065da:	9303      	str	r3, [sp, #12]
100065dc:	4643      	mov	r3, r8
100065de:	9a0c      	ldr	r2, [sp, #48]	; 0x30
100065e0:	9302      	str	r3, [sp, #8]
100065e2:	9907      	ldr	r1, [sp, #28]
100065e4:	464b      	mov	r3, r9
100065e6:	f7ff fcfd 	bl	10005fe4 <_etoa>
100065ea:	b017      	add	sp, #92	; 0x5c
100065ec:	bcf0      	pop	{r4, r5, r6, r7}
100065ee:	46bb      	mov	fp, r7
100065f0:	46b2      	mov	sl, r6
100065f2:	46a9      	mov	r9, r5
100065f4:	46a0      	mov	r8, r4
100065f6:	bdf0      	pop	{r4, r5, r6, r7, pc}
100065f8:	9b24      	ldr	r3, [sp, #144]	; 0x90
100065fa:	075b      	lsls	r3, r3, #29
100065fc:	d40e      	bmi.n	1000661c <_ftoa+0x1ec>
100065fe:	2203      	movs	r2, #3
10006600:	4b69      	ldr	r3, [pc, #420]	; (100067a8 <_ftoa+0x378>)
10006602:	9924      	ldr	r1, [sp, #144]	; 0x90
10006604:	9201      	str	r2, [sp, #4]
10006606:	9103      	str	r1, [sp, #12]
10006608:	9923      	ldr	r1, [sp, #140]	; 0x8c
1000660a:	9102      	str	r1, [sp, #8]
1000660c:	9300      	str	r3, [sp, #0]
1000660e:	4658      	mov	r0, fp
10006610:	464b      	mov	r3, r9
10006612:	9a0c      	ldr	r2, [sp, #48]	; 0x30
10006614:	9907      	ldr	r1, [sp, #28]
10006616:	f7ff fba9 	bl	10005d6c <_out_rev>
1000661a:	e7e6      	b.n	100065ea <_ftoa+0x1ba>
1000661c:	2204      	movs	r2, #4
1000661e:	4b63      	ldr	r3, [pc, #396]	; (100067ac <_ftoa+0x37c>)
10006620:	e7ef      	b.n	10006602 <_ftoa+0x1d2>
10006622:	003b      	movs	r3, r7
10006624:	0032      	movs	r2, r6
10006626:	2000      	movs	r0, #0
10006628:	2100      	movs	r1, #0
1000662a:	f001 f934 	bl	10007896 <__wrap___aeabi_dsub>
1000662e:	2301      	movs	r3, #1
10006630:	0006      	movs	r6, r0
10006632:	000f      	movs	r7, r1
10006634:	930d      	str	r3, [sp, #52]	; 0x34
10006636:	e744      	b.n	100064c2 <_ftoa+0x92>
10006638:	9b24      	ldr	r3, [sp, #144]	; 0x90
1000663a:	9303      	str	r3, [sp, #12]
1000663c:	9b23      	ldr	r3, [sp, #140]	; 0x8c
1000663e:	9302      	str	r3, [sp, #8]
10006640:	2304      	movs	r3, #4
10006642:	9301      	str	r3, [sp, #4]
10006644:	4b5a      	ldr	r3, [pc, #360]	; (100067b0 <_ftoa+0x380>)
10006646:	e7e1      	b.n	1000660c <_ftoa+0x1dc>
10006648:	0028      	movs	r0, r5
1000664a:	f001 f9c5 	bl	100079d8 <__wrap___aeabi_i2d>
1000664e:	0002      	movs	r2, r0
10006650:	000b      	movs	r3, r1
10006652:	0030      	movs	r0, r6
10006654:	0039      	movs	r1, r7
10006656:	f001 f91e 	bl	10007896 <__wrap___aeabi_dsub>
1000665a:	4b52      	ldr	r3, [pc, #328]	; (100067a4 <_ftoa+0x374>)
1000665c:	2200      	movs	r2, #0
1000665e:	0006      	movs	r6, r0
10006660:	000f      	movs	r7, r1
10006662:	f001 f98b 	bl	1000797c <__wrap___aeabi_dcmplt>
10006666:	ab0e      	add	r3, sp, #56	; 0x38
10006668:	4698      	mov	r8, r3
1000666a:	2800      	cmp	r0, #0
1000666c:	d10a      	bne.n	10006684 <_ftoa+0x254>
1000666e:	2200      	movs	r2, #0
10006670:	0030      	movs	r0, r6
10006672:	0039      	movs	r1, r7
10006674:	4b4b      	ldr	r3, [pc, #300]	; (100067a4 <_ftoa+0x374>)
10006676:	f001 f997 	bl	100079a8 <__wrap___aeabi_dcmpgt>
1000667a:	2800      	cmp	r0, #0
1000667c:	d102      	bne.n	10006684 <_ftoa+0x254>
1000667e:	07eb      	lsls	r3, r5, #31
10006680:	d500      	bpl.n	10006684 <_ftoa+0x254>
10006682:	3501      	adds	r5, #1
10006684:	2c20      	cmp	r4, #32
10006686:	d094      	beq.n	100065b2 <_ftoa+0x182>
10006688:	aa08      	add	r2, sp, #32
1000668a:	4694      	mov	ip, r2
1000668c:	2317      	movs	r3, #23
1000668e:	0028      	movs	r0, r5
10006690:	4463      	add	r3, ip
10006692:	210a      	movs	r1, #10
10006694:	3401      	adds	r4, #1
10006696:	191e      	adds	r6, r3, r4
10006698:	f000 fe92 	bl	100073c0 <__wrap___aeabi_idiv>
1000669c:	3130      	adds	r1, #48	; 0x30
1000669e:	0028      	movs	r0, r5
100066a0:	7031      	strb	r1, [r6, #0]
100066a2:	210a      	movs	r1, #10
100066a4:	f000 fe8c 	bl	100073c0 <__wrap___aeabi_idiv>
100066a8:	1e05      	subs	r5, r0, #0
100066aa:	d1eb      	bne.n	10006684 <_ftoa+0x254>
100066ac:	2303      	movs	r3, #3
100066ae:	9a24      	ldr	r2, [sp, #144]	; 0x90
100066b0:	4013      	ands	r3, r2
100066b2:	2b01      	cmp	r3, #1
100066b4:	d01b      	beq.n	100066ee <_ftoa+0x2be>
100066b6:	2c20      	cmp	r4, #32
100066b8:	d100      	bne.n	100066bc <_ftoa+0x28c>
100066ba:	e780      	b.n	100065be <_ftoa+0x18e>
100066bc:	9b0d      	ldr	r3, [sp, #52]	; 0x34
100066be:	2b00      	cmp	r3, #0
100066c0:	d035      	beq.n	1000672e <_ftoa+0x2fe>
100066c2:	222d      	movs	r2, #45	; 0x2d
100066c4:	4641      	mov	r1, r8
100066c6:	1c63      	adds	r3, r4, #1
100066c8:	550a      	strb	r2, [r1, r4]
100066ca:	e779      	b.n	100065c0 <_ftoa+0x190>
100066cc:	2200      	movs	r2, #0
100066ce:	980a      	ldr	r0, [sp, #40]	; 0x28
100066d0:	990b      	ldr	r1, [sp, #44]	; 0x2c
100066d2:	4b34      	ldr	r3, [pc, #208]	; (100067a4 <_ftoa+0x374>)
100066d4:	f001 f952 	bl	1000797c <__wrap___aeabi_dcmplt>
100066d8:	2800      	cmp	r0, #0
100066da:	d000      	beq.n	100066de <_ftoa+0x2ae>
100066dc:	e746      	b.n	1000656c <_ftoa+0x13c>
100066de:	4653      	mov	r3, sl
100066e0:	2b00      	cmp	r3, #0
100066e2:	d151      	bne.n	10006788 <_ftoa+0x358>
100066e4:	2301      	movs	r3, #1
100066e6:	469c      	mov	ip, r3
100066e8:	44e2      	add	sl, ip
100066ea:	e73f      	b.n	1000656c <_ftoa+0x13c>
100066ec:	2420      	movs	r4, #32
100066ee:	9b23      	ldr	r3, [sp, #140]	; 0x8c
100066f0:	2b00      	cmp	r3, #0
100066f2:	d0e0      	beq.n	100066b6 <_ftoa+0x286>
100066f4:	9b0d      	ldr	r3, [sp, #52]	; 0x34
100066f6:	2b00      	cmp	r3, #0
100066f8:	d103      	bne.n	10006702 <_ftoa+0x2d2>
100066fa:	9a24      	ldr	r2, [sp, #144]	; 0x90
100066fc:	330c      	adds	r3, #12
100066fe:	4213      	tst	r3, r2
10006700:	d002      	beq.n	10006708 <_ftoa+0x2d8>
10006702:	9b23      	ldr	r3, [sp, #140]	; 0x8c
10006704:	3b01      	subs	r3, #1
10006706:	9323      	str	r3, [sp, #140]	; 0x8c
10006708:	9b23      	ldr	r3, [sp, #140]	; 0x8c
1000670a:	42a3      	cmp	r3, r4
1000670c:	d9d3      	bls.n	100066b6 <_ftoa+0x286>
1000670e:	ab08      	add	r3, sp, #32
10006710:	469c      	mov	ip, r3
10006712:	2217      	movs	r2, #23
10006714:	2330      	movs	r3, #48	; 0x30
10006716:	4462      	add	r2, ip
10006718:	2c20      	cmp	r4, #32
1000671a:	d100      	bne.n	1000671e <_ftoa+0x2ee>
1000671c:	e74f      	b.n	100065be <_ftoa+0x18e>
1000671e:	9923      	ldr	r1, [sp, #140]	; 0x8c
10006720:	3401      	adds	r4, #1
10006722:	5513      	strb	r3, [r2, r4]
10006724:	428c      	cmp	r4, r1
10006726:	d0c6      	beq.n	100066b6 <_ftoa+0x286>
10006728:	2c20      	cmp	r4, #32
1000672a:	d1f8      	bne.n	1000671e <_ftoa+0x2ee>
1000672c:	e747      	b.n	100065be <_ftoa+0x18e>
1000672e:	9b24      	ldr	r3, [sp, #144]	; 0x90
10006730:	075b      	lsls	r3, r3, #29
10006732:	d424      	bmi.n	1000677e <_ftoa+0x34e>
10006734:	9a24      	ldr	r2, [sp, #144]	; 0x90
10006736:	0023      	movs	r3, r4
10006738:	0712      	lsls	r2, r2, #28
1000673a:	d400      	bmi.n	1000673e <_ftoa+0x30e>
1000673c:	e740      	b.n	100065c0 <_ftoa+0x190>
1000673e:	2220      	movs	r2, #32
10006740:	4641      	mov	r1, r8
10006742:	3301      	adds	r3, #1
10006744:	550a      	strb	r2, [r1, r4]
10006746:	e73b      	b.n	100065c0 <_ftoa+0x190>
10006748:	4657      	mov	r7, sl
1000674a:	9d08      	ldr	r5, [sp, #32]
1000674c:	2c20      	cmp	r4, #32
1000674e:	d100      	bne.n	10006752 <_ftoa+0x322>
10006750:	e72d      	b.n	100065ae <_ftoa+0x17e>
10006752:	0022      	movs	r2, r4
10006754:	2130      	movs	r1, #48	; 0x30
10006756:	4640      	mov	r0, r8
10006758:	2f00      	cmp	r7, #0
1000675a:	d009      	beq.n	10006770 <_ftoa+0x340>
1000675c:	3201      	adds	r2, #1
1000675e:	54b1      	strb	r1, [r6, r2]
10006760:	2a20      	cmp	r2, #32
10006762:	d100      	bne.n	10006766 <_ftoa+0x336>
10006764:	e723      	b.n	100065ae <_ftoa+0x17e>
10006766:	43d3      	mvns	r3, r2
10006768:	191b      	adds	r3, r3, r4
1000676a:	181b      	adds	r3, r3, r0
1000676c:	2b00      	cmp	r3, #0
1000676e:	d1f5      	bne.n	1000675c <_ftoa+0x32c>
10006770:	ab0e      	add	r3, sp, #56	; 0x38
10006772:	4698      	mov	r8, r3
10006774:	232e      	movs	r3, #46	; 0x2e
10006776:	4641      	mov	r1, r8
10006778:	1c54      	adds	r4, r2, #1
1000677a:	548b      	strb	r3, [r1, r2]
1000677c:	e782      	b.n	10006684 <_ftoa+0x254>
1000677e:	222b      	movs	r2, #43	; 0x2b
10006780:	4641      	mov	r1, r8
10006782:	1c63      	adds	r3, r4, #1
10006784:	550a      	strb	r2, [r1, r4]
10006786:	e71b      	b.n	100065c0 <_ftoa+0x190>
10006788:	07db      	lsls	r3, r3, #31
1000678a:	d400      	bmi.n	1000678e <_ftoa+0x35e>
1000678c:	e6ee      	b.n	1000656c <_ftoa+0x13c>
1000678e:	e7a9      	b.n	100066e4 <_ftoa+0x2b4>
10006790:	ffefffff 	.word	0xffefffff
10006794:	7fefffff 	.word	0x7fefffff
10006798:	41cdcd65 	.word	0x41cdcd65
1000679c:	c1cdcd65 	.word	0xc1cdcd65
100067a0:	10012b08 	.word	0x10012b08
100067a4:	3fe00000 	.word	0x3fe00000
100067a8:	10012910 	.word	0x10012910
100067ac:	10012914 	.word	0x10012914
100067b0:	10012920 	.word	0x10012920
100067b4:	9b24      	ldr	r3, [sp, #144]	; 0x90
100067b6:	9303      	str	r3, [sp, #12]
100067b8:	9b23      	ldr	r3, [sp, #140]	; 0x8c
100067ba:	9302      	str	r3, [sp, #8]
100067bc:	2303      	movs	r3, #3
100067be:	9301      	str	r3, [sp, #4]
100067c0:	4b00      	ldr	r3, [pc, #0]	; (100067c4 <_ftoa+0x394>)
100067c2:	e723      	b.n	1000660c <_ftoa+0x1dc>
100067c4:	1001291c 	.word	0x1001291c

100067c8 <_vsnprintf>:
100067c8:	b5f0      	push	{r4, r5, r6, r7, lr}
100067ca:	46de      	mov	lr, fp
100067cc:	464e      	mov	r6, r9
100067ce:	4657      	mov	r7, sl
100067d0:	4645      	mov	r5, r8
100067d2:	b5e0      	push	{r5, r6, r7, lr}
100067d4:	b09f      	sub	sp, #124	; 0x7c
100067d6:	001c      	movs	r4, r3
100067d8:	9b28      	ldr	r3, [sp, #160]	; 0xa0
100067da:	4691      	mov	r9, r2
100067dc:	9309      	str	r3, [sp, #36]	; 0x24
100067de:	4ac9      	ldr	r2, [pc, #804]	; (10006b04 <_vsnprintf+0x33c>)
100067e0:	4bc9      	ldr	r3, [pc, #804]	; (10006b08 <_vsnprintf+0x340>)
100067e2:	468b      	mov	fp, r1
100067e4:	9008      	str	r0, [sp, #32]
100067e6:	601a      	str	r2, [r3, #0]
100067e8:	2900      	cmp	r1, #0
100067ea:	d100      	bne.n	100067ee <_vsnprintf+0x26>
100067ec:	e218      	b.n	10006c20 <_vsnprintf+0x458>
100067ee:	2300      	movs	r3, #0
100067f0:	7820      	ldrb	r0, [r4, #0]
100067f2:	469a      	mov	sl, r3
100067f4:	2800      	cmp	r0, #0
100067f6:	d100      	bne.n	100067fa <_vsnprintf+0x32>
100067f8:	e21a      	b.n	10006c30 <_vsnprintf+0x468>
100067fa:	0026      	movs	r6, r4
100067fc:	001d      	movs	r5, r3
100067fe:	465c      	mov	r4, fp
10006800:	e00a      	b.n	10006818 <_vsnprintf+0x50>
10006802:	002a      	movs	r2, r5
10006804:	1c6f      	adds	r7, r5, #1
10006806:	464b      	mov	r3, r9
10006808:	9d08      	ldr	r5, [sp, #32]
1000680a:	0021      	movs	r1, r4
1000680c:	47a8      	blx	r5
1000680e:	003d      	movs	r5, r7
10006810:	3601      	adds	r6, #1
10006812:	7830      	ldrb	r0, [r6, #0]
10006814:	2800      	cmp	r0, #0
10006816:	d070      	beq.n	100068fa <_vsnprintf+0x132>
10006818:	2825      	cmp	r0, #37	; 0x25
1000681a:	d1f2      	bne.n	10006802 <_vsnprintf+0x3a>
1000681c:	2310      	movs	r3, #16
1000681e:	469b      	mov	fp, r3
10006820:	3b08      	subs	r3, #8
10006822:	469a      	mov	sl, r3
10006824:	3b04      	subs	r3, #4
10006826:	4698      	mov	r8, r3
10006828:	3b02      	subs	r3, #2
1000682a:	2100      	movs	r1, #0
1000682c:	469c      	mov	ip, r3
1000682e:	1c72      	adds	r2, r6, #1
10006830:	7810      	ldrb	r0, [r2, #0]
10006832:	0016      	movs	r6, r2
10006834:	0003      	movs	r3, r0
10006836:	3b20      	subs	r3, #32
10006838:	b2db      	uxtb	r3, r3
1000683a:	2b10      	cmp	r3, #16
1000683c:	d803      	bhi.n	10006846 <_vsnprintf+0x7e>
1000683e:	4fb3      	ldr	r7, [pc, #716]	; (10006b0c <_vsnprintf+0x344>)
10006840:	009b      	lsls	r3, r3, #2
10006842:	58fb      	ldr	r3, [r7, r3]
10006844:	469f      	mov	pc, r3
10006846:	0003      	movs	r3, r0
10006848:	3b30      	subs	r3, #48	; 0x30
1000684a:	2b09      	cmp	r3, #9
1000684c:	d932      	bls.n	100068b4 <_vsnprintf+0xec>
1000684e:	2300      	movs	r3, #0
10006850:	930a      	str	r3, [sp, #40]	; 0x28
10006852:	282a      	cmp	r0, #42	; 0x2a
10006854:	d068      	beq.n	10006928 <_vsnprintf+0x160>
10006856:	2300      	movs	r3, #0
10006858:	4698      	mov	r8, r3
1000685a:	282e      	cmp	r0, #46	; 0x2e
1000685c:	d03e      	beq.n	100068dc <_vsnprintf+0x114>
1000685e:	0003      	movs	r3, r0
10006860:	3b68      	subs	r3, #104	; 0x68
10006862:	b2db      	uxtb	r3, r3
10006864:	2b12      	cmp	r3, #18
10006866:	d81c      	bhi.n	100068a2 <_vsnprintf+0xda>
10006868:	4aa9      	ldr	r2, [pc, #676]	; (10006b10 <_vsnprintf+0x348>)
1000686a:	009b      	lsls	r3, r3, #2
1000686c:	58d3      	ldr	r3, [r2, r3]
1000686e:	469f      	mov	pc, r3
10006870:	2301      	movs	r3, #1
10006872:	3201      	adds	r2, #1
10006874:	4319      	orrs	r1, r3
10006876:	e7db      	b.n	10006830 <_vsnprintf+0x68>
10006878:	4663      	mov	r3, ip
1000687a:	3201      	adds	r2, #1
1000687c:	4319      	orrs	r1, r3
1000687e:	e7d7      	b.n	10006830 <_vsnprintf+0x68>
10006880:	4643      	mov	r3, r8
10006882:	3201      	adds	r2, #1
10006884:	4319      	orrs	r1, r3
10006886:	e7d3      	b.n	10006830 <_vsnprintf+0x68>
10006888:	465b      	mov	r3, fp
1000688a:	3201      	adds	r2, #1
1000688c:	4319      	orrs	r1, r3
1000688e:	e7cf      	b.n	10006830 <_vsnprintf+0x68>
10006890:	4653      	mov	r3, sl
10006892:	3201      	adds	r2, #1
10006894:	4319      	orrs	r1, r3
10006896:	e7cb      	b.n	10006830 <_vsnprintf+0x68>
10006898:	2380      	movs	r3, #128	; 0x80
1000689a:	005b      	lsls	r3, r3, #1
1000689c:	7870      	ldrb	r0, [r6, #1]
1000689e:	4319      	orrs	r1, r3
100068a0:	3601      	adds	r6, #1
100068a2:	0003      	movs	r3, r0
100068a4:	3b25      	subs	r3, #37	; 0x25
100068a6:	b2db      	uxtb	r3, r3
100068a8:	2b53      	cmp	r3, #83	; 0x53
100068aa:	d8aa      	bhi.n	10006802 <_vsnprintf+0x3a>
100068ac:	4a99      	ldr	r2, [pc, #612]	; (10006b14 <_vsnprintf+0x34c>)
100068ae:	009b      	lsls	r3, r3, #2
100068b0:	58d3      	ldr	r3, [r2, r3]
100068b2:	469f      	mov	pc, r3
100068b4:	2700      	movs	r7, #0
100068b6:	0003      	movs	r3, r0
100068b8:	00b8      	lsls	r0, r7, #2
100068ba:	19c0      	adds	r0, r0, r7
100068bc:	3601      	adds	r6, #1
100068be:	0040      	lsls	r0, r0, #1
100068c0:	18c0      	adds	r0, r0, r3
100068c2:	7833      	ldrb	r3, [r6, #0]
100068c4:	3830      	subs	r0, #48	; 0x30
100068c6:	001a      	movs	r2, r3
100068c8:	3a30      	subs	r2, #48	; 0x30
100068ca:	0007      	movs	r7, r0
100068cc:	2a09      	cmp	r2, #9
100068ce:	d9f3      	bls.n	100068b8 <_vsnprintf+0xf0>
100068d0:	900a      	str	r0, [sp, #40]	; 0x28
100068d2:	0018      	movs	r0, r3
100068d4:	2300      	movs	r3, #0
100068d6:	4698      	mov	r8, r3
100068d8:	282e      	cmp	r0, #46	; 0x2e
100068da:	d1c0      	bne.n	1000685e <_vsnprintf+0x96>
100068dc:	2380      	movs	r3, #128	; 0x80
100068de:	7870      	ldrb	r0, [r6, #1]
100068e0:	00db      	lsls	r3, r3, #3
100068e2:	4319      	orrs	r1, r3
100068e4:	0003      	movs	r3, r0
100068e6:	3b30      	subs	r3, #48	; 0x30
100068e8:	1c72      	adds	r2, r6, #1
100068ea:	2b09      	cmp	r3, #9
100068ec:	d800      	bhi.n	100068f0 <_vsnprintf+0x128>
100068ee:	e1a1      	b.n	10006c34 <_vsnprintf+0x46c>
100068f0:	282a      	cmp	r0, #42	; 0x2a
100068f2:	d100      	bne.n	100068f6 <_vsnprintf+0x12e>
100068f4:	e1b2      	b.n	10006c5c <_vsnprintf+0x494>
100068f6:	0016      	movs	r6, r2
100068f8:	e7b1      	b.n	1000685e <_vsnprintf+0x96>
100068fa:	46a3      	mov	fp, r4
100068fc:	46aa      	mov	sl, r5
100068fe:	002c      	movs	r4, r5
10006900:	45d1      	cmp	r9, sl
10006902:	d803      	bhi.n	1000690c <_vsnprintf+0x144>
10006904:	2301      	movs	r3, #1
10006906:	425b      	negs	r3, r3
10006908:	444b      	add	r3, r9
1000690a:	469a      	mov	sl, r3
1000690c:	464b      	mov	r3, r9
1000690e:	4652      	mov	r2, sl
10006910:	4659      	mov	r1, fp
10006912:	2000      	movs	r0, #0
10006914:	9d08      	ldr	r5, [sp, #32]
10006916:	47a8      	blx	r5
10006918:	0020      	movs	r0, r4
1000691a:	b01f      	add	sp, #124	; 0x7c
1000691c:	bcf0      	pop	{r4, r5, r6, r7}
1000691e:	46bb      	mov	fp, r7
10006920:	46b2      	mov	sl, r6
10006922:	46a9      	mov	r9, r5
10006924:	46a0      	mov	r8, r4
10006926:	bdf0      	pop	{r4, r5, r6, r7, pc}
10006928:	9b09      	ldr	r3, [sp, #36]	; 0x24
1000692a:	cb40      	ldmia	r3!, {r6}
1000692c:	960a      	str	r6, [sp, #40]	; 0x28
1000692e:	2e00      	cmp	r6, #0
10006930:	db03      	blt.n	1000693a <_vsnprintf+0x172>
10006932:	7850      	ldrb	r0, [r2, #1]
10006934:	9309      	str	r3, [sp, #36]	; 0x24
10006936:	1c56      	adds	r6, r2, #1
10006938:	e78d      	b.n	10006856 <_vsnprintf+0x8e>
1000693a:	3828      	subs	r0, #40	; 0x28
1000693c:	4301      	orrs	r1, r0
1000693e:	4270      	negs	r0, r6
10006940:	900a      	str	r0, [sp, #40]	; 0x28
10006942:	9309      	str	r3, [sp, #36]	; 0x24
10006944:	7850      	ldrb	r0, [r2, #1]
10006946:	1c56      	adds	r6, r2, #1
10006948:	e785      	b.n	10006856 <_vsnprintf+0x8e>
1000694a:	2878      	cmp	r0, #120	; 0x78
1000694c:	d100      	bne.n	10006950 <_vsnprintf+0x188>
1000694e:	e1df      	b.n	10006d10 <_vsnprintf+0x548>
10006950:	2858      	cmp	r0, #88	; 0x58
10006952:	d100      	bne.n	10006956 <_vsnprintf+0x18e>
10006954:	e24c      	b.n	10006df0 <_vsnprintf+0x628>
10006956:	286f      	cmp	r0, #111	; 0x6f
10006958:	d100      	bne.n	1000695c <_vsnprintf+0x194>
1000695a:	e34f      	b.n	10006ffc <_vsnprintf+0x834>
1000695c:	2862      	cmp	r0, #98	; 0x62
1000695e:	d101      	bne.n	10006964 <_vsnprintf+0x19c>
10006960:	f000 fc30 	bl	100071c4 <_vsnprintf+0x9fc>
10006964:	2310      	movs	r3, #16
10006966:	000a      	movs	r2, r1
10006968:	439a      	bics	r2, r3
1000696a:	920b      	str	r2, [sp, #44]	; 0x2c
1000696c:	2869      	cmp	r0, #105	; 0x69
1000696e:	d001      	beq.n	10006974 <_vsnprintf+0x1ac>
10006970:	f000 fca9 	bl	100072c6 <_vsnprintf+0xafe>
10006974:	230a      	movs	r3, #10
10006976:	930c      	str	r3, [sp, #48]	; 0x30
10006978:	054b      	lsls	r3, r1, #21
1000697a:	d500      	bpl.n	1000697e <_vsnprintf+0x1b6>
1000697c:	e1d0      	b.n	10006d20 <_vsnprintf+0x558>
1000697e:	9a0b      	ldr	r2, [sp, #44]	; 0x2c
10006980:	2380      	movs	r3, #128	; 0x80
10006982:	0011      	movs	r1, r2
10006984:	009b      	lsls	r3, r3, #2
10006986:	4019      	ands	r1, r3
10006988:	468b      	mov	fp, r1
1000698a:	421a      	tst	r2, r3
1000698c:	d000      	beq.n	10006990 <_vsnprintf+0x1c8>
1000698e:	e2a1      	b.n	10006ed4 <_vsnprintf+0x70c>
10006990:	2380      	movs	r3, #128	; 0x80
10006992:	0011      	movs	r1, r2
10006994:	005b      	lsls	r3, r3, #1
10006996:	4019      	ands	r1, r3
10006998:	468a      	mov	sl, r1
1000699a:	421a      	tst	r2, r3
1000699c:	d000      	beq.n	100069a0 <_vsnprintf+0x1d8>
1000699e:	e3b6      	b.n	1000710e <_vsnprintf+0x946>
100069a0:	0013      	movs	r3, r2
100069a2:	065b      	lsls	r3, r3, #25
100069a4:	d500      	bpl.n	100069a8 <_vsnprintf+0x1e0>
100069a6:	e2ed      	b.n	10006f84 <_vsnprintf+0x7bc>
100069a8:	0013      	movs	r3, r2
100069aa:	9909      	ldr	r1, [sp, #36]	; 0x24
100069ac:	061b      	lsls	r3, r3, #24
100069ae:	d401      	bmi.n	100069b4 <_vsnprintf+0x1ec>
100069b0:	f000 fc76 	bl	100072a0 <_vsnprintf+0xad8>
100069b4:	c908      	ldmia	r1!, {r3}
100069b6:	b21b      	sxth	r3, r3
100069b8:	17d8      	asrs	r0, r3, #31
100069ba:	181a      	adds	r2, r3, r0
100069bc:	4042      	eors	r2, r0
100069be:	b292      	uxth	r2, r2
100069c0:	9109      	str	r1, [sp, #36]	; 0x24
100069c2:	4693      	mov	fp, r2
100069c4:	0fda      	lsrs	r2, r3, #31
100069c6:	9212      	str	r2, [sp, #72]	; 0x48
100069c8:	2b00      	cmp	r3, #0
100069ca:	d109      	bne.n	100069e0 <_vsnprintf+0x218>
100069cc:	2380      	movs	r3, #128	; 0x80
100069ce:	2210      	movs	r2, #16
100069d0:	990b      	ldr	r1, [sp, #44]	; 0x2c
100069d2:	00db      	lsls	r3, r3, #3
100069d4:	400b      	ands	r3, r1
100069d6:	4391      	bics	r1, r2
100069d8:	910b      	str	r1, [sp, #44]	; 0x2c
100069da:	2b00      	cmp	r3, #0
100069dc:	d000      	beq.n	100069e0 <_vsnprintf+0x218>
100069de:	e2e4      	b.n	10006faa <_vsnprintf+0x7e2>
100069e0:	9a0b      	ldr	r2, [sp, #44]	; 0x2c
100069e2:	2361      	movs	r3, #97	; 0x61
100069e4:	0692      	lsls	r2, r2, #26
100069e6:	d500      	bpl.n	100069ea <_vsnprintf+0x222>
100069e8:	2341      	movs	r3, #65	; 0x41
100069ea:	a90e      	add	r1, sp, #56	; 0x38
100069ec:	221f      	movs	r2, #31
100069ee:	468c      	mov	ip, r1
100069f0:	b2db      	uxtb	r3, r3
100069f2:	4462      	add	r2, ip
100069f4:	3b0a      	subs	r3, #10
100069f6:	465f      	mov	r7, fp
100069f8:	9513      	str	r5, [sp, #76]	; 0x4c
100069fa:	46a3      	mov	fp, r4
100069fc:	4655      	mov	r5, sl
100069fe:	9c0c      	ldr	r4, [sp, #48]	; 0x30
10006a00:	46b2      	mov	sl, r6
10006a02:	930d      	str	r3, [sp, #52]	; 0x34
10006a04:	0016      	movs	r6, r2
10006a06:	e00a      	b.n	10006a1e <_vsnprintf+0x256>
10006a08:	3330      	adds	r3, #48	; 0x30
10006a0a:	b2db      	uxtb	r3, r3
10006a0c:	3501      	adds	r5, #1
10006a0e:	5573      	strb	r3, [r6, r5]
10006a10:	42a7      	cmp	r7, r4
10006a12:	d200      	bcs.n	10006a16 <_vsnprintf+0x24e>
10006a14:	e2ed      	b.n	10006ff2 <_vsnprintf+0x82a>
10006a16:	2d20      	cmp	r5, #32
10006a18:	d100      	bne.n	10006a1c <_vsnprintf+0x254>
10006a1a:	e2ea      	b.n	10006ff2 <_vsnprintf+0x82a>
10006a1c:	0007      	movs	r7, r0
10006a1e:	0021      	movs	r1, r4
10006a20:	0038      	movs	r0, r7
10006a22:	f000 fcf5 	bl	10007410 <__wrap___aeabi_uidiv>
10006a26:	b2cb      	uxtb	r3, r1
10006a28:	2909      	cmp	r1, #9
10006a2a:	d9ed      	bls.n	10006a08 <_vsnprintf+0x240>
10006a2c:	9a0d      	ldr	r2, [sp, #52]	; 0x34
10006a2e:	4694      	mov	ip, r2
10006a30:	4463      	add	r3, ip
10006a32:	b2db      	uxtb	r3, r3
10006a34:	e7ea      	b.n	10006a0c <_vsnprintf+0x244>
10006a36:	2380      	movs	r3, #128	; 0x80
10006a38:	009b      	lsls	r3, r3, #2
10006a3a:	7870      	ldrb	r0, [r6, #1]
10006a3c:	4319      	orrs	r1, r3
10006a3e:	3601      	adds	r6, #1
10006a40:	e72f      	b.n	100068a2 <_vsnprintf+0xda>
10006a42:	7870      	ldrb	r0, [r6, #1]
10006a44:	2868      	cmp	r0, #104	; 0x68
10006a46:	d100      	bne.n	10006a4a <_vsnprintf+0x282>
10006a48:	e1cd      	b.n	10006de6 <_vsnprintf+0x61e>
10006a4a:	2380      	movs	r3, #128	; 0x80
10006a4c:	3601      	adds	r6, #1
10006a4e:	4319      	orrs	r1, r3
10006a50:	e727      	b.n	100068a2 <_vsnprintf+0xda>
10006a52:	7870      	ldrb	r0, [r6, #1]
10006a54:	286c      	cmp	r0, #108	; 0x6c
10006a56:	d100      	bne.n	10006a5a <_vsnprintf+0x292>
10006a58:	e1bf      	b.n	10006dda <_vsnprintf+0x612>
10006a5a:	2380      	movs	r3, #128	; 0x80
10006a5c:	005b      	lsls	r3, r3, #1
10006a5e:	4319      	orrs	r1, r3
10006a60:	3601      	adds	r6, #1
10006a62:	e71e      	b.n	100068a2 <_vsnprintf+0xda>
10006a64:	2846      	cmp	r0, #70	; 0x46
10006a66:	d100      	bne.n	10006a6a <_vsnprintf+0x2a2>
10006a68:	e19b      	b.n	10006da2 <_vsnprintf+0x5da>
10006a6a:	2207      	movs	r2, #7
10006a6c:	9b09      	ldr	r3, [sp, #36]	; 0x24
10006a6e:	9104      	str	r1, [sp, #16]
10006a70:	3307      	adds	r3, #7
10006a72:	4393      	bics	r3, r2
10006a74:	9a0a      	ldr	r2, [sp, #40]	; 0x28
10006a76:	0019      	movs	r1, r3
10006a78:	9203      	str	r2, [sp, #12]
10006a7a:	4642      	mov	r2, r8
10006a7c:	9202      	str	r2, [sp, #8]
10006a7e:	c90c      	ldmia	r1!, {r2, r3}
10006a80:	9808      	ldr	r0, [sp, #32]
10006a82:	9200      	str	r2, [sp, #0]
10006a84:	9301      	str	r3, [sp, #4]
10006a86:	9109      	str	r1, [sp, #36]	; 0x24
10006a88:	002a      	movs	r2, r5
10006a8a:	464b      	mov	r3, r9
10006a8c:	0021      	movs	r1, r4
10006a8e:	f7ff fccf 	bl	10006430 <_ftoa>
10006a92:	3601      	adds	r6, #1
10006a94:	0005      	movs	r5, r0
10006a96:	e6bc      	b.n	10006812 <_vsnprintf+0x4a>
10006a98:	002a      	movs	r2, r5
10006a9a:	1c6f      	adds	r7, r5, #1
10006a9c:	464b      	mov	r3, r9
10006a9e:	9d08      	ldr	r5, [sp, #32]
10006aa0:	0021      	movs	r1, r4
10006aa2:	2025      	movs	r0, #37	; 0x25
10006aa4:	47a8      	blx	r5
10006aa6:	3601      	adds	r6, #1
10006aa8:	003d      	movs	r5, r7
10006aaa:	e6b2      	b.n	10006812 <_vsnprintf+0x4a>
10006aac:	078b      	lsls	r3, r1, #30
10006aae:	d400      	bmi.n	10006ab2 <_vsnprintf+0x2ea>
10006ab0:	e1ad      	b.n	10006e0e <_vsnprintf+0x646>
10006ab2:	9b09      	ldr	r3, [sp, #36]	; 0x24
10006ab4:	002a      	movs	r2, r5
10006ab6:	469a      	mov	sl, r3
10006ab8:	1c6b      	adds	r3, r5, #1
10006aba:	4698      	mov	r8, r3
10006abc:	4653      	mov	r3, sl
10006abe:	cb01      	ldmia	r3!, {r0}
10006ac0:	0021      	movs	r1, r4
10006ac2:	469a      	mov	sl, r3
10006ac4:	9f08      	ldr	r7, [sp, #32]
10006ac6:	464b      	mov	r3, r9
10006ac8:	b2c0      	uxtb	r0, r0
10006aca:	47b8      	blx	r7
10006acc:	9b0a      	ldr	r3, [sp, #40]	; 0x28
10006ace:	469c      	mov	ip, r3
10006ad0:	4465      	add	r5, ip
10006ad2:	2b01      	cmp	r3, #1
10006ad4:	d800      	bhi.n	10006ad8 <_vsnprintf+0x310>
10006ad6:	e286      	b.n	10006fe6 <_vsnprintf+0x81e>
10006ad8:	9b08      	ldr	r3, [sp, #32]
10006ada:	4647      	mov	r7, r8
10006adc:	46b0      	mov	r8, r6
10006ade:	0026      	movs	r6, r4
10006ae0:	464c      	mov	r4, r9
10006ae2:	4699      	mov	r9, r3
10006ae4:	003a      	movs	r2, r7
10006ae6:	0023      	movs	r3, r4
10006ae8:	3701      	adds	r7, #1
10006aea:	0031      	movs	r1, r6
10006aec:	2020      	movs	r0, #32
10006aee:	47c8      	blx	r9
10006af0:	42af      	cmp	r7, r5
10006af2:	d1f7      	bne.n	10006ae4 <_vsnprintf+0x31c>
10006af4:	46a1      	mov	r9, r4
10006af6:	4653      	mov	r3, sl
10006af8:	0034      	movs	r4, r6
10006afa:	4646      	mov	r6, r8
10006afc:	9309      	str	r3, [sp, #36]	; 0x24
10006afe:	3601      	adds	r6, #1
10006b00:	e687      	b.n	10006812 <_vsnprintf+0x4a>
10006b02:	46c0      	nop			; (mov r8, r8)
10006b04:	100067c9 	.word	0x100067c9
10006b08:	20026b10 	.word	0x20026b10
10006b0c:	10012928 	.word	0x10012928
10006b10:	1001296c 	.word	0x1001296c
10006b14:	100129b8 	.word	0x100129b8
10006b18:	9b09      	ldr	r3, [sp, #36]	; 0x24
10006b1a:	cb04      	ldmia	r3!, {r2}
10006b1c:	469b      	mov	fp, r3
10006b1e:	4643      	mov	r3, r8
10006b20:	9209      	str	r2, [sp, #36]	; 0x24
10006b22:	2b00      	cmp	r3, #0
10006b24:	d100      	bne.n	10006b28 <_vsnprintf+0x360>
10006b26:	e0c6      	b.n	10006cb6 <_vsnprintf+0x4ee>
10006b28:	7813      	ldrb	r3, [r2, #0]
10006b2a:	469c      	mov	ip, r3
10006b2c:	2b00      	cmp	r3, #0
10006b2e:	d100      	bne.n	10006b32 <_vsnprintf+0x36a>
10006b30:	e3bd      	b.n	100072ae <_vsnprintf+0xae6>
10006b32:	4643      	mov	r3, r8
10006b34:	3b01      	subs	r3, #1
10006b36:	9a09      	ldr	r2, [sp, #36]	; 0x24
10006b38:	3301      	adds	r3, #1
10006b3a:	18d0      	adds	r0, r2, r3
10006b3c:	9f0a      	ldr	r7, [sp, #40]	; 0x28
10006b3e:	0013      	movs	r3, r2
10006b40:	e001      	b.n	10006b46 <_vsnprintf+0x37e>
10006b42:	4283      	cmp	r3, r0
10006b44:	d003      	beq.n	10006b4e <_vsnprintf+0x386>
10006b46:	785a      	ldrb	r2, [r3, #1]
10006b48:	3301      	adds	r3, #1
10006b4a:	2a00      	cmp	r2, #0
10006b4c:	d1f9      	bne.n	10006b42 <_vsnprintf+0x37a>
10006b4e:	9a09      	ldr	r2, [sp, #36]	; 0x24
10006b50:	970a      	str	r7, [sp, #40]	; 0x28
10006b52:	1a9b      	subs	r3, r3, r2
10006b54:	930b      	str	r3, [sp, #44]	; 0x2c
10006b56:	2380      	movs	r3, #128	; 0x80
10006b58:	000a      	movs	r2, r1
10006b5a:	00db      	lsls	r3, r3, #3
10006b5c:	401a      	ands	r2, r3
10006b5e:	920c      	str	r2, [sp, #48]	; 0x30
10006b60:	4219      	tst	r1, r3
10006b62:	d004      	beq.n	10006b6e <_vsnprintf+0x3a6>
10006b64:	9b0b      	ldr	r3, [sp, #44]	; 0x2c
10006b66:	4543      	cmp	r3, r8
10006b68:	d901      	bls.n	10006b6e <_vsnprintf+0x3a6>
10006b6a:	4643      	mov	r3, r8
10006b6c:	930b      	str	r3, [sp, #44]	; 0x2c
10006b6e:	2302      	movs	r3, #2
10006b70:	001a      	movs	r2, r3
10006b72:	400a      	ands	r2, r1
10006b74:	920d      	str	r2, [sp, #52]	; 0x34
10006b76:	420b      	tst	r3, r1
10006b78:	d100      	bne.n	10006b7c <_vsnprintf+0x3b4>
10006b7a:	e187      	b.n	10006e8c <_vsnprintf+0x6c4>
10006b7c:	4660      	mov	r0, ip
10006b7e:	2800      	cmp	r0, #0
10006b80:	d100      	bne.n	10006b84 <_vsnprintf+0x3bc>
10006b82:	e168      	b.n	10006e56 <_vsnprintf+0x68e>
10006b84:	9b0c      	ldr	r3, [sp, #48]	; 0x30
10006b86:	2b00      	cmp	r3, #0
10006b88:	d100      	bne.n	10006b8c <_vsnprintf+0x3c4>
10006b8a:	e10d      	b.n	10006da8 <_vsnprintf+0x5e0>
10006b8c:	44a8      	add	r8, r5
10006b8e:	46c2      	mov	sl, r8
10006b90:	9b09      	ldr	r3, [sp, #36]	; 0x24
10006b92:	4657      	mov	r7, sl
10006b94:	1b5b      	subs	r3, r3, r5
10006b96:	4698      	mov	r8, r3
10006b98:	9b08      	ldr	r3, [sp, #32]
10006b9a:	46b2      	mov	sl, r6
10006b9c:	002a      	movs	r2, r5
10006b9e:	0026      	movs	r6, r4
10006ba0:	464c      	mov	r4, r9
10006ba2:	4699      	mov	r9, r3
10006ba4:	e009      	b.n	10006bba <_vsnprintf+0x3f2>
10006ba6:	0023      	movs	r3, r4
10006ba8:	0031      	movs	r1, r6
10006baa:	1c55      	adds	r5, r2, #1
10006bac:	47c8      	blx	r9
10006bae:	4643      	mov	r3, r8
10006bb0:	5d58      	ldrb	r0, [r3, r5]
10006bb2:	2800      	cmp	r0, #0
10006bb4:	d100      	bne.n	10006bb8 <_vsnprintf+0x3f0>
10006bb6:	e126      	b.n	10006e06 <_vsnprintf+0x63e>
10006bb8:	002a      	movs	r2, r5
10006bba:	4297      	cmp	r7, r2
10006bbc:	d1f3      	bne.n	10006ba6 <_vsnprintf+0x3de>
10006bbe:	46a1      	mov	r9, r4
10006bc0:	003d      	movs	r5, r7
10006bc2:	0034      	movs	r4, r6
10006bc4:	4656      	mov	r6, sl
10006bc6:	9b0d      	ldr	r3, [sp, #52]	; 0x34
10006bc8:	2b00      	cmp	r3, #0
10006bca:	d000      	beq.n	10006bce <_vsnprintf+0x406>
10006bcc:	e143      	b.n	10006e56 <_vsnprintf+0x68e>
10006bce:	465b      	mov	r3, fp
10006bd0:	3601      	adds	r6, #1
10006bd2:	9309      	str	r3, [sp, #36]	; 0x24
10006bd4:	e61d      	b.n	10006812 <_vsnprintf+0x4a>
10006bd6:	9b09      	ldr	r3, [sp, #36]	; 0x24
10006bd8:	001a      	movs	r2, r3
10006bda:	ca08      	ldmia	r2!, {r3}
10006bdc:	4692      	mov	sl, r2
10006bde:	2b00      	cmp	r3, #0
10006be0:	d048      	beq.n	10006c74 <_vsnprintf+0x4ac>
10006be2:	2221      	movs	r2, #33	; 0x21
10006be4:	4311      	orrs	r1, r2
10006be6:	468b      	mov	fp, r1
10006be8:	a80e      	add	r0, sp, #56	; 0x38
10006bea:	4684      	mov	ip, r0
10006bec:	211f      	movs	r1, #31
10006bee:	4461      	add	r1, ip
10006bf0:	9509      	str	r5, [sp, #36]	; 0x24
10006bf2:	2200      	movs	r2, #0
10006bf4:	270f      	movs	r7, #15
10006bf6:	46a4      	mov	ip, r4
10006bf8:	000d      	movs	r5, r1
10006bfa:	e002      	b.n	10006c02 <_vsnprintf+0x43a>
10006bfc:	2a20      	cmp	r2, #32
10006bfe:	d00c      	beq.n	10006c1a <_vsnprintf+0x452>
10006c00:	000b      	movs	r3, r1
10006c02:	003c      	movs	r4, r7
10006c04:	401c      	ands	r4, r3
10006c06:	0020      	movs	r0, r4
10006c08:	3037      	adds	r0, #55	; 0x37
10006c0a:	2c09      	cmp	r4, #9
10006c0c:	d800      	bhi.n	10006c10 <_vsnprintf+0x448>
10006c0e:	3807      	subs	r0, #7
10006c10:	3201      	adds	r2, #1
10006c12:	54a8      	strb	r0, [r5, r2]
10006c14:	0919      	lsrs	r1, r3, #4
10006c16:	2b0f      	cmp	r3, #15
10006c18:	d8f0      	bhi.n	10006bfc <_vsnprintf+0x434>
10006c1a:	4664      	mov	r4, ip
10006c1c:	9d09      	ldr	r5, [sp, #36]	; 0x24
10006c1e:	e032      	b.n	10006c86 <_vsnprintf+0x4be>
10006c20:	4bdc      	ldr	r3, [pc, #880]	; (10006f94 <_vsnprintf+0x7cc>)
10006c22:	7820      	ldrb	r0, [r4, #0]
10006c24:	9308      	str	r3, [sp, #32]
10006c26:	2300      	movs	r3, #0
10006c28:	469a      	mov	sl, r3
10006c2a:	2800      	cmp	r0, #0
10006c2c:	d000      	beq.n	10006c30 <_vsnprintf+0x468>
10006c2e:	e5e4      	b.n	100067fa <_vsnprintf+0x32>
10006c30:	2400      	movs	r4, #0
10006c32:	e665      	b.n	10006900 <_vsnprintf+0x138>
10006c34:	4643      	mov	r3, r8
10006c36:	0006      	movs	r6, r0
10006c38:	9f0a      	ldr	r7, [sp, #40]	; 0x28
10006c3a:	0098      	lsls	r0, r3, #2
10006c3c:	18c0      	adds	r0, r0, r3
10006c3e:	3201      	adds	r2, #1
10006c40:	0040      	lsls	r0, r0, #1
10006c42:	1980      	adds	r0, r0, r6
10006c44:	7816      	ldrb	r6, [r2, #0]
10006c46:	0003      	movs	r3, r0
10006c48:	0030      	movs	r0, r6
10006c4a:	3830      	subs	r0, #48	; 0x30
10006c4c:	3b30      	subs	r3, #48	; 0x30
10006c4e:	2809      	cmp	r0, #9
10006c50:	d9f3      	bls.n	10006c3a <_vsnprintf+0x472>
10006c52:	0030      	movs	r0, r6
10006c54:	4698      	mov	r8, r3
10006c56:	0016      	movs	r6, r2
10006c58:	970a      	str	r7, [sp, #40]	; 0x28
10006c5a:	e600      	b.n	1000685e <_vsnprintf+0x96>
10006c5c:	9b09      	ldr	r3, [sp, #36]	; 0x24
10006c5e:	3602      	adds	r6, #2
10006c60:	cb04      	ldmia	r3!, {r2}
10006c62:	4690      	mov	r8, r2
10006c64:	43d2      	mvns	r2, r2
10006c66:	4640      	mov	r0, r8
10006c68:	17d2      	asrs	r2, r2, #31
10006c6a:	4010      	ands	r0, r2
10006c6c:	4680      	mov	r8, r0
10006c6e:	9309      	str	r3, [sp, #36]	; 0x24
10006c70:	7830      	ldrb	r0, [r6, #0]
10006c72:	e5f4      	b.n	1000685e <_vsnprintf+0x96>
10006c74:	2210      	movs	r2, #16
10006c76:	0008      	movs	r0, r1
10006c78:	4390      	bics	r0, r2
10006c7a:	3211      	adds	r2, #17
10006c7c:	4310      	orrs	r0, r2
10006c7e:	4683      	mov	fp, r0
10006c80:	2200      	movs	r2, #0
10006c82:	0549      	lsls	r1, r1, #21
10006c84:	d5b0      	bpl.n	10006be8 <_vsnprintf+0x420>
10006c86:	465b      	mov	r3, fp
10006c88:	9306      	str	r3, [sp, #24]
10006c8a:	2308      	movs	r3, #8
10006c8c:	9305      	str	r3, [sp, #20]
10006c8e:	4643      	mov	r3, r8
10006c90:	9304      	str	r3, [sp, #16]
10006c92:	2310      	movs	r3, #16
10006c94:	9303      	str	r3, [sp, #12]
10006c96:	2300      	movs	r3, #0
10006c98:	9302      	str	r3, [sp, #8]
10006c9a:	ab16      	add	r3, sp, #88	; 0x58
10006c9c:	9201      	str	r2, [sp, #4]
10006c9e:	9300      	str	r3, [sp, #0]
10006ca0:	002a      	movs	r2, r5
10006ca2:	464b      	mov	r3, r9
10006ca4:	0021      	movs	r1, r4
10006ca6:	9808      	ldr	r0, [sp, #32]
10006ca8:	f7ff f8ae 	bl	10005e08 <_ntoa_format>
10006cac:	4653      	mov	r3, sl
10006cae:	0005      	movs	r5, r0
10006cb0:	3601      	adds	r6, #1
10006cb2:	9309      	str	r3, [sp, #36]	; 0x24
10006cb4:	e5ad      	b.n	10006812 <_vsnprintf+0x4a>
10006cb6:	7813      	ldrb	r3, [r2, #0]
10006cb8:	469c      	mov	ip, r3
10006cba:	2b00      	cmp	r3, #0
10006cbc:	d100      	bne.n	10006cc0 <_vsnprintf+0x4f8>
10006cbe:	e2f7      	b.n	100072b0 <_vsnprintf+0xae8>
10006cc0:	2302      	movs	r3, #2
10006cc2:	425b      	negs	r3, r3
10006cc4:	e737      	b.n	10006b36 <_vsnprintf+0x36e>
10006cc6:	2320      	movs	r3, #32
10006cc8:	0002      	movs	r2, r0
10006cca:	439a      	bics	r2, r3
10006ccc:	2a47      	cmp	r2, #71	; 0x47
10006cce:	d104      	bne.n	10006cda <_vsnprintf+0x512>
10006cd0:	2380      	movs	r3, #128	; 0x80
10006cd2:	011b      	lsls	r3, r3, #4
10006cd4:	4319      	orrs	r1, r3
10006cd6:	2302      	movs	r3, #2
10006cd8:	4398      	bics	r0, r3
10006cda:	2845      	cmp	r0, #69	; 0x45
10006cdc:	d101      	bne.n	10006ce2 <_vsnprintf+0x51a>
10006cde:	2320      	movs	r3, #32
10006ce0:	4319      	orrs	r1, r3
10006ce2:	2207      	movs	r2, #7
10006ce4:	9b09      	ldr	r3, [sp, #36]	; 0x24
10006ce6:	9104      	str	r1, [sp, #16]
10006ce8:	3307      	adds	r3, #7
10006cea:	4393      	bics	r3, r2
10006cec:	9a0a      	ldr	r2, [sp, #40]	; 0x28
10006cee:	0019      	movs	r1, r3
10006cf0:	9203      	str	r2, [sp, #12]
10006cf2:	4642      	mov	r2, r8
10006cf4:	9202      	str	r2, [sp, #8]
10006cf6:	c90c      	ldmia	r1!, {r2, r3}
10006cf8:	9808      	ldr	r0, [sp, #32]
10006cfa:	9200      	str	r2, [sp, #0]
10006cfc:	9301      	str	r3, [sp, #4]
10006cfe:	9109      	str	r1, [sp, #36]	; 0x24
10006d00:	002a      	movs	r2, r5
10006d02:	464b      	mov	r3, r9
10006d04:	0021      	movs	r1, r4
10006d06:	f7ff f96d 	bl	10005fe4 <_etoa>
10006d0a:	3601      	adds	r6, #1
10006d0c:	0005      	movs	r5, r0
10006d0e:	e580      	b.n	10006812 <_vsnprintf+0x4a>
10006d10:	2310      	movs	r3, #16
10006d12:	930c      	str	r3, [sp, #48]	; 0x30
10006d14:	230c      	movs	r3, #12
10006d16:	000a      	movs	r2, r1
10006d18:	439a      	bics	r2, r3
10006d1a:	920b      	str	r2, [sp, #44]	; 0x2c
10006d1c:	054b      	lsls	r3, r1, #21
10006d1e:	d503      	bpl.n	10006d28 <_vsnprintf+0x560>
10006d20:	2301      	movs	r3, #1
10006d22:	9a0b      	ldr	r2, [sp, #44]	; 0x2c
10006d24:	439a      	bics	r2, r3
10006d26:	920b      	str	r2, [sp, #44]	; 0x2c
10006d28:	2869      	cmp	r0, #105	; 0x69
10006d2a:	d100      	bne.n	10006d2e <_vsnprintf+0x566>
10006d2c:	e627      	b.n	1000697e <_vsnprintf+0x1b6>
10006d2e:	2864      	cmp	r0, #100	; 0x64
10006d30:	d100      	bne.n	10006d34 <_vsnprintf+0x56c>
10006d32:	e624      	b.n	1000697e <_vsnprintf+0x1b6>
10006d34:	9a0b      	ldr	r2, [sp, #44]	; 0x2c
10006d36:	2380      	movs	r3, #128	; 0x80
10006d38:	0011      	movs	r1, r2
10006d3a:	009b      	lsls	r3, r3, #2
10006d3c:	4019      	ands	r1, r3
10006d3e:	468b      	mov	fp, r1
10006d40:	421a      	tst	r2, r3
10006d42:	d000      	beq.n	10006d46 <_vsnprintf+0x57e>
10006d44:	e166      	b.n	10007014 <_vsnprintf+0x84c>
10006d46:	2380      	movs	r3, #128	; 0x80
10006d48:	0011      	movs	r1, r2
10006d4a:	005b      	lsls	r3, r3, #1
10006d4c:	4019      	ands	r1, r3
10006d4e:	468a      	mov	sl, r1
10006d50:	421a      	tst	r2, r3
10006d52:	d000      	beq.n	10006d56 <_vsnprintf+0x58e>
10006d54:	e239      	b.n	100071ca <_vsnprintf+0xa02>
10006d56:	0013      	movs	r3, r2
10006d58:	065b      	lsls	r3, r3, #25
10006d5a:	d500      	bpl.n	10006d5e <_vsnprintf+0x596>
10006d5c:	e13c      	b.n	10006fd8 <_vsnprintf+0x810>
10006d5e:	0013      	movs	r3, r2
10006d60:	061b      	lsls	r3, r3, #24
10006d62:	d400      	bmi.n	10006d66 <_vsnprintf+0x59e>
10006d64:	e2a6      	b.n	100072b4 <_vsnprintf+0xaec>
10006d66:	9b09      	ldr	r3, [sp, #36]	; 0x24
10006d68:	cb04      	ldmia	r3!, {r2}
10006d6a:	0412      	lsls	r2, r2, #16
10006d6c:	0c12      	lsrs	r2, r2, #16
10006d6e:	4693      	mov	fp, r2
10006d70:	9309      	str	r3, [sp, #36]	; 0x24
10006d72:	465b      	mov	r3, fp
10006d74:	2b00      	cmp	r3, #0
10006d76:	d000      	beq.n	10006d7a <_vsnprintf+0x5b2>
10006d78:	e19a      	b.n	100070b0 <_vsnprintf+0x8e8>
10006d7a:	9a0b      	ldr	r2, [sp, #44]	; 0x2c
10006d7c:	3310      	adds	r3, #16
10006d7e:	0011      	movs	r1, r2
10006d80:	4399      	bics	r1, r3
10006d82:	910b      	str	r1, [sp, #44]	; 0x2c
10006d84:	0552      	lsls	r2, r2, #21
10006d86:	d400      	bmi.n	10006d8a <_vsnprintf+0x5c2>
10006d88:	e192      	b.n	100070b0 <_vsnprintf+0x8e8>
10006d8a:	2300      	movs	r3, #0
10006d8c:	469a      	mov	sl, r3
10006d8e:	9b0b      	ldr	r3, [sp, #44]	; 0x2c
10006d90:	9306      	str	r3, [sp, #24]
10006d92:	9b0a      	ldr	r3, [sp, #40]	; 0x28
10006d94:	9305      	str	r3, [sp, #20]
10006d96:	4643      	mov	r3, r8
10006d98:	9304      	str	r3, [sp, #16]
10006d9a:	9b0c      	ldr	r3, [sp, #48]	; 0x30
10006d9c:	9303      	str	r3, [sp, #12]
10006d9e:	2300      	movs	r3, #0
10006da0:	e10c      	b.n	10006fbc <_vsnprintf+0x7f4>
10006da2:	2320      	movs	r3, #32
10006da4:	4319      	orrs	r1, r3
10006da6:	e660      	b.n	10006a6a <_vsnprintf+0x2a2>
10006da8:	9b09      	ldr	r3, [sp, #36]	; 0x24
10006daa:	9a0a      	ldr	r2, [sp, #40]	; 0x28
10006dac:	1b5b      	subs	r3, r3, r5
10006dae:	4698      	mov	r8, r3
10006db0:	464b      	mov	r3, r9
10006db2:	4691      	mov	r9, r2
10006db4:	001f      	movs	r7, r3
10006db6:	46b2      	mov	sl, r6
10006db8:	0026      	movs	r6, r4
10006dba:	9c08      	ldr	r4, [sp, #32]
10006dbc:	002a      	movs	r2, r5
10006dbe:	003b      	movs	r3, r7
10006dc0:	0031      	movs	r1, r6
10006dc2:	47a0      	blx	r4
10006dc4:	4643      	mov	r3, r8
10006dc6:	3501      	adds	r5, #1
10006dc8:	5d58      	ldrb	r0, [r3, r5]
10006dca:	2800      	cmp	r0, #0
10006dcc:	d1f6      	bne.n	10006dbc <_vsnprintf+0x5f4>
10006dce:	464a      	mov	r2, r9
10006dd0:	0034      	movs	r4, r6
10006dd2:	46b9      	mov	r9, r7
10006dd4:	4656      	mov	r6, sl
10006dd6:	920a      	str	r2, [sp, #40]	; 0x28
10006dd8:	e6f5      	b.n	10006bc6 <_vsnprintf+0x3fe>
10006dda:	23c0      	movs	r3, #192	; 0xc0
10006ddc:	009b      	lsls	r3, r3, #2
10006dde:	78b0      	ldrb	r0, [r6, #2]
10006de0:	4319      	orrs	r1, r3
10006de2:	3602      	adds	r6, #2
10006de4:	e55d      	b.n	100068a2 <_vsnprintf+0xda>
10006de6:	23c0      	movs	r3, #192	; 0xc0
10006de8:	78b0      	ldrb	r0, [r6, #2]
10006dea:	4319      	orrs	r1, r3
10006dec:	3602      	adds	r6, #2
10006dee:	e558      	b.n	100068a2 <_vsnprintf+0xda>
10006df0:	230c      	movs	r3, #12
10006df2:	000a      	movs	r2, r1
10006df4:	439a      	bics	r2, r3
10006df6:	3314      	adds	r3, #20
10006df8:	431a      	orrs	r2, r3
10006dfa:	3b10      	subs	r3, #16
10006dfc:	920b      	str	r2, [sp, #44]	; 0x2c
10006dfe:	930c      	str	r3, [sp, #48]	; 0x30
10006e00:	054b      	lsls	r3, r1, #21
10006e02:	d48d      	bmi.n	10006d20 <_vsnprintf+0x558>
10006e04:	e796      	b.n	10006d34 <_vsnprintf+0x56c>
10006e06:	46a1      	mov	r9, r4
10006e08:	0034      	movs	r4, r6
10006e0a:	4656      	mov	r6, sl
10006e0c:	e6db      	b.n	10006bc6 <_vsnprintf+0x3fe>
10006e0e:	9a0a      	ldr	r2, [sp, #40]	; 0x28
10006e10:	2a01      	cmp	r2, #1
10006e12:	d800      	bhi.n	10006e16 <_vsnprintf+0x64e>
10006e14:	e253      	b.n	100072be <_vsnprintf+0xaf6>
10006e16:	1e6b      	subs	r3, r5, #1
10006e18:	189f      	adds	r7, r3, r2
10006e1a:	9b08      	ldr	r3, [sp, #32]
10006e1c:	46b0      	mov	r8, r6
10006e1e:	0026      	movs	r6, r4
10006e20:	464c      	mov	r4, r9
10006e22:	4699      	mov	r9, r3
10006e24:	002a      	movs	r2, r5
10006e26:	0023      	movs	r3, r4
10006e28:	3501      	adds	r5, #1
10006e2a:	0031      	movs	r1, r6
10006e2c:	2020      	movs	r0, #32
10006e2e:	47c8      	blx	r9
10006e30:	42bd      	cmp	r5, r7
10006e32:	d1f7      	bne.n	10006e24 <_vsnprintf+0x65c>
10006e34:	46a1      	mov	r9, r4
10006e36:	0034      	movs	r4, r6
10006e38:	4646      	mov	r6, r8
10006e3a:	9b09      	ldr	r3, [sp, #36]	; 0x24
10006e3c:	003a      	movs	r2, r7
10006e3e:	cb01      	ldmia	r3!, {r0}
10006e40:	0021      	movs	r1, r4
10006e42:	4698      	mov	r8, r3
10006e44:	1c7d      	adds	r5, r7, #1
10006e46:	464b      	mov	r3, r9
10006e48:	9f08      	ldr	r7, [sp, #32]
10006e4a:	b2c0      	uxtb	r0, r0
10006e4c:	47b8      	blx	r7
10006e4e:	4643      	mov	r3, r8
10006e50:	3601      	adds	r6, #1
10006e52:	9309      	str	r3, [sp, #36]	; 0x24
10006e54:	e4dd      	b.n	10006812 <_vsnprintf+0x4a>
10006e56:	9b0b      	ldr	r3, [sp, #44]	; 0x2c
10006e58:	9a0a      	ldr	r2, [sp, #40]	; 0x28
10006e5a:	46a8      	mov	r8, r5
10006e5c:	429a      	cmp	r2, r3
10006e5e:	d800      	bhi.n	10006e62 <_vsnprintf+0x69a>
10006e60:	e6b5      	b.n	10006bce <_vsnprintf+0x406>
10006e62:	4694      	mov	ip, r2
10006e64:	4465      	add	r5, ip
10006e66:	1aed      	subs	r5, r5, r3
10006e68:	9b08      	ldr	r3, [sp, #32]
10006e6a:	4647      	mov	r7, r8
10006e6c:	46b0      	mov	r8, r6
10006e6e:	0026      	movs	r6, r4
10006e70:	464c      	mov	r4, r9
10006e72:	4699      	mov	r9, r3
10006e74:	003a      	movs	r2, r7
10006e76:	0023      	movs	r3, r4
10006e78:	3701      	adds	r7, #1
10006e7a:	0031      	movs	r1, r6
10006e7c:	2020      	movs	r0, #32
10006e7e:	47c8      	blx	r9
10006e80:	42af      	cmp	r7, r5
10006e82:	d1f7      	bne.n	10006e74 <_vsnprintf+0x6ac>
10006e84:	46a1      	mov	r9, r4
10006e86:	0034      	movs	r4, r6
10006e88:	4646      	mov	r6, r8
10006e8a:	e6a0      	b.n	10006bce <_vsnprintf+0x406>
10006e8c:	9a0b      	ldr	r2, [sp, #44]	; 0x2c
10006e8e:	990a      	ldr	r1, [sp, #40]	; 0x28
10006e90:	1c53      	adds	r3, r2, #1
10006e92:	4291      	cmp	r1, r2
10006e94:	d800      	bhi.n	10006e98 <_vsnprintf+0x6d0>
10006e96:	e214      	b.n	100072c2 <_vsnprintf+0xafa>
10006e98:	194b      	adds	r3, r1, r5
10006e9a:	1a9b      	subs	r3, r3, r2
10006e9c:	001f      	movs	r7, r3
10006e9e:	9b08      	ldr	r3, [sp, #32]
10006ea0:	46b2      	mov	sl, r6
10006ea2:	0026      	movs	r6, r4
10006ea4:	464c      	mov	r4, r9
10006ea6:	4699      	mov	r9, r3
10006ea8:	002a      	movs	r2, r5
10006eaa:	0023      	movs	r3, r4
10006eac:	3501      	adds	r5, #1
10006eae:	0031      	movs	r1, r6
10006eb0:	2020      	movs	r0, #32
10006eb2:	47c8      	blx	r9
10006eb4:	42bd      	cmp	r5, r7
10006eb6:	d1f7      	bne.n	10006ea8 <_vsnprintf+0x6e0>
10006eb8:	9b0a      	ldr	r3, [sp, #40]	; 0x28
10006eba:	46a1      	mov	r9, r4
10006ebc:	3301      	adds	r3, #1
10006ebe:	930b      	str	r3, [sp, #44]	; 0x2c
10006ec0:	9b09      	ldr	r3, [sp, #36]	; 0x24
10006ec2:	0034      	movs	r4, r6
10006ec4:	781b      	ldrb	r3, [r3, #0]
10006ec6:	4656      	mov	r6, sl
10006ec8:	469c      	mov	ip, r3
10006eca:	4660      	mov	r0, ip
10006ecc:	2800      	cmp	r0, #0
10006ece:	d000      	beq.n	10006ed2 <_vsnprintf+0x70a>
10006ed0:	e658      	b.n	10006b84 <_vsnprintf+0x3bc>
10006ed2:	e67c      	b.n	10006bce <_vsnprintf+0x406>
10006ed4:	2207      	movs	r2, #7
10006ed6:	9b09      	ldr	r3, [sp, #36]	; 0x24
10006ed8:	3307      	adds	r3, #7
10006eda:	4393      	bics	r3, r2
10006edc:	3201      	adds	r2, #1
10006ede:	4694      	mov	ip, r2
10006ee0:	449c      	add	ip, r3
10006ee2:	4662      	mov	r2, ip
10006ee4:	685f      	ldr	r7, [r3, #4]
10006ee6:	9209      	str	r2, [sp, #36]	; 0x24
10006ee8:	681a      	ldr	r2, [r3, #0]
10006eea:	17fb      	asrs	r3, r7, #31
10006eec:	9310      	str	r3, [sp, #64]	; 0x40
10006eee:	9311      	str	r3, [sp, #68]	; 0x44
10006ef0:	9810      	ldr	r0, [sp, #64]	; 0x40
10006ef2:	9911      	ldr	r1, [sp, #68]	; 0x44
10006ef4:	0003      	movs	r3, r0
10006ef6:	4053      	eors	r3, r2
10006ef8:	930e      	str	r3, [sp, #56]	; 0x38
10006efa:	000b      	movs	r3, r1
10006efc:	407b      	eors	r3, r7
10006efe:	930f      	str	r3, [sp, #60]	; 0x3c
10006f00:	4694      	mov	ip, r2
10006f02:	9a0e      	ldr	r2, [sp, #56]	; 0x38
10006f04:	9b0f      	ldr	r3, [sp, #60]	; 0x3c
10006f06:	1a12      	subs	r2, r2, r0
10006f08:	418b      	sbcs	r3, r1
10006f0a:	920e      	str	r2, [sp, #56]	; 0x38
10006f0c:	930f      	str	r3, [sp, #60]	; 0x3c
10006f0e:	0ffb      	lsrs	r3, r7, #31
10006f10:	4662      	mov	r2, ip
10006f12:	9312      	str	r3, [sp, #72]	; 0x48
10006f14:	2300      	movs	r3, #0
10006f16:	433a      	orrs	r2, r7
10006f18:	469b      	mov	fp, r3
10006f1a:	d03d      	beq.n	10006f98 <_vsnprintf+0x7d0>
10006f1c:	9a0b      	ldr	r2, [sp, #44]	; 0x2c
10006f1e:	2361      	movs	r3, #97	; 0x61
10006f20:	0692      	lsls	r2, r2, #26
10006f22:	d500      	bpl.n	10006f26 <_vsnprintf+0x75e>
10006f24:	2341      	movs	r3, #65	; 0x41
10006f26:	2200      	movs	r2, #0
10006f28:	b2db      	uxtb	r3, r3
10006f2a:	a90e      	add	r1, sp, #56	; 0x38
10006f2c:	3b0a      	subs	r3, #10
10006f2e:	468c      	mov	ip, r1
10006f30:	4692      	mov	sl, r2
10006f32:	930d      	str	r3, [sp, #52]	; 0x34
10006f34:	4643      	mov	r3, r8
10006f36:	321f      	adds	r2, #31
10006f38:	4462      	add	r2, ip
10006f3a:	9513      	str	r5, [sp, #76]	; 0x4c
10006f3c:	9615      	str	r6, [sp, #84]	; 0x54
10006f3e:	4655      	mov	r5, sl
10006f40:	9e0e      	ldr	r6, [sp, #56]	; 0x38
10006f42:	9f0f      	ldr	r7, [sp, #60]	; 0x3c
10006f44:	46a2      	mov	sl, r4
10006f46:	4690      	mov	r8, r2
10006f48:	9c0c      	ldr	r4, [sp, #48]	; 0x30
10006f4a:	9314      	str	r3, [sp, #80]	; 0x50
10006f4c:	e00c      	b.n	10006f68 <_vsnprintf+0x7a0>
10006f4e:	3230      	adds	r2, #48	; 0x30
10006f50:	b2d2      	uxtb	r2, r2
10006f52:	4643      	mov	r3, r8
10006f54:	3501      	adds	r5, #1
10006f56:	555a      	strb	r2, [r3, r5]
10006f58:	45bb      	cmp	fp, r7
10006f5a:	d100      	bne.n	10006f5e <_vsnprintf+0x796>
10006f5c:	e18a      	b.n	10007274 <_vsnprintf+0xaac>
10006f5e:	2d20      	cmp	r5, #32
10006f60:	d100      	bne.n	10006f64 <_vsnprintf+0x79c>
10006f62:	e18a      	b.n	1000727a <_vsnprintf+0xab2>
10006f64:	0006      	movs	r6, r0
10006f66:	000f      	movs	r7, r1
10006f68:	0022      	movs	r2, r4
10006f6a:	2300      	movs	r3, #0
10006f6c:	0030      	movs	r0, r6
10006f6e:	0039      	movs	r1, r7
10006f70:	f000 fa90 	bl	10007494 <__wrap___aeabi_uldivmod>
10006f74:	b2d2      	uxtb	r2, r2
10006f76:	2a09      	cmp	r2, #9
10006f78:	d9e9      	bls.n	10006f4e <_vsnprintf+0x786>
10006f7a:	9b0d      	ldr	r3, [sp, #52]	; 0x34
10006f7c:	469c      	mov	ip, r3
10006f7e:	4462      	add	r2, ip
10006f80:	b2d2      	uxtb	r2, r2
10006f82:	e7e6      	b.n	10006f52 <_vsnprintf+0x78a>
10006f84:	23ff      	movs	r3, #255	; 0xff
10006f86:	9909      	ldr	r1, [sp, #36]	; 0x24
10006f88:	c904      	ldmia	r1!, {r2}
10006f8a:	4013      	ands	r3, r2
10006f8c:	001a      	movs	r2, r3
10006f8e:	9109      	str	r1, [sp, #36]	; 0x24
10006f90:	e517      	b.n	100069c2 <_vsnprintf+0x1fa>
10006f92:	46c0      	nop			; (mov r8, r8)
10006f94:	10005d69 	.word	0x10005d69
10006f98:	9a0b      	ldr	r2, [sp, #44]	; 0x2c
10006f9a:	3310      	adds	r3, #16
10006f9c:	0011      	movs	r1, r2
10006f9e:	4399      	bics	r1, r3
10006fa0:	910b      	str	r1, [sp, #44]	; 0x2c
10006fa2:	0552      	lsls	r2, r2, #21
10006fa4:	d5ba      	bpl.n	10006f1c <_vsnprintf+0x754>
10006fa6:	2300      	movs	r3, #0
10006fa8:	469a      	mov	sl, r3
10006faa:	9b0b      	ldr	r3, [sp, #44]	; 0x2c
10006fac:	9306      	str	r3, [sp, #24]
10006fae:	9b0a      	ldr	r3, [sp, #40]	; 0x28
10006fb0:	9305      	str	r3, [sp, #20]
10006fb2:	4643      	mov	r3, r8
10006fb4:	9304      	str	r3, [sp, #16]
10006fb6:	9b0c      	ldr	r3, [sp, #48]	; 0x30
10006fb8:	9303      	str	r3, [sp, #12]
10006fba:	9b12      	ldr	r3, [sp, #72]	; 0x48
10006fbc:	9302      	str	r3, [sp, #8]
10006fbe:	4653      	mov	r3, sl
10006fc0:	9301      	str	r3, [sp, #4]
10006fc2:	ab16      	add	r3, sp, #88	; 0x58
10006fc4:	002a      	movs	r2, r5
10006fc6:	9300      	str	r3, [sp, #0]
10006fc8:	0021      	movs	r1, r4
10006fca:	464b      	mov	r3, r9
10006fcc:	9808      	ldr	r0, [sp, #32]
10006fce:	f7fe ff1b 	bl	10005e08 <_ntoa_format>
10006fd2:	3601      	adds	r6, #1
10006fd4:	0005      	movs	r5, r0
10006fd6:	e41c      	b.n	10006812 <_vsnprintf+0x4a>
10006fd8:	22ff      	movs	r2, #255	; 0xff
10006fda:	9b09      	ldr	r3, [sp, #36]	; 0x24
10006fdc:	cb02      	ldmia	r3!, {r1}
10006fde:	4011      	ands	r1, r2
10006fe0:	468b      	mov	fp, r1
10006fe2:	9309      	str	r3, [sp, #36]	; 0x24
10006fe4:	e6c5      	b.n	10006d72 <_vsnprintf+0x5aa>
10006fe6:	4653      	mov	r3, sl
10006fe8:	4645      	mov	r5, r8
10006fea:	9309      	str	r3, [sp, #36]	; 0x24
10006fec:	3601      	adds	r6, #1
10006fee:	f7ff fc10 	bl	10006812 <_vsnprintf+0x4a>
10006ff2:	4656      	mov	r6, sl
10006ff4:	465c      	mov	r4, fp
10006ff6:	46aa      	mov	sl, r5
10006ff8:	9d13      	ldr	r5, [sp, #76]	; 0x4c
10006ffa:	e7d6      	b.n	10006faa <_vsnprintf+0x7e2>
10006ffc:	2308      	movs	r3, #8
10006ffe:	930c      	str	r3, [sp, #48]	; 0x30
10007000:	910b      	str	r1, [sp, #44]	; 0x2c
10007002:	990b      	ldr	r1, [sp, #44]	; 0x2c
10007004:	2864      	cmp	r0, #100	; 0x64
10007006:	d000      	beq.n	1000700a <_vsnprintf+0x842>
10007008:	e684      	b.n	10006d14 <_vsnprintf+0x54c>
1000700a:	9b0b      	ldr	r3, [sp, #44]	; 0x2c
1000700c:	055b      	lsls	r3, r3, #21
1000700e:	d500      	bpl.n	10007012 <_vsnprintf+0x84a>
10007010:	e686      	b.n	10006d20 <_vsnprintf+0x558>
10007012:	e4b4      	b.n	1000697e <_vsnprintf+0x1b6>
10007014:	2207      	movs	r2, #7
10007016:	9b09      	ldr	r3, [sp, #36]	; 0x24
10007018:	3307      	adds	r3, #7
1000701a:	4393      	bics	r3, r2
1000701c:	3201      	adds	r2, #1
1000701e:	4694      	mov	ip, r2
10007020:	449c      	add	ip, r3
10007022:	4662      	mov	r2, ip
10007024:	9209      	str	r2, [sp, #36]	; 0x24
10007026:	681a      	ldr	r2, [r3, #0]
10007028:	685b      	ldr	r3, [r3, #4]
1000702a:	0010      	movs	r0, r2
1000702c:	469b      	mov	fp, r3
1000702e:	0013      	movs	r3, r2
10007030:	465a      	mov	r2, fp
10007032:	4313      	orrs	r3, r2
10007034:	d107      	bne.n	10007046 <_vsnprintf+0x87e>
10007036:	9a0b      	ldr	r2, [sp, #44]	; 0x2c
10007038:	3310      	adds	r3, #16
1000703a:	0011      	movs	r1, r2
1000703c:	4399      	bics	r1, r3
1000703e:	910b      	str	r1, [sp, #44]	; 0x2c
10007040:	0552      	lsls	r2, r2, #21
10007042:	d500      	bpl.n	10007046 <_vsnprintf+0x87e>
10007044:	e6a1      	b.n	10006d8a <_vsnprintf+0x5c2>
10007046:	9a0b      	ldr	r2, [sp, #44]	; 0x2c
10007048:	2361      	movs	r3, #97	; 0x61
1000704a:	0692      	lsls	r2, r2, #26
1000704c:	d500      	bpl.n	10007050 <_vsnprintf+0x888>
1000704e:	2341      	movs	r3, #65	; 0x41
10007050:	2200      	movs	r2, #0
10007052:	b2db      	uxtb	r3, r3
10007054:	a90e      	add	r1, sp, #56	; 0x38
10007056:	3b0a      	subs	r3, #10
10007058:	468c      	mov	ip, r1
1000705a:	4692      	mov	sl, r2
1000705c:	930d      	str	r3, [sp, #52]	; 0x34
1000705e:	4643      	mov	r3, r8
10007060:	321f      	adds	r2, #31
10007062:	4462      	add	r2, ip
10007064:	465f      	mov	r7, fp
10007066:	9512      	str	r5, [sp, #72]	; 0x48
10007068:	46a3      	mov	fp, r4
1000706a:	4655      	mov	r5, sl
1000706c:	0004      	movs	r4, r0
1000706e:	46b2      	mov	sl, r6
10007070:	4690      	mov	r8, r2
10007072:	9e0c      	ldr	r6, [sp, #48]	; 0x30
10007074:	9313      	str	r3, [sp, #76]	; 0x4c
10007076:	e00d      	b.n	10007094 <_vsnprintf+0x8cc>
10007078:	3230      	adds	r2, #48	; 0x30
1000707a:	b2d2      	uxtb	r2, r2
1000707c:	4643      	mov	r3, r8
1000707e:	3501      	adds	r5, #1
10007080:	555a      	strb	r2, [r3, r5]
10007082:	2300      	movs	r3, #0
10007084:	42bb      	cmp	r3, r7
10007086:	d100      	bne.n	1000708a <_vsnprintf+0x8c2>
10007088:	e100      	b.n	1000728c <_vsnprintf+0xac4>
1000708a:	2d20      	cmp	r5, #32
1000708c:	d100      	bne.n	10007090 <_vsnprintf+0x8c8>
1000708e:	e100      	b.n	10007292 <_vsnprintf+0xaca>
10007090:	0004      	movs	r4, r0
10007092:	000f      	movs	r7, r1
10007094:	0032      	movs	r2, r6
10007096:	2300      	movs	r3, #0
10007098:	0020      	movs	r0, r4
1000709a:	0039      	movs	r1, r7
1000709c:	f000 f9fa 	bl	10007494 <__wrap___aeabi_uldivmod>
100070a0:	b2d2      	uxtb	r2, r2
100070a2:	2a09      	cmp	r2, #9
100070a4:	d9e8      	bls.n	10007078 <_vsnprintf+0x8b0>
100070a6:	9b0d      	ldr	r3, [sp, #52]	; 0x34
100070a8:	469c      	mov	ip, r3
100070aa:	4462      	add	r2, ip
100070ac:	b2d2      	uxtb	r2, r2
100070ae:	e7e5      	b.n	1000707c <_vsnprintf+0x8b4>
100070b0:	9a0b      	ldr	r2, [sp, #44]	; 0x2c
100070b2:	2361      	movs	r3, #97	; 0x61
100070b4:	0692      	lsls	r2, r2, #26
100070b6:	d500      	bpl.n	100070ba <_vsnprintf+0x8f2>
100070b8:	2341      	movs	r3, #65	; 0x41
100070ba:	b2db      	uxtb	r3, r3
100070bc:	a90e      	add	r1, sp, #56	; 0x38
100070be:	3b0a      	subs	r3, #10
100070c0:	221f      	movs	r2, #31
100070c2:	468c      	mov	ip, r1
100070c4:	930d      	str	r3, [sp, #52]	; 0x34
100070c6:	0023      	movs	r3, r4
100070c8:	4462      	add	r2, ip
100070ca:	465c      	mov	r4, fp
100070cc:	9512      	str	r5, [sp, #72]	; 0x48
100070ce:	0017      	movs	r7, r2
100070d0:	4655      	mov	r5, sl
100070d2:	469b      	mov	fp, r3
100070d4:	46b2      	mov	sl, r6
100070d6:	9e0c      	ldr	r6, [sp, #48]	; 0x30
100070d8:	e008      	b.n	100070ec <_vsnprintf+0x924>
100070da:	3330      	adds	r3, #48	; 0x30
100070dc:	b2db      	uxtb	r3, r3
100070de:	3501      	adds	r5, #1
100070e0:	557b      	strb	r3, [r7, r5]
100070e2:	42b4      	cmp	r4, r6
100070e4:	d30e      	bcc.n	10007104 <_vsnprintf+0x93c>
100070e6:	2d20      	cmp	r5, #32
100070e8:	d00c      	beq.n	10007104 <_vsnprintf+0x93c>
100070ea:	0004      	movs	r4, r0
100070ec:	0031      	movs	r1, r6
100070ee:	0020      	movs	r0, r4
100070f0:	f000 f98e 	bl	10007410 <__wrap___aeabi_uidiv>
100070f4:	b2cb      	uxtb	r3, r1
100070f6:	2909      	cmp	r1, #9
100070f8:	d9ef      	bls.n	100070da <_vsnprintf+0x912>
100070fa:	9a0d      	ldr	r2, [sp, #52]	; 0x34
100070fc:	4694      	mov	ip, r2
100070fe:	4463      	add	r3, ip
10007100:	b2db      	uxtb	r3, r3
10007102:	e7ec      	b.n	100070de <_vsnprintf+0x916>
10007104:	4656      	mov	r6, sl
10007106:	465c      	mov	r4, fp
10007108:	46aa      	mov	sl, r5
1000710a:	9d12      	ldr	r5, [sp, #72]	; 0x48
1000710c:	e63f      	b.n	10006d8e <_vsnprintf+0x5c6>
1000710e:	9b09      	ldr	r3, [sp, #36]	; 0x24
10007110:	001a      	movs	r2, r3
10007112:	ca08      	ldmia	r2!, {r3}
10007114:	17d9      	asrs	r1, r3, #31
10007116:	9213      	str	r2, [sp, #76]	; 0x4c
10007118:	185a      	adds	r2, r3, r1
1000711a:	404a      	eors	r2, r1
1000711c:	4692      	mov	sl, r2
1000711e:	0fda      	lsrs	r2, r3, #31
10007120:	9212      	str	r2, [sp, #72]	; 0x48
10007122:	2b00      	cmp	r3, #0
10007124:	d108      	bne.n	10007138 <_vsnprintf+0x970>
10007126:	2380      	movs	r3, #128	; 0x80
10007128:	2210      	movs	r2, #16
1000712a:	990b      	ldr	r1, [sp, #44]	; 0x2c
1000712c:	00db      	lsls	r3, r3, #3
1000712e:	400b      	ands	r3, r1
10007130:	4391      	bics	r1, r2
10007132:	910b      	str	r1, [sp, #44]	; 0x2c
10007134:	2b00      	cmp	r3, #0
10007136:	d12b      	bne.n	10007190 <_vsnprintf+0x9c8>
10007138:	9a0b      	ldr	r2, [sp, #44]	; 0x2c
1000713a:	2361      	movs	r3, #97	; 0x61
1000713c:	0692      	lsls	r2, r2, #26
1000713e:	d500      	bpl.n	10007142 <_vsnprintf+0x97a>
10007140:	2341      	movs	r3, #65	; 0x41
10007142:	aa0e      	add	r2, sp, #56	; 0x38
10007144:	271f      	movs	r7, #31
10007146:	4694      	mov	ip, r2
10007148:	b2db      	uxtb	r3, r3
1000714a:	3b0a      	subs	r3, #10
1000714c:	950d      	str	r5, [sp, #52]	; 0x34
1000714e:	4467      	add	r7, ip
10007150:	465d      	mov	r5, fp
10007152:	9309      	str	r3, [sp, #36]	; 0x24
10007154:	46a3      	mov	fp, r4
10007156:	4654      	mov	r4, sl
10007158:	46b2      	mov	sl, r6
1000715a:	9e0c      	ldr	r6, [sp, #48]	; 0x30
1000715c:	e008      	b.n	10007170 <_vsnprintf+0x9a8>
1000715e:	3330      	adds	r3, #48	; 0x30
10007160:	b2db      	uxtb	r3, r3
10007162:	3501      	adds	r5, #1
10007164:	557b      	strb	r3, [r7, r5]
10007166:	42b4      	cmp	r4, r6
10007168:	d30e      	bcc.n	10007188 <_vsnprintf+0x9c0>
1000716a:	2d20      	cmp	r5, #32
1000716c:	d00c      	beq.n	10007188 <_vsnprintf+0x9c0>
1000716e:	0004      	movs	r4, r0
10007170:	0031      	movs	r1, r6
10007172:	0020      	movs	r0, r4
10007174:	f000 f94c 	bl	10007410 <__wrap___aeabi_uidiv>
10007178:	b2cb      	uxtb	r3, r1
1000717a:	2909      	cmp	r1, #9
1000717c:	d9ef      	bls.n	1000715e <_vsnprintf+0x996>
1000717e:	9a09      	ldr	r2, [sp, #36]	; 0x24
10007180:	4694      	mov	ip, r2
10007182:	4463      	add	r3, ip
10007184:	b2db      	uxtb	r3, r3
10007186:	e7ec      	b.n	10007162 <_vsnprintf+0x99a>
10007188:	4656      	mov	r6, sl
1000718a:	465c      	mov	r4, fp
1000718c:	46ab      	mov	fp, r5
1000718e:	9d0d      	ldr	r5, [sp, #52]	; 0x34
10007190:	9b0b      	ldr	r3, [sp, #44]	; 0x2c
10007192:	002a      	movs	r2, r5
10007194:	9306      	str	r3, [sp, #24]
10007196:	9b0a      	ldr	r3, [sp, #40]	; 0x28
10007198:	0021      	movs	r1, r4
1000719a:	9305      	str	r3, [sp, #20]
1000719c:	4643      	mov	r3, r8
1000719e:	9304      	str	r3, [sp, #16]
100071a0:	9b0c      	ldr	r3, [sp, #48]	; 0x30
100071a2:	9808      	ldr	r0, [sp, #32]
100071a4:	9303      	str	r3, [sp, #12]
100071a6:	9b12      	ldr	r3, [sp, #72]	; 0x48
100071a8:	3601      	adds	r6, #1
100071aa:	9302      	str	r3, [sp, #8]
100071ac:	465b      	mov	r3, fp
100071ae:	9301      	str	r3, [sp, #4]
100071b0:	ab16      	add	r3, sp, #88	; 0x58
100071b2:	9300      	str	r3, [sp, #0]
100071b4:	464b      	mov	r3, r9
100071b6:	f7fe fe27 	bl	10005e08 <_ntoa_format>
100071ba:	9b13      	ldr	r3, [sp, #76]	; 0x4c
100071bc:	0005      	movs	r5, r0
100071be:	9309      	str	r3, [sp, #36]	; 0x24
100071c0:	f7ff fb27 	bl	10006812 <_vsnprintf+0x4a>
100071c4:	2302      	movs	r3, #2
100071c6:	930c      	str	r3, [sp, #48]	; 0x30
100071c8:	e71a      	b.n	10007000 <_vsnprintf+0x838>
100071ca:	9b09      	ldr	r3, [sp, #36]	; 0x24
100071cc:	cb04      	ldmia	r3!, {r2}
100071ce:	4692      	mov	sl, r2
100071d0:	9312      	str	r3, [sp, #72]	; 0x48
100071d2:	2a00      	cmp	r2, #0
100071d4:	d108      	bne.n	100071e8 <_vsnprintf+0xa20>
100071d6:	2380      	movs	r3, #128	; 0x80
100071d8:	2210      	movs	r2, #16
100071da:	990b      	ldr	r1, [sp, #44]	; 0x2c
100071dc:	00db      	lsls	r3, r3, #3
100071de:	400b      	ands	r3, r1
100071e0:	4391      	bics	r1, r2
100071e2:	910b      	str	r1, [sp, #44]	; 0x2c
100071e4:	2b00      	cmp	r3, #0
100071e6:	d12b      	bne.n	10007240 <_vsnprintf+0xa78>
100071e8:	9a0b      	ldr	r2, [sp, #44]	; 0x2c
100071ea:	2361      	movs	r3, #97	; 0x61
100071ec:	0692      	lsls	r2, r2, #26
100071ee:	d500      	bpl.n	100071f2 <_vsnprintf+0xa2a>
100071f0:	2341      	movs	r3, #65	; 0x41
100071f2:	aa0e      	add	r2, sp, #56	; 0x38
100071f4:	271f      	movs	r7, #31
100071f6:	4694      	mov	ip, r2
100071f8:	b2db      	uxtb	r3, r3
100071fa:	3b0a      	subs	r3, #10
100071fc:	950d      	str	r5, [sp, #52]	; 0x34
100071fe:	4467      	add	r7, ip
10007200:	465d      	mov	r5, fp
10007202:	9309      	str	r3, [sp, #36]	; 0x24
10007204:	46a3      	mov	fp, r4
10007206:	4654      	mov	r4, sl
10007208:	46b2      	mov	sl, r6
1000720a:	9e0c      	ldr	r6, [sp, #48]	; 0x30
1000720c:	e008      	b.n	10007220 <_vsnprintf+0xa58>
1000720e:	3330      	adds	r3, #48	; 0x30
10007210:	b2db      	uxtb	r3, r3
10007212:	3501      	adds	r5, #1
10007214:	557b      	strb	r3, [r7, r5]
10007216:	42b4      	cmp	r4, r6
10007218:	d30e      	bcc.n	10007238 <_vsnprintf+0xa70>
1000721a:	2d20      	cmp	r5, #32
1000721c:	d00c      	beq.n	10007238 <_vsnprintf+0xa70>
1000721e:	0004      	movs	r4, r0
10007220:	0031      	movs	r1, r6
10007222:	0020      	movs	r0, r4
10007224:	f000 f8f4 	bl	10007410 <__wrap___aeabi_uidiv>
10007228:	b2cb      	uxtb	r3, r1
1000722a:	2909      	cmp	r1, #9
1000722c:	d9ef      	bls.n	1000720e <_vsnprintf+0xa46>
1000722e:	9a09      	ldr	r2, [sp, #36]	; 0x24
10007230:	4694      	mov	ip, r2
10007232:	4463      	add	r3, ip
10007234:	b2db      	uxtb	r3, r3
10007236:	e7ec      	b.n	10007212 <_vsnprintf+0xa4a>
10007238:	4656      	mov	r6, sl
1000723a:	465c      	mov	r4, fp
1000723c:	46ab      	mov	fp, r5
1000723e:	9d0d      	ldr	r5, [sp, #52]	; 0x34
10007240:	9b0b      	ldr	r3, [sp, #44]	; 0x2c
10007242:	002a      	movs	r2, r5
10007244:	9306      	str	r3, [sp, #24]
10007246:	9b0a      	ldr	r3, [sp, #40]	; 0x28
10007248:	0021      	movs	r1, r4
1000724a:	9305      	str	r3, [sp, #20]
1000724c:	4643      	mov	r3, r8
1000724e:	9304      	str	r3, [sp, #16]
10007250:	9b0c      	ldr	r3, [sp, #48]	; 0x30
10007252:	9808      	ldr	r0, [sp, #32]
10007254:	9303      	str	r3, [sp, #12]
10007256:	2300      	movs	r3, #0
10007258:	9302      	str	r3, [sp, #8]
1000725a:	465b      	mov	r3, fp
1000725c:	9301      	str	r3, [sp, #4]
1000725e:	ab16      	add	r3, sp, #88	; 0x58
10007260:	9300      	str	r3, [sp, #0]
10007262:	464b      	mov	r3, r9
10007264:	f7fe fdd0 	bl	10005e08 <_ntoa_format>
10007268:	9b12      	ldr	r3, [sp, #72]	; 0x48
1000726a:	0005      	movs	r5, r0
1000726c:	9309      	str	r3, [sp, #36]	; 0x24
1000726e:	3601      	adds	r6, #1
10007270:	f7ff facf 	bl	10006812 <_vsnprintf+0x4a>
10007274:	42b4      	cmp	r4, r6
10007276:	d800      	bhi.n	1000727a <_vsnprintf+0xab2>
10007278:	e671      	b.n	10006f5e <_vsnprintf+0x796>
1000727a:	9b14      	ldr	r3, [sp, #80]	; 0x50
1000727c:	4654      	mov	r4, sl
1000727e:	960e      	str	r6, [sp, #56]	; 0x38
10007280:	970f      	str	r7, [sp, #60]	; 0x3c
10007282:	46aa      	mov	sl, r5
10007284:	4698      	mov	r8, r3
10007286:	9e15      	ldr	r6, [sp, #84]	; 0x54
10007288:	9d13      	ldr	r5, [sp, #76]	; 0x4c
1000728a:	e68e      	b.n	10006faa <_vsnprintf+0x7e2>
1000728c:	42a6      	cmp	r6, r4
1000728e:	d800      	bhi.n	10007292 <_vsnprintf+0xaca>
10007290:	e6fb      	b.n	1000708a <_vsnprintf+0x8c2>
10007292:	9b13      	ldr	r3, [sp, #76]	; 0x4c
10007294:	4656      	mov	r6, sl
10007296:	4698      	mov	r8, r3
10007298:	46aa      	mov	sl, r5
1000729a:	465c      	mov	r4, fp
1000729c:	9d12      	ldr	r5, [sp, #72]	; 0x48
1000729e:	e576      	b.n	10006d8e <_vsnprintf+0x5c6>
100072a0:	c908      	ldmia	r1!, {r3}
100072a2:	17d8      	asrs	r0, r3, #31
100072a4:	181a      	adds	r2, r3, r0
100072a6:	4042      	eors	r2, r0
100072a8:	9109      	str	r1, [sp, #36]	; 0x24
100072aa:	f7ff fb8a 	bl	100069c2 <_vsnprintf+0x1fa>
100072ae:	2300      	movs	r3, #0
100072b0:	930b      	str	r3, [sp, #44]	; 0x2c
100072b2:	e450      	b.n	10006b56 <_vsnprintf+0x38e>
100072b4:	9b09      	ldr	r3, [sp, #36]	; 0x24
100072b6:	cb04      	ldmia	r3!, {r2}
100072b8:	4693      	mov	fp, r2
100072ba:	9309      	str	r3, [sp, #36]	; 0x24
100072bc:	e559      	b.n	10006d72 <_vsnprintf+0x5aa>
100072be:	002f      	movs	r7, r5
100072c0:	e5bb      	b.n	10006e3a <_vsnprintf+0x672>
100072c2:	930b      	str	r3, [sp, #44]	; 0x2c
100072c4:	e601      	b.n	10006eca <_vsnprintf+0x702>
100072c6:	3b06      	subs	r3, #6
100072c8:	930c      	str	r3, [sp, #48]	; 0x30
100072ca:	e69a      	b.n	10007002 <_vsnprintf+0x83a>

100072cc <__wrap_sprintf>:
100072cc:	b40e      	push	{r1, r2, r3}
100072ce:	2201      	movs	r2, #1
100072d0:	b510      	push	{r4, lr}
100072d2:	b085      	sub	sp, #20
100072d4:	ac07      	add	r4, sp, #28
100072d6:	cc08      	ldmia	r4!, {r3}
100072d8:	0001      	movs	r1, r0
100072da:	9400      	str	r4, [sp, #0]
100072dc:	4252      	negs	r2, r2
100072de:	4804      	ldr	r0, [pc, #16]	; (100072f0 <__wrap_sprintf+0x24>)
100072e0:	9403      	str	r4, [sp, #12]
100072e2:	f7ff fa71 	bl	100067c8 <_vsnprintf>
100072e6:	b005      	add	sp, #20
100072e8:	bc10      	pop	{r4}
100072ea:	bc08      	pop	{r3}
100072ec:	b003      	add	sp, #12
100072ee:	4718      	bx	r3
100072f0:	10005d61 	.word	0x10005d61

100072f4 <__wrap_snprintf>:
100072f4:	b40c      	push	{r2, r3}
100072f6:	b510      	push	{r4, lr}
100072f8:	b084      	sub	sp, #16
100072fa:	ac06      	add	r4, sp, #24
100072fc:	cc08      	ldmia	r4!, {r3}
100072fe:	000a      	movs	r2, r1
10007300:	9400      	str	r4, [sp, #0]
10007302:	0001      	movs	r1, r0
10007304:	4804      	ldr	r0, [pc, #16]	; (10007318 <__wrap_snprintf+0x24>)
10007306:	9403      	str	r4, [sp, #12]
10007308:	f7ff fa5e 	bl	100067c8 <_vsnprintf>
1000730c:	b004      	add	sp, #16
1000730e:	bc10      	pop	{r4}
10007310:	bc08      	pop	{r3}
10007312:	b002      	add	sp, #8
10007314:	4718      	bx	r3
10007316:	46c0      	nop			; (mov r8, r8)
10007318:	10005d61 	.word	0x10005d61

1000731c <weak_raw_vprintf>:
1000731c:	b510      	push	{r4, lr}
1000731e:	4a09      	ldr	r2, [pc, #36]	; (10007344 <weak_raw_vprintf+0x28>)
10007320:	0003      	movs	r3, r0
10007322:	6814      	ldr	r4, [r2, #0]
10007324:	b084      	sub	sp, #16
10007326:	2c00      	cmp	r4, #0
10007328:	d008      	beq.n	1000733c <weak_raw_vprintf+0x20>
1000732a:	2201      	movs	r2, #1
1000732c:	9100      	str	r1, [sp, #0]
1000732e:	4806      	ldr	r0, [pc, #24]	; (10007348 <weak_raw_vprintf+0x2c>)
10007330:	4252      	negs	r2, r2
10007332:	a903      	add	r1, sp, #12
10007334:	47a0      	blx	r4
10007336:	2001      	movs	r0, #1
10007338:	b004      	add	sp, #16
1000733a:	bd10      	pop	{r4, pc}
1000733c:	f001 f97a 	bl	10008634 <__wrap_puts>
10007340:	2000      	movs	r0, #0
10007342:	e7f9      	b.n	10007338 <weak_raw_vprintf+0x1c>
10007344:	20026b10 	.word	0x20026b10
10007348:	10005fd5 	.word	0x10005fd5

1000734c <__aeabi_bits_init>:
1000734c:	4801      	ldr	r0, [pc, #4]	; (10007354 <__aeabi_bits_init+0x8>)
1000734e:	2104      	movs	r1, #4
10007350:	4b01      	ldr	r3, [pc, #4]	; (10007358 <__aeabi_bits_init+0xc>)
10007352:	4718      	bx	r3
10007354:	20000520 	.word	0x20000520
10007358:	1000737d 	.word	0x1000737d

1000735c <rom_func_lookup>:
1000735c:	2314      	movs	r3, #20
1000735e:	b510      	push	{r4, lr}
10007360:	0001      	movs	r1, r0
10007362:	8818      	ldrh	r0, [r3, #0]
10007364:	3304      	adds	r3, #4
10007366:	881b      	ldrh	r3, [r3, #0]
10007368:	4798      	blx	r3
1000736a:	bd10      	pop	{r4, pc}

1000736c <rom_data_lookup>:
1000736c:	2316      	movs	r3, #22
1000736e:	b510      	push	{r4, lr}
10007370:	0001      	movs	r1, r0
10007372:	8818      	ldrh	r0, [r3, #0]
10007374:	3302      	adds	r3, #2
10007376:	881b      	ldrh	r3, [r3, #0]
10007378:	4798      	blx	r3
1000737a:	bd10      	pop	{r4, pc}

1000737c <rom_funcs_lookup>:
1000737c:	b5f8      	push	{r3, r4, r5, r6, r7, lr}
1000737e:	4647      	mov	r7, r8
10007380:	46ce      	mov	lr, r9
10007382:	b580      	push	{r7, lr}
10007384:	1e0f      	subs	r7, r1, #0
10007386:	d019      	beq.n	100073bc <rom_funcs_lookup+0x40>
10007388:	2314      	movs	r3, #20
1000738a:	4699      	mov	r9, r3
1000738c:	3304      	adds	r3, #4
1000738e:	0004      	movs	r4, r0
10007390:	2500      	movs	r5, #0
10007392:	2601      	movs	r6, #1
10007394:	4698      	mov	r8, r3
10007396:	464b      	mov	r3, r9
10007398:	8818      	ldrh	r0, [r3, #0]
1000739a:	4643      	mov	r3, r8
1000739c:	6821      	ldr	r1, [r4, #0]
1000739e:	881b      	ldrh	r3, [r3, #0]
100073a0:	4798      	blx	r3
100073a2:	c401      	stmia	r4!, {r0}
100073a4:	1e43      	subs	r3, r0, #1
100073a6:	4198      	sbcs	r0, r3
100073a8:	3501      	adds	r5, #1
100073aa:	4240      	negs	r0, r0
100073ac:	4006      	ands	r6, r0
100073ae:	42af      	cmp	r7, r5
100073b0:	d1f1      	bne.n	10007396 <rom_funcs_lookup+0x1a>
100073b2:	0030      	movs	r0, r6
100073b4:	bcc0      	pop	{r6, r7}
100073b6:	46b9      	mov	r9, r7
100073b8:	46b0      	mov	r8, r6
100073ba:	bdf8      	pop	{r3, r4, r5, r6, r7, pc}
100073bc:	2601      	movs	r6, #1
100073be:	e7f8      	b.n	100073b2 <rom_funcs_lookup+0x36>

100073c0 <__wrap___aeabi_idiv>:
100073c0:	4a12      	ldr	r2, [pc, #72]	; (1000740c <divmod_s32s32_savestate+0x18>)
100073c2:	6f93      	ldr	r3, [r2, #120]	; 0x78
100073c4:	089b      	lsrs	r3, r3, #2
100073c6:	d215      	bcs.n	100073f4 <divmod_s32s32_savestate>

100073c8 <divmod_s32s32_unsafe>:
100073c8:	6690      	str	r0, [r2, #104]	; 0x68
100073ca:	66d1      	str	r1, [r2, #108]	; 0x6c
100073cc:	2900      	cmp	r1, #0
100073ce:	d005      	beq.n	100073dc <divmod_s32s32_unsafe+0x14>
100073d0:	e7ff      	b.n	100073d2 <divmod_s32s32_unsafe+0xa>
100073d2:	e7ff      	b.n	100073d4 <divmod_s32s32_unsafe+0xc>
100073d4:	e7ff      	b.n	100073d6 <divmod_s32s32_unsafe+0xe>
100073d6:	6f51      	ldr	r1, [r2, #116]	; 0x74
100073d8:	6f10      	ldr	r0, [r2, #112]	; 0x70
100073da:	4770      	bx	lr
100073dc:	b504      	push	{r2, lr}
100073de:	2180      	movs	r1, #128	; 0x80
100073e0:	0609      	lsls	r1, r1, #24
100073e2:	17c2      	asrs	r2, r0, #31
100073e4:	4051      	eors	r1, r2
100073e6:	2800      	cmp	r0, #0
100073e8:	d000      	beq.n	100073ec <divmod_s32s32_unsafe+0x24>
100073ea:	43c8      	mvns	r0, r1
100073ec:	f003 ff08 	bl	1000b200 <____aeabi_idiv0_veneer>
100073f0:	2100      	movs	r1, #0
100073f2:	bd04      	pop	{r2, pc}

100073f4 <divmod_s32s32_savestate>:
100073f4:	b5f0      	push	{r4, r5, r6, r7, lr}
100073f6:	6e14      	ldr	r4, [r2, #96]	; 0x60
100073f8:	6e55      	ldr	r5, [r2, #100]	; 0x64
100073fa:	6f57      	ldr	r7, [r2, #116]	; 0x74
100073fc:	6f16      	ldr	r6, [r2, #112]	; 0x70
100073fe:	f7ff ffe3 	bl	100073c8 <divmod_s32s32_unsafe>
10007402:	6614      	str	r4, [r2, #96]	; 0x60
10007404:	6655      	str	r5, [r2, #100]	; 0x64
10007406:	6757      	str	r7, [r2, #116]	; 0x74
10007408:	6716      	str	r6, [r2, #112]	; 0x70
1000740a:	bdf0      	pop	{r4, r5, r6, r7, pc}
1000740c:	d0000000 	.word	0xd0000000

10007410 <__wrap___aeabi_uidiv>:
10007410:	4a11      	ldr	r2, [pc, #68]	; (10007458 <divmod_u32u32_savestate+0x18>)
10007412:	6f93      	ldr	r3, [r2, #120]	; 0x78
10007414:	089b      	lsrs	r3, r3, #2
10007416:	d213      	bcs.n	10007440 <divmod_u32u32_savestate>

10007418 <divmod_u32u32_unsafe>:
10007418:	6610      	str	r0, [r2, #96]	; 0x60
1000741a:	6651      	str	r1, [r2, #100]	; 0x64
1000741c:	2900      	cmp	r1, #0
1000741e:	d005      	beq.n	1000742c <divmod_u32u32_unsafe+0x14>
10007420:	e7ff      	b.n	10007422 <divmod_u32u32_unsafe+0xa>
10007422:	e7ff      	b.n	10007424 <divmod_u32u32_unsafe+0xc>
10007424:	e7ff      	b.n	10007426 <divmod_u32u32_unsafe+0xe>
10007426:	6f51      	ldr	r1, [r2, #116]	; 0x74
10007428:	6f10      	ldr	r0, [r2, #112]	; 0x70
1000742a:	4770      	bx	lr
1000742c:	b504      	push	{r2, lr}
1000742e:	2800      	cmp	r0, #0
10007430:	d001      	beq.n	10007436 <divmod_u32u32_unsafe+0x1e>
10007432:	2000      	movs	r0, #0
10007434:	43c0      	mvns	r0, r0
10007436:	f003 fee3 	bl	1000b200 <____aeabi_idiv0_veneer>
1000743a:	2100      	movs	r1, #0
1000743c:	bd04      	pop	{r2, pc}
1000743e:	46c0      	nop			; (mov r8, r8)

10007440 <divmod_u32u32_savestate>:
10007440:	b5f0      	push	{r4, r5, r6, r7, lr}
10007442:	6e14      	ldr	r4, [r2, #96]	; 0x60
10007444:	6e55      	ldr	r5, [r2, #100]	; 0x64
10007446:	6f57      	ldr	r7, [r2, #116]	; 0x74
10007448:	6f16      	ldr	r6, [r2, #112]	; 0x70
1000744a:	f7ff ffe5 	bl	10007418 <divmod_u32u32_unsafe>
1000744e:	6614      	str	r4, [r2, #96]	; 0x60
10007450:	6655      	str	r5, [r2, #100]	; 0x64
10007452:	6757      	str	r7, [r2, #116]	; 0x74
10007454:	6716      	str	r6, [r2, #112]	; 0x70
10007456:	bdf0      	pop	{r4, r5, r6, r7, pc}
10007458:	d0000000 	.word	0xd0000000

1000745c <__wrap___aeabi_ldivmod>:
1000745c:	4694      	mov	ip, r2
1000745e:	4a4e      	ldr	r2, [pc, #312]	; (10007598 <udiv0+0x1a>)
10007460:	6f92      	ldr	r2, [r2, #120]	; 0x78
10007462:	0892      	lsrs	r2, r2, #2
10007464:	4662      	mov	r2, ip
10007466:	d201      	bcs.n	1000746c <divmod_s64s64_savestate>
10007468:	e030      	b.n	100074cc <divmod_s64s64_unsafe>
1000746a:	46c0      	nop			; (mov r8, r8)

1000746c <divmod_s64s64_savestate>:
1000746c:	b5f0      	push	{r4, r5, r6, r7, lr}
1000746e:	4e4a      	ldr	r6, [pc, #296]	; (10007598 <udiv0+0x1a>)
10007470:	6fb5      	ldr	r5, [r6, #120]	; 0x78
10007472:	086d      	lsrs	r5, r5, #1
10007474:	d3fc      	bcc.n	10007470 <divmod_s64s64_savestate+0x4>
10007476:	6e34      	ldr	r4, [r6, #96]	; 0x60
10007478:	6e75      	ldr	r5, [r6, #100]	; 0x64
1000747a:	6f77      	ldr	r7, [r6, #116]	; 0x74
1000747c:	6f36      	ldr	r6, [r6, #112]	; 0x70
1000747e:	f000 f825 	bl	100074cc <divmod_s64s64_unsafe>
10007482:	4694      	mov	ip, r2
10007484:	4a44      	ldr	r2, [pc, #272]	; (10007598 <udiv0+0x1a>)
10007486:	6614      	str	r4, [r2, #96]	; 0x60
10007488:	6655      	str	r5, [r2, #100]	; 0x64
1000748a:	6757      	str	r7, [r2, #116]	; 0x74
1000748c:	6716      	str	r6, [r2, #112]	; 0x70
1000748e:	4662      	mov	r2, ip
10007490:	bdf0      	pop	{r4, r5, r6, r7, pc}
10007492:	46c0      	nop			; (mov r8, r8)

10007494 <__wrap___aeabi_uldivmod>:
10007494:	4694      	mov	ip, r2
10007496:	4a40      	ldr	r2, [pc, #256]	; (10007598 <udiv0+0x1a>)
10007498:	6f92      	ldr	r2, [r2, #120]	; 0x78
1000749a:	0892      	lsrs	r2, r2, #2
1000749c:	4662      	mov	r2, ip
1000749e:	d201      	bcs.n	100074a4 <divmod_u64u64_savestate>
100074a0:	e058      	b.n	10007554 <divmod_u64u64_unsafe>
100074a2:	46c0      	nop			; (mov r8, r8)

100074a4 <divmod_u64u64_savestate>:
100074a4:	b5f0      	push	{r4, r5, r6, r7, lr}
100074a6:	4e3c      	ldr	r6, [pc, #240]	; (10007598 <udiv0+0x1a>)
100074a8:	6fb5      	ldr	r5, [r6, #120]	; 0x78
100074aa:	086d      	lsrs	r5, r5, #1
100074ac:	d3fc      	bcc.n	100074a8 <divmod_u64u64_savestate+0x4>
100074ae:	6e34      	ldr	r4, [r6, #96]	; 0x60
100074b0:	6e75      	ldr	r5, [r6, #100]	; 0x64
100074b2:	6f77      	ldr	r7, [r6, #116]	; 0x74
100074b4:	6f36      	ldr	r6, [r6, #112]	; 0x70
100074b6:	f000 f84d 	bl	10007554 <divmod_u64u64_unsafe>
100074ba:	4694      	mov	ip, r2
100074bc:	4a36      	ldr	r2, [pc, #216]	; (10007598 <udiv0+0x1a>)
100074be:	6614      	str	r4, [r2, #96]	; 0x60
100074c0:	6655      	str	r5, [r2, #100]	; 0x64
100074c2:	6757      	str	r7, [r2, #116]	; 0x74
100074c4:	6716      	str	r6, [r2, #112]	; 0x70
100074c6:	4662      	mov	r2, ip
100074c8:	bdf0      	pop	{r4, r5, r6, r7, pc}
100074ca:	46c0      	nop			; (mov r8, r8)

100074cc <divmod_s64s64_unsafe>:
100074cc:	2b00      	cmp	r3, #0
100074ce:	db24      	blt.n	1000751a <l41_1+0x26>
100074d0:	d011      	beq.n	100074f6 <l41_1+0x2>
100074d2:	2900      	cmp	r1, #0
100074d4:	da3e      	bge.n	10007554 <divmod_u64u64_unsafe>
100074d6:	b500      	push	{lr}
100074d8:	43c9      	mvns	r1, r1
100074da:	4240      	negs	r0, r0
100074dc:	d100      	bne.n	100074e0 <l39_1>
100074de:	3101      	adds	r1, #1

100074e0 <l39_1>:
100074e0:	f000 f838 	bl	10007554 <divmod_u64u64_unsafe>
100074e4:	43c9      	mvns	r1, r1
100074e6:	4240      	negs	r0, r0
100074e8:	d100      	bne.n	100074ec <l40_1>
100074ea:	3101      	adds	r1, #1

100074ec <l40_1>:
100074ec:	43db      	mvns	r3, r3
100074ee:	4252      	negs	r2, r2
100074f0:	d100      	bne.n	100074f4 <l41_1>
100074f2:	3301      	adds	r3, #1

100074f4 <l41_1>:
100074f4:	bd00      	pop	{pc}
100074f6:	2a00      	cmp	r2, #0
100074f8:	d1eb      	bne.n	100074d2 <divmod_s64s64_unsafe+0x6>
100074fa:	2800      	cmp	r0, #0
100074fc:	d101      	bne.n	10007502 <l41_1+0xe>
100074fe:	2900      	cmp	r1, #0
10007500:	d005      	beq.n	1000750e <l41_1+0x1a>
10007502:	2000      	movs	r0, #0
10007504:	0fc9      	lsrs	r1, r1, #31
10007506:	07c9      	lsls	r1, r1, #31
10007508:	d101      	bne.n	1000750e <l41_1+0x1a>
1000750a:	43c0      	mvns	r0, r0
1000750c:	0841      	lsrs	r1, r0, #1
1000750e:	b500      	push	{lr}
10007510:	f003 fe6e 	bl	1000b1f0 <____aeabi_ldiv0_veneer>
10007514:	2200      	movs	r2, #0
10007516:	2300      	movs	r3, #0
10007518:	bd00      	pop	{pc}
1000751a:	b500      	push	{lr}
1000751c:	2900      	cmp	r1, #0
1000751e:	db0a      	blt.n	10007536 <l43_1+0x2>
10007520:	43db      	mvns	r3, r3
10007522:	4252      	negs	r2, r2
10007524:	d100      	bne.n	10007528 <l42_1>
10007526:	3301      	adds	r3, #1

10007528 <l42_1>:
10007528:	f000 f814 	bl	10007554 <divmod_u64u64_unsafe>
1000752c:	43c9      	mvns	r1, r1
1000752e:	4240      	negs	r0, r0
10007530:	d100      	bne.n	10007534 <l43_1>
10007532:	3101      	adds	r1, #1

10007534 <l43_1>:
10007534:	bd00      	pop	{pc}
10007536:	43c9      	mvns	r1, r1
10007538:	4240      	negs	r0, r0
1000753a:	d100      	bne.n	1000753e <l44_1>
1000753c:	3101      	adds	r1, #1

1000753e <l44_1>:
1000753e:	43db      	mvns	r3, r3
10007540:	4252      	negs	r2, r2
10007542:	d100      	bne.n	10007546 <l45_1>
10007544:	3301      	adds	r3, #1

10007546 <l45_1>:
10007546:	f000 f805 	bl	10007554 <divmod_u64u64_unsafe>
1000754a:	43db      	mvns	r3, r3
1000754c:	4252      	negs	r2, r2
1000754e:	d100      	bne.n	10007552 <l46_1>
10007550:	3301      	adds	r3, #1

10007552 <l46_1>:
10007552:	bd00      	pop	{pc}

10007554 <divmod_u64u64_unsafe>:
10007554:	2900      	cmp	r1, #0
10007556:	d123      	bne.n	100075a0 <y64>
10007558:	2b00      	cmp	r3, #0
1000755a:	d118      	bne.n	1000758e <udiv0+0x10>
1000755c:	2a00      	cmp	r2, #0
1000755e:	d00c      	beq.n	1000757a <divmod_u64u64_unsafe+0x26>
10007560:	46bc      	mov	ip, r7
10007562:	4f0d      	ldr	r7, [pc, #52]	; (10007598 <udiv0+0x1a>)
10007564:	6638      	str	r0, [r7, #96]	; 0x60
10007566:	667a      	str	r2, [r7, #100]	; 0x64
10007568:	2100      	movs	r1, #0
1000756a:	2300      	movs	r3, #0
1000756c:	e7ff      	b.n	1000756e <divmod_u64u64_unsafe+0x1a>
1000756e:	e7ff      	b.n	10007570 <divmod_u64u64_unsafe+0x1c>
10007570:	e7ff      	b.n	10007572 <divmod_u64u64_unsafe+0x1e>
10007572:	6f7a      	ldr	r2, [r7, #116]	; 0x74
10007574:	6f38      	ldr	r0, [r7, #112]	; 0x70
10007576:	4667      	mov	r7, ip
10007578:	4770      	bx	lr
1000757a:	2800      	cmp	r0, #0
1000757c:	d001      	beq.n	10007582 <udiv0+0x4>

1000757e <udiv0>:
1000757e:	4807      	ldr	r0, [pc, #28]	; (1000759c <udiv0+0x1e>)
10007580:	0001      	movs	r1, r0
10007582:	b500      	push	{lr}
10007584:	f003 fe34 	bl	1000b1f0 <____aeabi_ldiv0_veneer>
10007588:	2200      	movs	r2, #0
1000758a:	2300      	movs	r3, #0
1000758c:	bd00      	pop	{pc}
1000758e:	0002      	movs	r2, r0
10007590:	000b      	movs	r3, r1
10007592:	2000      	movs	r0, #0
10007594:	2100      	movs	r1, #0
10007596:	4770      	bx	lr
10007598:	d0000000 	.word	0xd0000000
1000759c:	ffffffff 	.word	0xffffffff

100075a0 <y64>:
100075a0:	2b00      	cmp	r3, #0
100075a2:	d000      	beq.n	100075a6 <y64+0x6>
100075a4:	e0bf      	b.n	10007726 <y64_x48>
100075a6:	0c13      	lsrs	r3, r2, #16
100075a8:	d128      	bne.n	100075fc <y64_x32>
100075aa:	2a00      	cmp	r2, #0
100075ac:	d0e7      	beq.n	1000757e <udiv0>
100075ae:	b480      	push	{r7}
100075b0:	4f11      	ldr	r7, [pc, #68]	; (100075f8 <y64+0x58>)
100075b2:	6639      	str	r1, [r7, #96]	; 0x60
100075b4:	667a      	str	r2, [r7, #100]	; 0x64
100075b6:	e7ff      	b.n	100075b8 <y64+0x18>
100075b8:	e7ff      	b.n	100075ba <y64+0x1a>
100075ba:	b430      	push	{r4, r5}
100075bc:	0c04      	lsrs	r4, r0, #16
100075be:	6f7b      	ldr	r3, [r7, #116]	; 0x74
100075c0:	6f39      	ldr	r1, [r7, #112]	; 0x70
100075c2:	041b      	lsls	r3, r3, #16
100075c4:	4323      	orrs	r3, r4
100075c6:	663b      	str	r3, [r7, #96]	; 0x60
100075c8:	667a      	str	r2, [r7, #100]	; 0x64
100075ca:	e7ff      	b.n	100075cc <y64+0x2c>
100075cc:	e7ff      	b.n	100075ce <y64+0x2e>
100075ce:	e7ff      	b.n	100075d0 <y64+0x30>
100075d0:	46c0      	nop			; (mov r8, r8)
100075d2:	b284      	uxth	r4, r0
100075d4:	6f7b      	ldr	r3, [r7, #116]	; 0x74
100075d6:	6f3d      	ldr	r5, [r7, #112]	; 0x70
100075d8:	041b      	lsls	r3, r3, #16
100075da:	4323      	orrs	r3, r4
100075dc:	663b      	str	r3, [r7, #96]	; 0x60
100075de:	667a      	str	r2, [r7, #100]	; 0x64
100075e0:	e7ff      	b.n	100075e2 <y64+0x42>
100075e2:	e7ff      	b.n	100075e4 <y64+0x44>
100075e4:	46c0      	nop			; (mov r8, r8)
100075e6:	2300      	movs	r3, #0
100075e8:	042c      	lsls	r4, r5, #16
100075ea:	0c2d      	lsrs	r5, r5, #16
100075ec:	6f7a      	ldr	r2, [r7, #116]	; 0x74
100075ee:	6f38      	ldr	r0, [r7, #112]	; 0x70
100075f0:	1900      	adds	r0, r0, r4
100075f2:	4169      	adcs	r1, r5
100075f4:	bcb0      	pop	{r4, r5, r7}
100075f6:	4770      	bx	lr
100075f8:	d0000000 	.word	0xd0000000

100075fc <y64_x32>:
100075fc:	b5f0      	push	{r4, r5, r6, r7, lr}
100075fe:	4694      	mov	ip, r2
10007600:	2500      	movs	r5, #0
10007602:	0e14      	lsrs	r4, r2, #24
10007604:	d101      	bne.n	1000760a <y64_x32+0xe>
10007606:	0212      	lsls	r2, r2, #8
10007608:	3508      	adds	r5, #8
1000760a:	0f14      	lsrs	r4, r2, #28
1000760c:	d101      	bne.n	10007612 <y64_x32+0x16>
1000760e:	0112      	lsls	r2, r2, #4
10007610:	3504      	adds	r5, #4
10007612:	0f94      	lsrs	r4, r2, #30
10007614:	d101      	bne.n	1000761a <y64_x32+0x1e>
10007616:	0092      	lsls	r2, r2, #2
10007618:	3502      	adds	r5, #2
1000761a:	0fd4      	lsrs	r4, r2, #31
1000761c:	d101      	bne.n	10007622 <y64_x32+0x26>
1000761e:	0052      	lsls	r2, r2, #1
10007620:	3501      	adds	r5, #1
10007622:	0bd4      	lsrs	r4, r2, #15
10007624:	3401      	adds	r4, #1
10007626:	4f25      	ldr	r7, [pc, #148]	; (100076bc <y64_x32+0xc0>)
10007628:	667c      	str	r4, [r7, #100]	; 0x64
1000762a:	4c25      	ldr	r4, [pc, #148]	; (100076c0 <y64_x32+0xc4>)
1000762c:	663c      	str	r4, [r7, #96]	; 0x60
1000762e:	0c0e      	lsrs	r6, r1, #16
10007630:	b293      	uxth	r3, r2
10007632:	e7ff      	b.n	10007634 <y64_x32+0x38>
10007634:	e7ff      	b.n	10007636 <y64_x32+0x3a>
10007636:	e7ff      	b.n	10007638 <y64_x32+0x3c>
10007638:	6f3c      	ldr	r4, [r7, #112]	; 0x70
1000763a:	4366      	muls	r6, r4
1000763c:	0c36      	lsrs	r6, r6, #16
1000763e:	0377      	lsls	r7, r6, #13
10007640:	46be      	mov	lr, r7
10007642:	4373      	muls	r3, r6
10007644:	0bdf      	lsrs	r7, r3, #15
10007646:	045b      	lsls	r3, r3, #17
10007648:	1ac0      	subs	r0, r0, r3
1000764a:	41b9      	sbcs	r1, r7
1000764c:	0c13      	lsrs	r3, r2, #16
1000764e:	4373      	muls	r3, r6
10007650:	18db      	adds	r3, r3, r3
10007652:	1ac9      	subs	r1, r1, r3
10007654:	08ce      	lsrs	r6, r1, #3
10007656:	4366      	muls	r6, r4
10007658:	0c36      	lsrs	r6, r6, #16
1000765a:	44b6      	add	lr, r6
1000765c:	b293      	uxth	r3, r2
1000765e:	4373      	muls	r3, r6
10007660:	0f1f      	lsrs	r7, r3, #28
10007662:	011b      	lsls	r3, r3, #4
10007664:	1ac0      	subs	r0, r0, r3
10007666:	41b9      	sbcs	r1, r7
10007668:	0c13      	lsrs	r3, r2, #16
1000766a:	4373      	muls	r3, r6
1000766c:	0b1f      	lsrs	r7, r3, #12
1000766e:	051b      	lsls	r3, r3, #20
10007670:	1ac0      	subs	r0, r0, r3
10007672:	41b9      	sbcs	r1, r7
10007674:	0d86      	lsrs	r6, r0, #22
10007676:	028f      	lsls	r7, r1, #10
10007678:	433e      	orrs	r6, r7
1000767a:	4366      	muls	r6, r4
1000767c:	0c36      	lsrs	r6, r6, #16
1000767e:	2d09      	cmp	r5, #9
10007680:	db24      	blt.n	100076cc <last0>
10007682:	0a52      	lsrs	r2, r2, #9
10007684:	4372      	muls	r2, r6
10007686:	1a80      	subs	r0, r0, r2
10007688:	0377      	lsls	r7, r6, #13
1000768a:	0a46      	lsrs	r6, r0, #9
1000768c:	4366      	muls	r6, r4
1000768e:	0c36      	lsrs	r6, r6, #16
10007690:	2316      	movs	r3, #22
10007692:	1b5b      	subs	r3, r3, r5
10007694:	40de      	lsrs	r6, r3
10007696:	40df      	lsrs	r7, r3
10007698:	19bf      	adds	r7, r7, r6
1000769a:	4664      	mov	r4, ip
1000769c:	4366      	muls	r6, r4
1000769e:	1b82      	subs	r2, r0, r6
100076a0:	4670      	mov	r0, lr
100076a2:	3504      	adds	r5, #4
100076a4:	3306      	adds	r3, #6
100076a6:	0001      	movs	r1, r0
100076a8:	40d9      	lsrs	r1, r3
100076aa:	40a8      	lsls	r0, r5
100076ac:	19c0      	adds	r0, r0, r7
100076ae:	d300      	bcc.n	100076b2 <y64_x32+0xb6>
100076b0:	3101      	adds	r1, #1
100076b2:	42a2      	cmp	r2, r4
100076b4:	d206      	bcs.n	100076c4 <y64_x32+0xc8>
100076b6:	2300      	movs	r3, #0
100076b8:	bdf0      	pop	{r4, r5, r6, r7, pc}
100076ba:	0000      	.short	0x0000
100076bc:	d0000000 	.word	0xd0000000
100076c0:	ffffffff 	.word	0xffffffff
100076c4:	1b12      	subs	r2, r2, r4
100076c6:	3001      	adds	r0, #1
100076c8:	d3f3      	bcc.n	100076b2 <y64_x32+0xb6>
100076ca:	e7f1      	b.n	100076b0 <y64_x32+0xb4>

100076cc <last0>:
100076cc:	2709      	movs	r7, #9
100076ce:	1b7f      	subs	r7, r7, r5
100076d0:	40fe      	lsrs	r6, r7
100076d2:	4664      	mov	r4, ip
100076d4:	b2a2      	uxth	r2, r4
100076d6:	4372      	muls	r2, r6
100076d8:	1a80      	subs	r0, r0, r2
100076da:	d200      	bcs.n	100076de <last0+0x12>
100076dc:	3901      	subs	r1, #1
100076de:	0c22      	lsrs	r2, r4, #16
100076e0:	4372      	muls	r2, r6
100076e2:	0c13      	lsrs	r3, r2, #16
100076e4:	0412      	lsls	r2, r2, #16
100076e6:	1a82      	subs	r2, r0, r2
100076e8:	4199      	sbcs	r1, r3
100076ea:	000b      	movs	r3, r1
100076ec:	4670      	mov	r0, lr
100076ee:	3504      	adds	r5, #4
100076f0:	3713      	adds	r7, #19
100076f2:	0001      	movs	r1, r0
100076f4:	40f9      	lsrs	r1, r7
100076f6:	40a8      	lsls	r0, r5
100076f8:	1980      	adds	r0, r0, r6
100076fa:	d300      	bcc.n	100076fe <last0+0x32>
100076fc:	3101      	adds	r1, #1
100076fe:	2b00      	cmp	r3, #0
10007700:	d102      	bne.n	10007708 <last0+0x3c>
10007702:	42a2      	cmp	r2, r4
10007704:	d20a      	bcs.n	1000771c <last0+0x50>
10007706:	bdf0      	pop	{r4, r5, r6, r7, pc}
10007708:	3001      	adds	r0, #1
1000770a:	d300      	bcc.n	1000770e <last0+0x42>
1000770c:	3101      	adds	r1, #1
1000770e:	1b12      	subs	r2, r2, r4
10007710:	d2fa      	bcs.n	10007708 <last0+0x3c>
10007712:	3b01      	subs	r3, #1
10007714:	d1f8      	bne.n	10007708 <last0+0x3c>
10007716:	42a2      	cmp	r2, r4
10007718:	d200      	bcs.n	1000771c <last0+0x50>
1000771a:	bdf0      	pop	{r4, r5, r6, r7, pc}
1000771c:	3001      	adds	r0, #1
1000771e:	d300      	bcc.n	10007722 <last0+0x56>
10007720:	3101      	adds	r1, #1
10007722:	1b12      	subs	r2, r2, r4
10007724:	e7f7      	b.n	10007716 <last0+0x4a>

10007726 <y64_x48>:
10007726:	b5f0      	push	{r4, r5, r6, r7, lr}
10007728:	0c1c      	lsrs	r4, r3, #16
1000772a:	d000      	beq.n	1000772e <y64_x48+0x8>
1000772c:	e080      	b.n	10007830 <y64_x64>
1000772e:	b40c      	push	{r2, r3}
10007730:	2500      	movs	r5, #0
10007732:	0a1c      	lsrs	r4, r3, #8
10007734:	d104      	bne.n	10007740 <y64_x48+0x1a>
10007736:	021b      	lsls	r3, r3, #8
10007738:	0e16      	lsrs	r6, r2, #24
1000773a:	4333      	orrs	r3, r6
1000773c:	0212      	lsls	r2, r2, #8
1000773e:	3508      	adds	r5, #8
10007740:	0b1c      	lsrs	r4, r3, #12
10007742:	d104      	bne.n	1000774e <y64_x48+0x28>
10007744:	011b      	lsls	r3, r3, #4
10007746:	0f16      	lsrs	r6, r2, #28
10007748:	4333      	orrs	r3, r6
1000774a:	0112      	lsls	r2, r2, #4
1000774c:	3504      	adds	r5, #4
1000774e:	0b9c      	lsrs	r4, r3, #14
10007750:	d104      	bne.n	1000775c <y64_x48+0x36>
10007752:	009b      	lsls	r3, r3, #2
10007754:	0f96      	lsrs	r6, r2, #30
10007756:	4333      	orrs	r3, r6
10007758:	0092      	lsls	r2, r2, #2
1000775a:	3502      	adds	r5, #2
1000775c:	0bdc      	lsrs	r4, r3, #15
1000775e:	d102      	bne.n	10007766 <y64_x48+0x40>
10007760:	1892      	adds	r2, r2, r2
10007762:	415b      	adcs	r3, r3
10007764:	3501      	adds	r5, #1
10007766:	001c      	movs	r4, r3
10007768:	1897      	adds	r7, r2, r2
1000776a:	4164      	adcs	r4, r4
1000776c:	3401      	adds	r4, #1
1000776e:	4f46      	ldr	r7, [pc, #280]	; (10007888 <y64_x64+0x58>)
10007770:	667c      	str	r4, [r7, #100]	; 0x64
10007772:	4c46      	ldr	r4, [pc, #280]	; (1000788c <y64_x64+0x5c>)
10007774:	663c      	str	r4, [r7, #96]	; 0x60
10007776:	0c0e      	lsrs	r6, r1, #16
10007778:	e7ff      	b.n	1000777a <y64_x48+0x54>
1000777a:	e7ff      	b.n	1000777c <y64_x48+0x56>
1000777c:	e7ff      	b.n	1000777e <y64_x48+0x58>
1000777e:	46c0      	nop			; (mov r8, r8)
10007780:	6f3c      	ldr	r4, [r7, #112]	; 0x70
10007782:	4366      	muls	r6, r4
10007784:	0c36      	lsrs	r6, r6, #16
10007786:	0377      	lsls	r7, r6, #13
10007788:	46be      	mov	lr, r7
1000778a:	b297      	uxth	r7, r2
1000778c:	4377      	muls	r7, r6
1000778e:	1bc0      	subs	r0, r0, r7
10007790:	d200      	bcs.n	10007794 <y64_x48+0x6e>
10007792:	3901      	subs	r1, #1
10007794:	1bc0      	subs	r0, r0, r7
10007796:	d200      	bcs.n	1000779a <y64_x48+0x74>
10007798:	3901      	subs	r1, #1
1000779a:	b29f      	uxth	r7, r3
1000779c:	4377      	muls	r7, r6
1000779e:	1bc9      	subs	r1, r1, r7
100077a0:	1bc9      	subs	r1, r1, r7
100077a2:	0c17      	lsrs	r7, r2, #16
100077a4:	4377      	muls	r7, r6
100077a6:	047e      	lsls	r6, r7, #17
100077a8:	0bff      	lsrs	r7, r7, #15
100077aa:	1b80      	subs	r0, r0, r6
100077ac:	41b9      	sbcs	r1, r7
100077ae:	08ce      	lsrs	r6, r1, #3
100077b0:	4366      	muls	r6, r4
100077b2:	0c36      	lsrs	r6, r6, #16
100077b4:	2d0c      	cmp	r5, #12
100077b6:	db33      	blt.n	10007820 <last1>
100077b8:	44b6      	add	lr, r6
100077ba:	0b12      	lsrs	r2, r2, #12
100077bc:	051f      	lsls	r7, r3, #20
100077be:	433a      	orrs	r2, r7
100077c0:	0b1b      	lsrs	r3, r3, #12
100077c2:	b297      	uxth	r7, r2
100077c4:	4377      	muls	r7, r6
100077c6:	1bc0      	subs	r0, r0, r7
100077c8:	d200      	bcs.n	100077cc <y64_x48+0xa6>
100077ca:	3901      	subs	r1, #1
100077cc:	b29f      	uxth	r7, r3
100077ce:	4377      	muls	r7, r6
100077d0:	1bc9      	subs	r1, r1, r7
100077d2:	0c17      	lsrs	r7, r2, #16
100077d4:	4377      	muls	r7, r6
100077d6:	043e      	lsls	r6, r7, #16
100077d8:	0c3f      	lsrs	r7, r7, #16
100077da:	1b80      	subs	r0, r0, r6
100077dc:	41b9      	sbcs	r1, r7
100077de:	0d86      	lsrs	r6, r0, #22
100077e0:	028f      	lsls	r7, r1, #10
100077e2:	433e      	orrs	r6, r7
100077e4:	4366      	muls	r6, r4
100077e6:	2729      	movs	r7, #41	; 0x29
100077e8:	1b7f      	subs	r7, r7, r5
100077ea:	40fe      	lsrs	r6, r7
100077ec:	3d0c      	subs	r5, #12
100077ee:	4677      	mov	r7, lr
100077f0:	40af      	lsls	r7, r5
100077f2:	19bf      	adds	r7, r7, r6
100077f4:	bc30      	pop	{r4, r5}
100077f6:	b2a2      	uxth	r2, r4
100077f8:	b2ab      	uxth	r3, r5
100077fa:	4372      	muls	r2, r6
100077fc:	4373      	muls	r3, r6
100077fe:	1a80      	subs	r0, r0, r2
10007800:	4199      	sbcs	r1, r3
10007802:	0c22      	lsrs	r2, r4, #16
10007804:	4372      	muls	r2, r6
10007806:	0c13      	lsrs	r3, r2, #16
10007808:	0412      	lsls	r2, r2, #16
1000780a:	1a80      	subs	r0, r0, r2
1000780c:	4199      	sbcs	r1, r3
1000780e:	0002      	movs	r2, r0
10007810:	000b      	movs	r3, r1
10007812:	3701      	adds	r7, #1
10007814:	1b00      	subs	r0, r0, r4
10007816:	41a9      	sbcs	r1, r5
10007818:	d2f9      	bcs.n	1000780e <y64_x48+0xe8>
1000781a:	1e78      	subs	r0, r7, #1
1000781c:	2100      	movs	r1, #0
1000781e:	bdf0      	pop	{r4, r5, r6, r7, pc}

10007820 <last1>:
10007820:	270c      	movs	r7, #12
10007822:	1b7f      	subs	r7, r7, r5
10007824:	40fe      	lsrs	r6, r7
10007826:	4677      	mov	r7, lr
10007828:	0b7f      	lsrs	r7, r7, #13
1000782a:	40af      	lsls	r7, r5
1000782c:	19ff      	adds	r7, r7, r7
1000782e:	e7e0      	b.n	100077f2 <y64_x48+0xcc>

10007830 <y64_x64>:
10007830:	2400      	movs	r4, #0
10007832:	1c5d      	adds	r5, r3, #1
10007834:	d007      	beq.n	10007846 <y64_x64+0x16>
10007836:	4f14      	ldr	r7, [pc, #80]	; (10007888 <y64_x64+0x58>)
10007838:	667d      	str	r5, [r7, #100]	; 0x64
1000783a:	6639      	str	r1, [r7, #96]	; 0x60
1000783c:	e7ff      	b.n	1000783e <y64_x64+0xe>
1000783e:	e7ff      	b.n	10007840 <y64_x64+0x10>
10007840:	e7ff      	b.n	10007842 <y64_x64+0x12>
10007842:	e7ff      	b.n	10007844 <y64_x64+0x14>
10007844:	6f3c      	ldr	r4, [r7, #112]	; 0x70
10007846:	b295      	uxth	r5, r2
10007848:	b29e      	uxth	r6, r3
1000784a:	4365      	muls	r5, r4
1000784c:	4366      	muls	r6, r4
1000784e:	1b40      	subs	r0, r0, r5
10007850:	41b1      	sbcs	r1, r6
10007852:	0c15      	lsrs	r5, r2, #16
10007854:	0c1e      	lsrs	r6, r3, #16
10007856:	4365      	muls	r5, r4
10007858:	4366      	muls	r6, r4
1000785a:	0436      	lsls	r6, r6, #16
1000785c:	0c2f      	lsrs	r7, r5, #16
1000785e:	433e      	orrs	r6, r7
10007860:	042d      	lsls	r5, r5, #16
10007862:	1b40      	subs	r0, r0, r5
10007864:	41b1      	sbcs	r1, r6
10007866:	4299      	cmp	r1, r3
10007868:	d204      	bcs.n	10007874 <y64_x64+0x44>
1000786a:	0002      	movs	r2, r0
1000786c:	000b      	movs	r3, r1
1000786e:	0020      	movs	r0, r4
10007870:	2100      	movs	r1, #0
10007872:	bdf0      	pop	{r4, r5, r6, r7, pc}
10007874:	d101      	bne.n	1000787a <y64_x64+0x4a>
10007876:	4290      	cmp	r0, r2
10007878:	d3f7      	bcc.n	1000786a <y64_x64+0x3a>
1000787a:	1a80      	subs	r0, r0, r2
1000787c:	4199      	sbcs	r1, r3
1000787e:	3401      	adds	r4, #1
10007880:	4299      	cmp	r1, r3
10007882:	d3f2      	bcc.n	1000786a <y64_x64+0x3a>
10007884:	e7f6      	b.n	10007874 <y64_x64+0x44>
10007886:	0000      	.short	0x0000
10007888:	d0000000 	.word	0xd0000000
1000788c:	ffffffff 	.word	0xffffffff

10007890 <__wrap___aeabi_drsub>:
10007890:	4048      	eors	r0, r1
10007892:	4041      	eors	r1, r0
10007894:	4048      	eors	r0, r1

10007896 <__wrap___aeabi_dsub>:
10007896:	b418      	push	{r3, r4}
10007898:	4b1b      	ldr	r3, [pc, #108]	; (10007908 <__wrap___aeabi_dmul+0x12>)
1000789a:	685b      	ldr	r3, [r3, #4]
1000789c:	46fc      	mov	ip, pc
1000789e:	9301      	str	r3, [sp, #4]
100078a0:	bd08      	pop	{r3, pc}
100078a2:	df04      	.short	0xdf04
100078a4:	10007b47 	.word	0x10007b47

100078a8 <__wrap___aeabi_dadd>:
100078a8:	b418      	push	{r3, r4}
100078aa:	4b17      	ldr	r3, [pc, #92]	; (10007908 <__wrap___aeabi_dmul+0x12>)
100078ac:	681b      	ldr	r3, [r3, #0]
100078ae:	46fc      	mov	ip, pc
100078b0:	9301      	str	r3, [sp, #4]
100078b2:	bd08      	pop	{r3, pc}
100078b4:	7b51df00 	.word	0x7b51df00
100078b8:	1000      	.short	0x1000

100078ba <__wrap___aeabi_ddiv>:
100078ba:	4694      	mov	ip, r2
100078bc:	4a13      	ldr	r2, [pc, #76]	; (1000790c <__wrap___aeabi_dmul+0x16>)
100078be:	6f92      	ldr	r2, [r2, #120]	; 0x78
100078c0:	0892      	lsrs	r2, r2, #2
100078c2:	d209      	bcs.n	100078d8 <ddiv_save_state>
100078c4:	4662      	mov	r2, ip

100078c6 <ddiv_shim_call>:
100078c6:	b418      	push	{r3, r4}
100078c8:	4b0f      	ldr	r3, [pc, #60]	; (10007908 <__wrap___aeabi_dmul+0x12>)
100078ca:	68db      	ldr	r3, [r3, #12]
100078cc:	46fc      	mov	ip, pc
100078ce:	9301      	str	r3, [sp, #4]
100078d0:	bd08      	pop	{r3, pc}
100078d2:	df0c      	.short	0xdf0c
100078d4:	10007e09 	.word	0x10007e09

100078d8 <ddiv_save_state>:
100078d8:	4a0c      	ldr	r2, [pc, #48]	; (1000790c <__wrap___aeabi_dmul+0x16>)
100078da:	b5f0      	push	{r4, r5, r6, r7, lr}
100078dc:	6e14      	ldr	r4, [r2, #96]	; 0x60
100078de:	6e55      	ldr	r5, [r2, #100]	; 0x64
100078e0:	6f57      	ldr	r7, [r2, #116]	; 0x74
100078e2:	6f16      	ldr	r6, [r2, #112]	; 0x70
100078e4:	4662      	mov	r2, ip
100078e6:	f7ff ffee 	bl	100078c6 <ddiv_shim_call>
100078ea:	4a08      	ldr	r2, [pc, #32]	; (1000790c <__wrap___aeabi_dmul+0x16>)
100078ec:	6614      	str	r4, [r2, #96]	; 0x60
100078ee:	6655      	str	r5, [r2, #100]	; 0x64
100078f0:	6757      	str	r7, [r2, #116]	; 0x74
100078f2:	6716      	str	r6, [r2, #112]	; 0x70
100078f4:	bdf0      	pop	{r4, r5, r6, r7, pc}

100078f6 <__wrap___aeabi_dmul>:
100078f6:	b418      	push	{r3, r4}
100078f8:	4b03      	ldr	r3, [pc, #12]	; (10007908 <__wrap___aeabi_dmul+0x12>)
100078fa:	689b      	ldr	r3, [r3, #8]
100078fc:	46fc      	mov	ip, pc
100078fe:	9301      	str	r3, [sp, #4]
10007900:	bd08      	pop	{r3, pc}
10007902:	df08      	.short	0xdf08
10007904:	10007cad 	.word	0x10007cad
10007908:	200006a8 	.word	0x200006a8
1000790c:	d0000000 	.word	0xd0000000

10007910 <__wrap___aeabi_cdrcmple>:
10007910:	b5ff      	push	{r0, r1, r2, r3, r4, r5, r6, r7, lr}
10007912:	4050      	eors	r0, r2
10007914:	4042      	eors	r2, r0
10007916:	4050      	eors	r0, r2
10007918:	4059      	eors	r1, r3
1000791a:	404b      	eors	r3, r1
1000791c:	4059      	eors	r1, r3
1000791e:	e000      	b.n	10007922 <__aeabi_dfcmple_guts>

10007920 <__wrap___aeabi_cdcmpeq>:
10007920:	b5ff      	push	{r0, r1, r2, r3, r4, r5, r6, r7, lr}

10007922 <__aeabi_dfcmple_guts>:
10007922:	4f15      	ldr	r7, [pc, #84]	; (10007978 <__aeabi_dfcmple_guts+0x56>)
10007924:	004c      	lsls	r4, r1, #1
10007926:	0d64      	lsrs	r4, r4, #21
10007928:	d003      	beq.n	10007932 <__aeabi_dfcmple_guts+0x10>
1000792a:	42bc      	cmp	r4, r7
1000792c:	d104      	bne.n	10007938 <__aeabi_dfcmple_guts+0x16>
1000792e:	030c      	lsls	r4, r1, #12
10007930:	d814      	bhi.n	1000795c <__aeabi_dfcmple_guts+0x3a>
10007932:	2000      	movs	r0, #0
10007934:	0d09      	lsrs	r1, r1, #20
10007936:	0509      	lsls	r1, r1, #20
10007938:	005c      	lsls	r4, r3, #1
1000793a:	0d64      	lsrs	r4, r4, #21
1000793c:	d003      	beq.n	10007946 <__aeabi_dfcmple_guts+0x24>
1000793e:	42bc      	cmp	r4, r7
10007940:	d104      	bne.n	1000794c <__aeabi_dfcmple_guts+0x2a>
10007942:	031c      	lsls	r4, r3, #12
10007944:	d80a      	bhi.n	1000795c <__aeabi_dfcmple_guts+0x3a>
10007946:	2200      	movs	r2, #0
10007948:	0d1b      	lsrs	r3, r3, #20
1000794a:	051b      	lsls	r3, r3, #20
1000794c:	2601      	movs	r6, #1
1000794e:	404b      	eors	r3, r1
10007950:	d409      	bmi.n	10007966 <__aeabi_dfcmple_guts+0x44>
10007952:	404b      	eors	r3, r1
10007954:	d503      	bpl.n	1000795e <__aeabi_dfcmple_guts+0x3c>
10007956:	428b      	cmp	r3, r1
10007958:	d100      	bne.n	1000795c <__aeabi_dfcmple_guts+0x3a>
1000795a:	4282      	cmp	r2, r0
1000795c:	bdff      	pop	{r0, r1, r2, r3, r4, r5, r6, r7, pc}
1000795e:	4299      	cmp	r1, r3
10007960:	d1fc      	bne.n	1000795c <__aeabi_dfcmple_guts+0x3a>
10007962:	4290      	cmp	r0, r2
10007964:	bdff      	pop	{r0, r1, r2, r3, r4, r5, r6, r7, pc}
10007966:	430b      	orrs	r3, r1
10007968:	18db      	adds	r3, r3, r3
1000796a:	4303      	orrs	r3, r0
1000796c:	4313      	orrs	r3, r2
1000796e:	d0f5      	beq.n	1000795c <__aeabi_dfcmple_guts+0x3a>
10007970:	43c9      	mvns	r1, r1
10007972:	1849      	adds	r1, r1, r1
10007974:	bdff      	pop	{r0, r1, r2, r3, r4, r5, r6, r7, pc}
10007976:	0000      	.short	0x0000
10007978:	000007ff 	.word	0x000007ff

1000797c <__wrap___aeabi_dcmplt>:
1000797c:	b500      	push	{lr}
1000797e:	f7ff ffcf 	bl	10007920 <__wrap___aeabi_cdcmpeq>
10007982:	4180      	sbcs	r0, r0
10007984:	bd00      	pop	{pc}
10007986:	46c0      	nop			; (mov r8, r8)

10007988 <__wrap___aeabi_dcmple>:
10007988:	b500      	push	{lr}
1000798a:	f7ff ffc9 	bl	10007920 <__wrap___aeabi_cdcmpeq>
1000798e:	d901      	bls.n	10007994 <__wrap___aeabi_dcmple+0xc>
10007990:	2000      	movs	r0, #0
10007992:	bd00      	pop	{pc}
10007994:	2001      	movs	r0, #1
10007996:	bd00      	pop	{pc}

10007998 <__wrap___aeabi_dcmpge>:
10007998:	b500      	push	{lr}
1000799a:	f7ff ffb9 	bl	10007910 <__wrap___aeabi_cdrcmple>
1000799e:	d901      	bls.n	100079a4 <__wrap___aeabi_dcmpge+0xc>
100079a0:	2000      	movs	r0, #0
100079a2:	bd00      	pop	{pc}
100079a4:	2001      	movs	r0, #1
100079a6:	bd00      	pop	{pc}

100079a8 <__wrap___aeabi_dcmpgt>:
100079a8:	b500      	push	{lr}
100079aa:	f7ff ffb1 	bl	10007910 <__wrap___aeabi_cdrcmple>
100079ae:	4180      	sbcs	r0, r0
100079b0:	bd00      	pop	{pc}

100079b2 <__wrap___aeabi_dcmpun>:
100079b2:	2001      	movs	r0, #1
100079b4:	0540      	lsls	r0, r0, #21
100079b6:	004a      	lsls	r2, r1, #1
100079b8:	1812      	adds	r2, r2, r0
100079ba:	d804      	bhi.n	100079c6 <__wrap___aeabi_dcmpun+0x14>
100079bc:	005a      	lsls	r2, r3, #1
100079be:	1812      	adds	r2, r2, r0
100079c0:	d801      	bhi.n	100079c6 <__wrap___aeabi_dcmpun+0x14>
100079c2:	2000      	movs	r0, #0
100079c4:	4770      	bx	lr
100079c6:	2001      	movs	r0, #1
100079c8:	4770      	bx	lr
100079ca:	2000      	movs	r0, #0
100079cc:	4770      	bx	lr
	...

100079d0 <__wrap___aeabi_ui2d>:
100079d0:	2100      	movs	r1, #0
100079d2:	2800      	cmp	r0, #0
100079d4:	d105      	bne.n	100079e2 <__wrap___aeabi_i2d+0xa>
100079d6:	4770      	bx	lr

100079d8 <__wrap___aeabi_i2d>:
100079d8:	17c1      	asrs	r1, r0, #31
100079da:	4048      	eors	r0, r1
100079dc:	1a40      	subs	r0, r0, r1
100079de:	d0fa      	beq.n	100079d6 <__wrap___aeabi_ui2d+0x6>
100079e0:	07c9      	lsls	r1, r1, #31
100079e2:	b513      	push	{r0, r1, r4, lr}
100079e4:	4b06      	ldr	r3, [pc, #24]	; (10007a00 <__wrap___aeabi_i2d+0x28>)
100079e6:	681b      	ldr	r3, [r3, #0]
100079e8:	4798      	blx	r3
100079ea:	bc0c      	pop	{r2, r3}
100079ec:	1c44      	adds	r4, r0, #1
100079ee:	40a2      	lsls	r2, r4
100079f0:	0510      	lsls	r0, r2, #20
100079f2:	0b12      	lsrs	r2, r2, #12
100079f4:	4903      	ldr	r1, [pc, #12]	; (10007a04 <__wrap___aeabi_i2d+0x2c>)
100079f6:	1b09      	subs	r1, r1, r4
100079f8:	0509      	lsls	r1, r1, #20
100079fa:	4319      	orrs	r1, r3
100079fc:	4311      	orrs	r1, r2
100079fe:	bd10      	pop	{r4, pc}
10007a00:	20026b48 	.word	0x20026b48
10007a04:	0000041f 	.word	0x0000041f

10007a08 <__wrap___aeabi_d2iz>:
10007a08:	b510      	push	{r4, lr}
10007a0a:	004c      	lsls	r4, r1, #1
10007a0c:	0d62      	lsrs	r2, r4, #21
10007a0e:	2380      	movs	r3, #128	; 0x80
10007a10:	18d2      	adds	r2, r2, r3
10007a12:	00db      	lsls	r3, r3, #3
10007a14:	1ad2      	subs	r2, r2, r3
10007a16:	055b      	lsls	r3, r3, #21
10007a18:	2a7e      	cmp	r2, #126	; 0x7e
10007a1a:	dd10      	ble.n	10007a3e <__wrap___aeabi_d2iz+0x36>
10007a1c:	3a9e      	subs	r2, #158	; 0x9e
10007a1e:	da13      	bge.n	10007a48 <__wrap___aeabi_d2iz+0x40>
10007a20:	17cc      	asrs	r4, r1, #31
10007a22:	0309      	lsls	r1, r1, #12
10007a24:	0849      	lsrs	r1, r1, #1
10007a26:	4319      	orrs	r1, r3
10007a28:	4252      	negs	r2, r2
10007a2a:	40d1      	lsrs	r1, r2
10007a2c:	0064      	lsls	r4, r4, #1
10007a2e:	3401      	adds	r4, #1
10007a30:	3215      	adds	r2, #21
10007a32:	2a20      	cmp	r2, #32
10007a34:	da05      	bge.n	10007a42 <__wrap___aeabi_d2iz+0x3a>
10007a36:	40d0      	lsrs	r0, r2
10007a38:	4308      	orrs	r0, r1
10007a3a:	4360      	muls	r0, r4
10007a3c:	bd10      	pop	{r4, pc}
10007a3e:	2000      	movs	r0, #0
10007a40:	bd10      	pop	{r4, pc}
10007a42:	4608      	mov	r0, r1
10007a44:	4360      	muls	r0, r4
10007a46:	bd10      	pop	{r4, pc}
10007a48:	0fc8      	lsrs	r0, r1, #31
10007a4a:	18c0      	adds	r0, r0, r3
10007a4c:	3801      	subs	r0, #1
10007a4e:	bd10      	pop	{r4, pc}

10007a50 <__wrap___aeabi_d2uiz>:
10007a50:	b418      	push	{r3, r4}
10007a52:	4b04      	ldr	r3, [pc, #16]	; (10007a64 <__wrap___aeabi_d2uiz+0x14>)
10007a54:	6a5b      	ldr	r3, [r3, #36]	; 0x24
10007a56:	46fc      	mov	ip, pc
10007a58:	9301      	str	r3, [sp, #4]
10007a5a:	bd08      	pop	{r3, pc}
10007a5c:	7fb9df24 	.word	0x7fb9df24
10007a60:	00001000 	.word	0x00001000
10007a64:	200006a8 	.word	0x200006a8

10007a68 <__wrap___aeabi_d2f>:
10007a68:	b418      	push	{r3, r4}
10007a6a:	4b04      	ldr	r3, [pc, #16]	; (10007a7c <__wrap___aeabi_d2f+0x14>)
10007a6c:	6fdb      	ldr	r3, [r3, #124]	; 0x7c
10007a6e:	46fc      	mov	ip, pc
10007a70:	9301      	str	r3, [sp, #4]
10007a72:	bd08      	pop	{r3, pc}
10007a74:	8039df7c 	.word	0x8039df7c
10007a78:	00001000 	.word	0x00001000
10007a7c:	200006a8 	.word	0x200006a8

10007a80 <__aeabi_double_init>:
10007a80:	2313      	movs	r3, #19
10007a82:	b570      	push	{r4, r5, r6, lr}
10007a84:	781d      	ldrb	r5, [r3, #0]
10007a86:	2d01      	cmp	r5, #1
10007a88:	d015      	beq.n	10007ab6 <__aeabi_double_init+0x36>
10007a8a:	dd10      	ble.n	10007aae <__aeabi_double_init+0x2e>
10007a8c:	481c      	ldr	r0, [pc, #112]	; (10007b00 <__aeabi_double_init+0x80>)
10007a8e:	f7ff fc6d 	bl	1000736c <rom_data_lookup>
10007a92:	4c1c      	ldr	r4, [pc, #112]	; (10007b04 <__aeabi_double_init+0x84>)
10007a94:	0001      	movs	r1, r0
10007a96:	2280      	movs	r2, #128	; 0x80
10007a98:	0020      	movs	r0, r4
10007a9a:	f000 fc95 	bl	100083c8 <__wrap___aeabi_memcpy>
10007a9e:	2d02      	cmp	r5, #2
10007aa0:	d006      	beq.n	10007ab0 <__aeabi_double_init+0x30>
10007aa2:	4819      	ldr	r0, [pc, #100]	; (10007b08 <__aeabi_double_init+0x88>)
10007aa4:	f7ff fc5a 	bl	1000735c <rom_func_lookup>
10007aa8:	4b18      	ldr	r3, [pc, #96]	; (10007b0c <__aeabi_double_init+0x8c>)
10007aaa:	6018      	str	r0, [r3, #0]
10007aac:	bd70      	pop	{r4, r5, r6, pc}
10007aae:	4c15      	ldr	r4, [pc, #84]	; (10007b04 <__aeabi_double_init+0x84>)
10007ab0:	4b17      	ldr	r3, [pc, #92]	; (10007b10 <__aeabi_double_init+0x90>)
10007ab2:	64a3      	str	r3, [r4, #72]	; 0x48
10007ab4:	e7f5      	b.n	10007aa2 <__aeabi_double_init+0x22>
10007ab6:	4b16      	ldr	r3, [pc, #88]	; (10007b10 <__aeabi_double_init+0x90>)
10007ab8:	4c12      	ldr	r4, [pc, #72]	; (10007b04 <__aeabi_double_init+0x84>)
10007aba:	6023      	str	r3, [r4, #0]
10007abc:	6063      	str	r3, [r4, #4]
10007abe:	60a3      	str	r3, [r4, #8]
10007ac0:	60e3      	str	r3, [r4, #12]
10007ac2:	6123      	str	r3, [r4, #16]
10007ac4:	6163      	str	r3, [r4, #20]
10007ac6:	61a3      	str	r3, [r4, #24]
10007ac8:	61e3      	str	r3, [r4, #28]
10007aca:	6223      	str	r3, [r4, #32]
10007acc:	6263      	str	r3, [r4, #36]	; 0x24
10007ace:	62a3      	str	r3, [r4, #40]	; 0x28
10007ad0:	62e3      	str	r3, [r4, #44]	; 0x2c
10007ad2:	6323      	str	r3, [r4, #48]	; 0x30
10007ad4:	6363      	str	r3, [r4, #52]	; 0x34
10007ad6:	63a3      	str	r3, [r4, #56]	; 0x38
10007ad8:	63e3      	str	r3, [r4, #60]	; 0x3c
10007ada:	6423      	str	r3, [r4, #64]	; 0x40
10007adc:	6463      	str	r3, [r4, #68]	; 0x44
10007ade:	64a3      	str	r3, [r4, #72]	; 0x48
10007ae0:	64e3      	str	r3, [r4, #76]	; 0x4c
10007ae2:	6523      	str	r3, [r4, #80]	; 0x50
10007ae4:	6563      	str	r3, [r4, #84]	; 0x54
10007ae6:	65a3      	str	r3, [r4, #88]	; 0x58
10007ae8:	65e3      	str	r3, [r4, #92]	; 0x5c
10007aea:	6623      	str	r3, [r4, #96]	; 0x60
10007aec:	6663      	str	r3, [r4, #100]	; 0x64
10007aee:	66a3      	str	r3, [r4, #104]	; 0x68
10007af0:	66e3      	str	r3, [r4, #108]	; 0x6c
10007af2:	6723      	str	r3, [r4, #112]	; 0x70
10007af4:	6763      	str	r3, [r4, #116]	; 0x74
10007af6:	67a3      	str	r3, [r4, #120]	; 0x78
10007af8:	67e3      	str	r3, [r4, #124]	; 0x7c
10007afa:	64a3      	str	r3, [r4, #72]	; 0x48
10007afc:	e7d1      	b.n	10007aa2 <__aeabi_double_init+0x22>
10007afe:	46c0      	nop			; (mov r8, r8)
10007b00:	00004453 	.word	0x00004453
10007b04:	200006a8 	.word	0x200006a8
10007b08:	0000334c 	.word	0x0000334c
10007b0c:	20026b48 	.word	0x20026b48
10007b10:	10007b15 	.word	0x10007b15

10007b14 <double_table_shim_on_use_helper>:
10007b14:	b507      	push	{r0, r1, r2, lr}
10007b16:	4660      	mov	r0, ip
10007b18:	8801      	ldrh	r1, [r0, #0]
10007b1a:	0a0a      	lsrs	r2, r1, #8
10007b1c:	3002      	adds	r0, #2
10007b1e:	2adf      	cmp	r2, #223	; 0xdf
10007b20:	d1fa      	bne.n	10007b18 <double_table_shim_on_use_helper+0x4>
10007b22:	b2c9      	uxtb	r1, r1
10007b24:	0882      	lsrs	r2, r0, #2
10007b26:	d304      	bcc.n	10007b32 <double_table_shim_on_use_helper+0x1e>
10007b28:	8802      	ldrh	r2, [r0, #0]
10007b2a:	8840      	ldrh	r0, [r0, #2]
10007b2c:	0400      	lsls	r0, r0, #16
10007b2e:	4310      	orrs	r0, r2
10007b30:	e000      	b.n	10007b34 <double_table_shim_on_use_helper+0x20>
10007b32:	6800      	ldr	r0, [r0, #0]
10007b34:	4a01      	ldr	r2, [pc, #4]	; (10007b3c <double_table_shim_on_use_helper+0x28>)
10007b36:	5050      	str	r0, [r2, r1]
10007b38:	9003      	str	r0, [sp, #12]
10007b3a:	bd07      	pop	{r0, r1, r2, pc}
10007b3c:	200006a8 	.word	0x200006a8

10007b40 <drsub_shim>:
10007b40:	b40f      	push	{r0, r1, r2, r3}
10007b42:	bc03      	pop	{r0, r1}
10007b44:	bc0c      	pop	{r2, r3}

10007b46 <dsub_shim>:
10007b46:	b5f0      	push	{r4, r5, r6, r7, lr}
10007b48:	2401      	movs	r4, #1
10007b4a:	07e4      	lsls	r4, r4, #31
10007b4c:	4063      	eors	r3, r4
10007b4e:	e000      	b.n	10007b52 <da_entry>

10007b50 <dadd_shim>:
10007b50:	b5f0      	push	{r4, r5, r6, r7, lr}

10007b52 <da_entry>:
10007b52:	0d0c      	lsrs	r4, r1, #20
10007b54:	0fcf      	lsrs	r7, r1, #31
10007b56:	1e66      	subs	r6, r4, #1
10007b58:	0536      	lsls	r6, r6, #20
10007b5a:	1b89      	subs	r1, r1, r6
10007b5c:	0564      	lsls	r4, r4, #21
10007b5e:	d303      	bcc.n	10007b68 <l7_1>
10007b60:	43c9      	mvns	r1, r1
10007b62:	4240      	negs	r0, r0
10007b64:	d300      	bcc.n	10007b68 <l7_1>
10007b66:	3101      	adds	r1, #1

10007b68 <l7_1>:
10007b68:	0d64      	lsrs	r4, r4, #21
10007b6a:	d003      	beq.n	10007b74 <l7_2>
10007b6c:	1c66      	adds	r6, r4, #1
10007b6e:	0af6      	lsrs	r6, r6, #11
10007b70:	d007      	beq.n	10007b82 <l7_3>
10007b72:	1be4      	subs	r4, r4, r7

10007b74 <l7_2>:
10007b74:	2000      	movs	r0, #0
10007b76:	007f      	lsls	r7, r7, #1
10007b78:	1c79      	adds	r1, r7, #1
10007b7a:	0789      	lsls	r1, r1, #30
10007b7c:	1289      	asrs	r1, r1, #10
10007b7e:	3c80      	subs	r4, #128	; 0x80
10007b80:	0324      	lsls	r4, r4, #12

10007b82 <l7_3>:
10007b82:	0d1d      	lsrs	r5, r3, #20
10007b84:	0fdf      	lsrs	r7, r3, #31
10007b86:	1e6e      	subs	r6, r5, #1
10007b88:	0536      	lsls	r6, r6, #20
10007b8a:	1b9b      	subs	r3, r3, r6
10007b8c:	056d      	lsls	r5, r5, #21
10007b8e:	d303      	bcc.n	10007b98 <l8_1>
10007b90:	43db      	mvns	r3, r3
10007b92:	4252      	negs	r2, r2
10007b94:	d300      	bcc.n	10007b98 <l8_1>
10007b96:	3301      	adds	r3, #1

10007b98 <l8_1>:
10007b98:	0d6d      	lsrs	r5, r5, #21
10007b9a:	d003      	beq.n	10007ba4 <l8_2>
10007b9c:	1c6e      	adds	r6, r5, #1
10007b9e:	0af6      	lsrs	r6, r6, #11
10007ba0:	d007      	beq.n	10007bb2 <l8_3>
10007ba2:	1bed      	subs	r5, r5, r7

10007ba4 <l8_2>:
10007ba4:	2200      	movs	r2, #0
10007ba6:	007f      	lsls	r7, r7, #1
10007ba8:	1c7b      	adds	r3, r7, #1
10007baa:	079b      	lsls	r3, r3, #30
10007bac:	129b      	asrs	r3, r3, #10
10007bae:	3d80      	subs	r5, #128	; 0x80
10007bb0:	032d      	lsls	r5, r5, #12

10007bb2 <l8_3>:
10007bb2:	1b2f      	subs	r7, r5, r4
10007bb4:	1b66      	subs	r6, r4, r5
10007bb6:	d458      	bmi.n	10007c6a <da_ygtx>
10007bb8:	46a4      	mov	ip, r4
10007bba:	2e20      	cmp	r6, #32
10007bbc:	da46      	bge.n	10007c4c <da_xrgty>
10007bbe:	3720      	adds	r7, #32
10007bc0:	0014      	movs	r4, r2
10007bc2:	40bc      	lsls	r4, r7

10007bc4 <da_xgty0>:
10007bc4:	001d      	movs	r5, r3
10007bc6:	40bd      	lsls	r5, r7
10007bc8:	40f2      	lsrs	r2, r6
10007bca:	4133      	asrs	r3, r6
10007bcc:	432a      	orrs	r2, r5

10007bce <da_add>:
10007bce:	1880      	adds	r0, r0, r2
10007bd0:	4159      	adcs	r1, r3

10007bd2 <da_pack>:
10007bd2:	0fcb      	lsrs	r3, r1, #31
10007bd4:	d005      	beq.n	10007be2 <da_pack+0x10>
10007bd6:	43c9      	mvns	r1, r1
10007bd8:	43c0      	mvns	r0, r0
10007bda:	2200      	movs	r2, #0
10007bdc:	4264      	negs	r4, r4
10007bde:	4150      	adcs	r0, r2
10007be0:	4151      	adcs	r1, r2
10007be2:	4662      	mov	r2, ip
10007be4:	0d4d      	lsrs	r5, r1, #21
10007be6:	d128      	bne.n	10007c3a <da_0>
10007be8:	0d0d      	lsrs	r5, r1, #20
10007bea:	d107      	bne.n	10007bfc <da_1>
10007bec:	2800      	cmp	r0, #0
10007bee:	d01f      	beq.n	10007c30 <da_5>

10007bf0 <da_2>:
10007bf0:	1924      	adds	r4, r4, r4
10007bf2:	4140      	adcs	r0, r0
10007bf4:	4149      	adcs	r1, r1
10007bf6:	3a01      	subs	r2, #1
10007bf8:	0d0d      	lsrs	r5, r1, #20
10007bfa:	d0f9      	beq.n	10007bf0 <da_2>

10007bfc <da_1>:
10007bfc:	0064      	lsls	r4, r4, #1
10007bfe:	d306      	bcc.n	10007c0e <da_3>

10007c00 <da_4>:
10007c00:	3001      	adds	r0, #1
10007c02:	d300      	bcc.n	10007c06 <da_4+0x6>
10007c04:	3101      	adds	r1, #1
10007c06:	2c00      	cmp	r4, #0
10007c08:	d101      	bne.n	10007c0e <da_3>
10007c0a:	0840      	lsrs	r0, r0, #1
10007c0c:	0040      	lsls	r0, r0, #1

10007c0e <da_3>:
10007c0e:	3a01      	subs	r2, #1
10007c10:	d40b      	bmi.n	10007c2a <da_6>
10007c12:	1c94      	adds	r4, r2, #2
10007c14:	0ae4      	lsrs	r4, r4, #11
10007c16:	d104      	bne.n	10007c22 <da_7>
10007c18:	0512      	lsls	r2, r2, #20
10007c1a:	4411      	add	r1, r2
10007c1c:	07db      	lsls	r3, r3, #31
10007c1e:	4419      	add	r1, r3
10007c20:	bdf0      	pop	{r4, r5, r6, r7, pc}

10007c22 <da_7>:
10007c22:	07d9      	lsls	r1, r3, #31
10007c24:	4b20      	ldr	r3, [pc, #128]	; (10007ca8 <da_xmgty+0x4>)
10007c26:	4319      	orrs	r1, r3
10007c28:	e000      	b.n	10007c2c <da_6+0x2>

10007c2a <da_6>:
10007c2a:	07d9      	lsls	r1, r3, #31
10007c2c:	2000      	movs	r0, #0
10007c2e:	bdf0      	pop	{r4, r5, r6, r7, pc}

10007c30 <da_5>:
10007c30:	2900      	cmp	r1, #0
10007c32:	d1dd      	bne.n	10007bf0 <da_2>
10007c34:	2c00      	cmp	r4, #0
10007c36:	d1db      	bne.n	10007bf0 <da_2>
10007c38:	bdf0      	pop	{r4, r5, r6, r7, pc}

10007c3a <da_0>:
10007c3a:	3201      	adds	r2, #1
10007c3c:	07c6      	lsls	r6, r0, #31
10007c3e:	0840      	lsrs	r0, r0, #1
10007c40:	07cd      	lsls	r5, r1, #31
10007c42:	4328      	orrs	r0, r5
10007c44:	0849      	lsrs	r1, r1, #1
10007c46:	2e00      	cmp	r6, #0
10007c48:	d0e1      	beq.n	10007c0e <da_3>
10007c4a:	e7d9      	b.n	10007c00 <da_4>

10007c4c <da_xrgty>:
10007c4c:	2e3c      	cmp	r6, #60	; 0x3c
10007c4e:	da29      	bge.n	10007ca4 <da_xmgty>
10007c50:	3e20      	subs	r6, #32
10007c52:	3740      	adds	r7, #64	; 0x40
10007c54:	0014      	movs	r4, r2
10007c56:	40bc      	lsls	r4, r7
10007c58:	d000      	beq.n	10007c5c <da_xrgty+0x10>
10007c5a:	2401      	movs	r4, #1
10007c5c:	40f2      	lsrs	r2, r6
10007c5e:	4314      	orrs	r4, r2
10007c60:	001a      	movs	r2, r3
10007c62:	40bb      	lsls	r3, r7
10007c64:	431c      	orrs	r4, r3
10007c66:	17d3      	asrs	r3, r2, #31
10007c68:	e7ac      	b.n	10007bc4 <da_xgty0>

10007c6a <da_ygtx>:
10007c6a:	46ac      	mov	ip, r5
10007c6c:	2f20      	cmp	r7, #32
10007c6e:	da08      	bge.n	10007c82 <da_yrgtx>
10007c70:	3620      	adds	r6, #32
10007c72:	0004      	movs	r4, r0
10007c74:	40b4      	lsls	r4, r6

10007c76 <da_ygtx0>:
10007c76:	000d      	movs	r5, r1
10007c78:	40b5      	lsls	r5, r6
10007c7a:	40f8      	lsrs	r0, r7
10007c7c:	4139      	asrs	r1, r7
10007c7e:	4328      	orrs	r0, r5
10007c80:	e7a5      	b.n	10007bce <da_add>

10007c82 <da_yrgtx>:
10007c82:	2f3c      	cmp	r7, #60	; 0x3c
10007c84:	da0c      	bge.n	10007ca0 <da_ymgtx>
10007c86:	3f20      	subs	r7, #32
10007c88:	3640      	adds	r6, #64	; 0x40
10007c8a:	0004      	movs	r4, r0
10007c8c:	40b4      	lsls	r4, r6
10007c8e:	d000      	beq.n	10007c92 <da_yrgtx+0x10>
10007c90:	2401      	movs	r4, #1
10007c92:	40f8      	lsrs	r0, r7
10007c94:	4304      	orrs	r4, r0
10007c96:	0008      	movs	r0, r1
10007c98:	40b1      	lsls	r1, r6
10007c9a:	430c      	orrs	r4, r1
10007c9c:	17c1      	asrs	r1, r0, #31
10007c9e:	e7ea      	b.n	10007c76 <da_ygtx0>

10007ca0 <da_ymgtx>:
10007ca0:	0010      	movs	r0, r2
10007ca2:	0019      	movs	r1, r3

10007ca4 <da_xmgty>:
10007ca4:	2400      	movs	r4, #0
10007ca6:	e794      	b.n	10007bd2 <da_pack>
10007ca8:	7ff00000 	.word	0x7ff00000

10007cac <dmul_shim>:
10007cac:	b5f0      	push	{r4, r5, r6, r7, lr}
10007cae:	0d0c      	lsrs	r4, r1, #20
10007cb0:	1e66      	subs	r6, r4, #1
10007cb2:	0536      	lsls	r6, r6, #20
10007cb4:	1b89      	subs	r1, r1, r6
10007cb6:	0ae6      	lsrs	r6, r4, #11
10007cb8:	0564      	lsls	r4, r4, #21
10007cba:	0d64      	lsrs	r4, r4, #21
10007cbc:	d002      	beq.n	10007cc4 <l11_1>
10007cbe:	1c65      	adds	r5, r4, #1
10007cc0:	0aed      	lsrs	r5, r5, #11
10007cc2:	d004      	beq.n	10007cce <l11_2>

10007cc4 <l11_1>:
10007cc4:	2000      	movs	r0, #0
10007cc6:	2101      	movs	r1, #1
10007cc8:	0509      	lsls	r1, r1, #20
10007cca:	3c80      	subs	r4, #128	; 0x80
10007ccc:	0324      	lsls	r4, r4, #12

10007cce <l11_2>:
10007cce:	46a4      	mov	ip, r4
10007cd0:	0d1c      	lsrs	r4, r3, #20
10007cd2:	1e67      	subs	r7, r4, #1
10007cd4:	053f      	lsls	r7, r7, #20
10007cd6:	1bdb      	subs	r3, r3, r7
10007cd8:	0ae7      	lsrs	r7, r4, #11
10007cda:	0564      	lsls	r4, r4, #21
10007cdc:	0d64      	lsrs	r4, r4, #21
10007cde:	d002      	beq.n	10007ce6 <l12_1>
10007ce0:	1c65      	adds	r5, r4, #1
10007ce2:	0aed      	lsrs	r5, r5, #11
10007ce4:	d004      	beq.n	10007cf0 <l12_2>

10007ce6 <l12_1>:
10007ce6:	2200      	movs	r2, #0
10007ce8:	2301      	movs	r3, #1
10007cea:	051b      	lsls	r3, r3, #20
10007cec:	3c80      	subs	r4, #128	; 0x80
10007cee:	0324      	lsls	r4, r4, #12

10007cf0 <l12_2>:
10007cf0:	4077      	eors	r7, r6
10007cf2:	4464      	add	r4, ip
10007cf4:	b497      	push	{r0, r1, r2, r4, r7}
10007cf6:	b284      	uxth	r4, r0
10007cf8:	b296      	uxth	r6, r2
10007cfa:	4374      	muls	r4, r6
10007cfc:	0c07      	lsrs	r7, r0, #16
10007cfe:	437e      	muls	r6, r7
10007d00:	0c15      	lsrs	r5, r2, #16
10007d02:	436f      	muls	r7, r5
10007d04:	b280      	uxth	r0, r0
10007d06:	4368      	muls	r0, r5
10007d08:	1836      	adds	r6, r6, r0
10007d0a:	d302      	bcc.n	10007d12 <l13_1>
10007d0c:	2001      	movs	r0, #1
10007d0e:	0400      	lsls	r0, r0, #16
10007d10:	183f      	adds	r7, r7, r0

10007d12 <l13_1>:
10007d12:	0430      	lsls	r0, r6, #16
10007d14:	0c35      	lsrs	r5, r6, #16
10007d16:	1900      	adds	r0, r0, r4
10007d18:	417d      	adcs	r5, r7
10007d1a:	4684      	mov	ip, r0
10007d1c:	b288      	uxth	r0, r1
10007d1e:	b29a      	uxth	r2, r3
10007d20:	4350      	muls	r0, r2
10007d22:	0c0c      	lsrs	r4, r1, #16
10007d24:	4362      	muls	r2, r4
10007d26:	0c1f      	lsrs	r7, r3, #16
10007d28:	437c      	muls	r4, r7
10007d2a:	b28e      	uxth	r6, r1
10007d2c:	437e      	muls	r6, r7
10007d2e:	1992      	adds	r2, r2, r6
10007d30:	d302      	bcc.n	10007d38 <l14_1>
10007d32:	2601      	movs	r6, #1
10007d34:	0436      	lsls	r6, r6, #16
10007d36:	19a4      	adds	r4, r4, r6

10007d38 <l14_1>:
10007d38:	0416      	lsls	r6, r2, #16
10007d3a:	0c17      	lsrs	r7, r2, #16
10007d3c:	1836      	adds	r6, r6, r0
10007d3e:	4167      	adcs	r7, r4
10007d40:	bc01      	pop	{r0}
10007d42:	b281      	uxth	r1, r0
10007d44:	b29a      	uxth	r2, r3
10007d46:	4351      	muls	r1, r2
10007d48:	0c04      	lsrs	r4, r0, #16
10007d4a:	4362      	muls	r2, r4
10007d4c:	0c1b      	lsrs	r3, r3, #16
10007d4e:	435c      	muls	r4, r3
10007d50:	b280      	uxth	r0, r0
10007d52:	4358      	muls	r0, r3
10007d54:	1812      	adds	r2, r2, r0
10007d56:	d302      	bcc.n	10007d5e <l15_1>
10007d58:	2001      	movs	r0, #1
10007d5a:	0400      	lsls	r0, r0, #16
10007d5c:	1824      	adds	r4, r4, r0

10007d5e <l15_1>:
10007d5e:	0410      	lsls	r0, r2, #16
10007d60:	0c13      	lsrs	r3, r2, #16
10007d62:	1840      	adds	r0, r0, r1
10007d64:	4163      	adcs	r3, r4
10007d66:	182d      	adds	r5, r5, r0
10007d68:	415e      	adcs	r6, r3
10007d6a:	2000      	movs	r0, #0
10007d6c:	4147      	adcs	r7, r0
10007d6e:	bc06      	pop	{r1, r2}
10007d70:	b288      	uxth	r0, r1
10007d72:	b293      	uxth	r3, r2
10007d74:	4358      	muls	r0, r3
10007d76:	0c0c      	lsrs	r4, r1, #16
10007d78:	4363      	muls	r3, r4
10007d7a:	0c12      	lsrs	r2, r2, #16
10007d7c:	4354      	muls	r4, r2
10007d7e:	b289      	uxth	r1, r1
10007d80:	4351      	muls	r1, r2
10007d82:	185b      	adds	r3, r3, r1
10007d84:	d302      	bcc.n	10007d8c <l16_1>
10007d86:	2101      	movs	r1, #1
10007d88:	0409      	lsls	r1, r1, #16
10007d8a:	1864      	adds	r4, r4, r1

10007d8c <l16_1>:
10007d8c:	0419      	lsls	r1, r3, #16
10007d8e:	0c1a      	lsrs	r2, r3, #16
10007d90:	1809      	adds	r1, r1, r0
10007d92:	4162      	adcs	r2, r4
10007d94:	186d      	adds	r5, r5, r1
10007d96:	4156      	adcs	r6, r2
10007d98:	2000      	movs	r0, #0
10007d9a:	4147      	adcs	r7, r0
10007d9c:	bc18      	pop	{r3, r4}
10007d9e:	02f9      	lsls	r1, r7, #11
10007da0:	0d72      	lsrs	r2, r6, #21
10007da2:	4311      	orrs	r1, r2
10007da4:	02f0      	lsls	r0, r6, #11
10007da6:	0d6a      	lsrs	r2, r5, #21
10007da8:	4310      	orrs	r0, r2
10007daa:	02ed      	lsls	r5, r5, #11
10007dac:	0d0a      	lsrs	r2, r1, #20
10007dae:	d103      	bne.n	10007db8 <l16_1+0x2c>
10007db0:	196d      	adds	r5, r5, r5
10007db2:	4140      	adcs	r0, r0
10007db4:	4149      	adcs	r1, r1
10007db6:	3b01      	subs	r3, #1
10007db8:	4e12      	ldr	r6, [pc, #72]	; (10007e04 <dm_1+0xa>)
10007dba:	1b9b      	subs	r3, r3, r6
10007dbc:	0076      	lsls	r6, r6, #1
10007dbe:	42b3      	cmp	r3, r6
10007dc0:	d20e      	bcs.n	10007de0 <dm_0>
10007dc2:	006d      	lsls	r5, r5, #1
10007dc4:	d307      	bcc.n	10007dd6 <l16_1+0x4a>
10007dc6:	3001      	adds	r0, #1
10007dc8:	2600      	movs	r6, #0
10007dca:	4171      	adcs	r1, r6
10007dcc:	4666      	mov	r6, ip
10007dce:	4335      	orrs	r5, r6
10007dd0:	d101      	bne.n	10007dd6 <l16_1+0x4a>
10007dd2:	0840      	lsrs	r0, r0, #1
10007dd4:	0040      	lsls	r0, r0, #1
10007dd6:	051b      	lsls	r3, r3, #20
10007dd8:	18c9      	adds	r1, r1, r3

10007dda <dm_2>:
10007dda:	07e4      	lsls	r4, r4, #31
10007ddc:	4421      	add	r1, r4
10007dde:	bdf0      	pop	{r4, r5, r6, r7, pc}

10007de0 <dm_0>:
10007de0:	da0b      	bge.n	10007dfa <dm_1>
10007de2:	3301      	adds	r3, #1
10007de4:	d106      	bne.n	10007df4 <dm_0+0x14>
10007de6:	3001      	adds	r0, #1
10007de8:	d104      	bne.n	10007df4 <dm_0+0x14>
10007dea:	3101      	adds	r1, #1
10007dec:	0d4f      	lsrs	r7, r1, #21
10007dee:	d001      	beq.n	10007df4 <dm_0+0x14>
10007df0:	0849      	lsrs	r1, r1, #1
10007df2:	e7f2      	b.n	10007dda <dm_2>
10007df4:	07e1      	lsls	r1, r4, #31
10007df6:	2000      	movs	r0, #0
10007df8:	bdf0      	pop	{r4, r5, r6, r7, pc}

10007dfa <dm_1>:
10007dfa:	3601      	adds	r6, #1
10007dfc:	0531      	lsls	r1, r6, #20
10007dfe:	2000      	movs	r0, #0
10007e00:	e7eb      	b.n	10007dda <dm_2>
10007e02:	0000      	.short	0x0000
10007e04:	000003ff 	.word	0x000003ff

10007e08 <ddiv_shim>:
10007e08:	b5f0      	push	{r4, r5, r6, r7, lr}

10007e0a <ddiv0>:
10007e0a:	0d1c      	lsrs	r4, r3, #20
10007e0c:	1e67      	subs	r7, r4, #1
10007e0e:	053f      	lsls	r7, r7, #20
10007e10:	1bdb      	subs	r3, r3, r7
10007e12:	0ae7      	lsrs	r7, r4, #11
10007e14:	0564      	lsls	r4, r4, #21
10007e16:	0d64      	lsrs	r4, r4, #21
10007e18:	d002      	beq.n	10007e20 <l19_1>
10007e1a:	1c66      	adds	r6, r4, #1
10007e1c:	0af6      	lsrs	r6, r6, #11
10007e1e:	d004      	beq.n	10007e2a <l19_2>

10007e20 <l19_1>:
10007e20:	2200      	movs	r2, #0
10007e22:	2301      	movs	r3, #1
10007e24:	051b      	lsls	r3, r3, #20
10007e26:	3c80      	subs	r4, #128	; 0x80
10007e28:	0324      	lsls	r4, r4, #12

10007e2a <l19_2>:
10007e2a:	25d0      	movs	r5, #208	; 0xd0
10007e2c:	062d      	lsls	r5, r5, #24
10007e2e:	2600      	movs	r6, #0
10007e30:	43f6      	mvns	r6, r6
10007e32:	662e      	str	r6, [r5, #96]	; 0x60
10007e34:	091e      	lsrs	r6, r3, #4
10007e36:	666e      	str	r6, [r5, #100]	; 0x64
10007e38:	0fce      	lsrs	r6, r1, #31
10007e3a:	19f6      	adds	r6, r6, r7
10007e3c:	46b4      	mov	ip, r6
10007e3e:	0049      	lsls	r1, r1, #1
10007e40:	0d4f      	lsrs	r7, r1, #21
10007e42:	d002      	beq.n	10007e4a <l19_2+0x20>
10007e44:	1c7e      	adds	r6, r7, #1
10007e46:	0af6      	lsrs	r6, r6, #11
10007e48:	d003      	beq.n	10007e52 <l19_2+0x28>
10007e4a:	2000      	movs	r0, #0
10007e4c:	2100      	movs	r1, #0
10007e4e:	3f40      	subs	r7, #64	; 0x40
10007e50:	033f      	lsls	r7, r7, #12
10007e52:	1b3e      	subs	r6, r7, r4
10007e54:	00b6      	lsls	r6, r6, #2
10007e56:	44b4      	add	ip, r6
10007e58:	3f01      	subs	r7, #1
10007e5a:	057f      	lsls	r7, r7, #21
10007e5c:	1bc9      	subs	r1, r1, r7
10007e5e:	0849      	lsrs	r1, r1, #1
10007e60:	6f2e      	ldr	r6, [r5, #112]	; 0x70
10007e62:	3601      	adds	r6, #1
10007e64:	0876      	lsrs	r6, r6, #1
10007e66:	029c      	lsls	r4, r3, #10
10007e68:	0d95      	lsrs	r5, r2, #22
10007e6a:	4325      	orrs	r5, r4
10007e6c:	4375      	muls	r5, r6
10007e6e:	13ed      	asrs	r5, r5, #15
10007e70:	4375      	muls	r5, r6
10007e72:	13ad      	asrs	r5, r5, #14
10007e74:	3501      	adds	r5, #1
10007e76:	106d      	asrs	r5, r5, #1
10007e78:	03f6      	lsls	r6, r6, #15
10007e7a:	1b76      	subs	r6, r6, r5
10007e7c:	b40c      	push	{r2, r3}
10007e7e:	02cc      	lsls	r4, r1, #11
10007e80:	0d45      	lsrs	r5, r0, #21
10007e82:	432c      	orrs	r4, r5
10007e84:	b2a2      	uxth	r2, r4
10007e86:	b2b3      	uxth	r3, r6
10007e88:	435a      	muls	r2, r3
10007e8a:	0c27      	lsrs	r7, r4, #16
10007e8c:	437b      	muls	r3, r7
10007e8e:	0c35      	lsrs	r5, r6, #16
10007e90:	436f      	muls	r7, r5
10007e92:	b2a4      	uxth	r4, r4
10007e94:	436c      	muls	r4, r5
10007e96:	191b      	adds	r3, r3, r4
10007e98:	d302      	bcc.n	10007ea0 <l20_1>
10007e9a:	2401      	movs	r4, #1
10007e9c:	0424      	lsls	r4, r4, #16
10007e9e:	193f      	adds	r7, r7, r4

10007ea0 <l20_1>:
10007ea0:	041c      	lsls	r4, r3, #16
10007ea2:	0c1d      	lsrs	r5, r3, #16
10007ea4:	18a4      	adds	r4, r4, r2
10007ea6:	417d      	adcs	r5, r7
10007ea8:	1924      	adds	r4, r4, r4
10007eaa:	416d      	adcs	r5, r5
10007eac:	9a00      	ldr	r2, [sp, #0]
10007eae:	b291      	uxth	r1, r2
10007eb0:	b2ac      	uxth	r4, r5
10007eb2:	4361      	muls	r1, r4
10007eb4:	0c17      	lsrs	r7, r2, #16
10007eb6:	437c      	muls	r4, r7
10007eb8:	0c2b      	lsrs	r3, r5, #16
10007eba:	435f      	muls	r7, r3
10007ebc:	b292      	uxth	r2, r2
10007ebe:	435a      	muls	r2, r3
10007ec0:	18a4      	adds	r4, r4, r2
10007ec2:	d302      	bcc.n	10007eca <l21_1>
10007ec4:	2201      	movs	r2, #1
10007ec6:	0412      	lsls	r2, r2, #16
10007ec8:	18bf      	adds	r7, r7, r2

10007eca <l21_1>:
10007eca:	0422      	lsls	r2, r4, #16
10007ecc:	0c23      	lsrs	r3, r4, #16
10007ece:	1852      	adds	r2, r2, r1
10007ed0:	417b      	adcs	r3, r7
10007ed2:	9c01      	ldr	r4, [sp, #4]
10007ed4:	436c      	muls	r4, r5
10007ed6:	191b      	adds	r3, r3, r4
10007ed8:	0e52      	lsrs	r2, r2, #25
10007eda:	01d9      	lsls	r1, r3, #7
10007edc:	430a      	orrs	r2, r1
10007ede:	0144      	lsls	r4, r0, #5
10007ee0:	1aa0      	subs	r0, r4, r2
10007ee2:	b281      	uxth	r1, r0
10007ee4:	b2b2      	uxth	r2, r6
10007ee6:	4351      	muls	r1, r2
10007ee8:	1403      	asrs	r3, r0, #16
10007eea:	435a      	muls	r2, r3
10007eec:	0c36      	lsrs	r6, r6, #16
10007eee:	4373      	muls	r3, r6
10007ef0:	b287      	uxth	r7, r0
10007ef2:	4377      	muls	r7, r6
10007ef4:	17d6      	asrs	r6, r2, #31
10007ef6:	19d2      	adds	r2, r2, r7
10007ef8:	2700      	movs	r7, #0
10007efa:	417e      	adcs	r6, r7
10007efc:	0436      	lsls	r6, r6, #16
10007efe:	199b      	adds	r3, r3, r6
10007f00:	0417      	lsls	r7, r2, #16
10007f02:	0c16      	lsrs	r6, r2, #16
10007f04:	187f      	adds	r7, r7, r1
10007f06:	415e      	adcs	r6, r3
10007f08:	1673      	asrs	r3, r6, #25
10007f0a:	18ed      	adds	r5, r5, r3
10007f0c:	01f3      	lsls	r3, r6, #7
10007f0e:	2600      	movs	r6, #0
10007f10:	3380      	adds	r3, #128	; 0x80
10007f12:	4175      	adcs	r5, r6
10007f14:	0fa9      	lsrs	r1, r5, #30
10007f16:	d106      	bne.n	10007f26 <dd_0>
10007f18:	0064      	lsls	r4, r4, #1
10007f1a:	0a69      	lsrs	r1, r5, #9
10007f1c:	05e8      	lsls	r0, r5, #23
10007f1e:	0a5b      	lsrs	r3, r3, #9
10007f20:	4318      	orrs	r0, r3
10007f22:	d209      	bcs.n	10007f38 <dd_1>
10007f24:	e02f      	b.n	10007f86 <dd_2>

10007f26 <dd_0>:
10007f26:	2204      	movs	r2, #4
10007f28:	4494      	add	ip, r2
10007f2a:	3380      	adds	r3, #128	; 0x80
10007f2c:	4175      	adcs	r5, r6
10007f2e:	0aa9      	lsrs	r1, r5, #10
10007f30:	05a8      	lsls	r0, r5, #22
10007f32:	0a9b      	lsrs	r3, r3, #10
10007f34:	4318      	orrs	r0, r3
10007f36:	d326      	bcc.n	10007f86 <dd_2>

10007f38 <dd_1>:
10007f38:	4140      	adcs	r0, r0
10007f3a:	4149      	adcs	r1, r1
10007f3c:	0424      	lsls	r4, r4, #16
10007f3e:	9a00      	ldr	r2, [sp, #0]
10007f40:	9b01      	ldr	r3, [sp, #4]
10007f42:	000d      	movs	r5, r1
10007f44:	4355      	muls	r5, r2
10007f46:	1b64      	subs	r4, r4, r5
10007f48:	4343      	muls	r3, r0
10007f4a:	1ae4      	subs	r4, r4, r3
10007f4c:	b295      	uxth	r5, r2
10007f4e:	b286      	uxth	r6, r0
10007f50:	4375      	muls	r5, r6
10007f52:	0c17      	lsrs	r7, r2, #16
10007f54:	437e      	muls	r6, r7
10007f56:	0c03      	lsrs	r3, r0, #16
10007f58:	435f      	muls	r7, r3
10007f5a:	b292      	uxth	r2, r2
10007f5c:	435a      	muls	r2, r3
10007f5e:	18b6      	adds	r6, r6, r2
10007f60:	d302      	bcc.n	10007f68 <l23_1>
10007f62:	2201      	movs	r2, #1
10007f64:	0412      	lsls	r2, r2, #16
10007f66:	18bf      	adds	r7, r7, r2

10007f68 <l23_1>:
10007f68:	0432      	lsls	r2, r6, #16
10007f6a:	0c33      	lsrs	r3, r6, #16
10007f6c:	1952      	adds	r2, r2, r5
10007f6e:	417b      	adcs	r3, r7
10007f70:	4252      	negs	r2, r2
10007f72:	419c      	sbcs	r4, r3
10007f74:	2c00      	cmp	r4, #0
10007f76:	d402      	bmi.n	10007f7e <l23_1+0x16>
10007f78:	2200      	movs	r2, #0
10007f7a:	3001      	adds	r0, #1
10007f7c:	4151      	adcs	r1, r2
10007f7e:	0840      	lsrs	r0, r0, #1
10007f80:	07ca      	lsls	r2, r1, #31
10007f82:	4310      	orrs	r0, r2
10007f84:	0849      	lsrs	r1, r1, #1

10007f86 <dd_2>:
10007f86:	b002      	add	sp, #8
10007f88:	4662      	mov	r2, ip
10007f8a:	07d7      	lsls	r7, r2, #31
10007f8c:	1092      	asrs	r2, r2, #2
10007f8e:	4b08      	ldr	r3, [pc, #32]	; (10007fb0 <dd_4+0x6>)
10007f90:	18d2      	adds	r2, r2, r3
10007f92:	4b08      	ldr	r3, [pc, #32]	; (10007fb4 <dd_4+0xa>)
10007f94:	429a      	cmp	r2, r3
10007f96:	d203      	bcs.n	10007fa0 <dd_3>
10007f98:	0512      	lsls	r2, r2, #20
10007f9a:	1889      	adds	r1, r1, r2

10007f9c <dd_5>:
10007f9c:	19c9      	adds	r1, r1, r7
10007f9e:	bdf0      	pop	{r4, r5, r6, r7, pc}

10007fa0 <dd_3>:
10007fa0:	2000      	movs	r0, #0
10007fa2:	2a00      	cmp	r2, #0
10007fa4:	dc01      	bgt.n	10007faa <dd_4>
10007fa6:	0039      	movs	r1, r7
10007fa8:	bdf0      	pop	{r4, r5, r6, r7, pc}

10007faa <dd_4>:
10007faa:	3301      	adds	r3, #1
10007fac:	0519      	lsls	r1, r3, #20
10007fae:	e7f5      	b.n	10007f9c <dd_5>
10007fb0:	000003fd 	.word	0x000003fd
10007fb4:	000007fe 	.word	0x000007fe

10007fb8 <double2uint_shim>:
10007fb8:	2200      	movs	r2, #0

10007fba <double2ufix_shim>:
10007fba:	b500      	push	{lr}
10007fbc:	3220      	adds	r2, #32
10007fbe:	f000 f804 	bl	10007fca <double2ufix64_shim>
10007fc2:	0008      	movs	r0, r1
10007fc4:	bd00      	pop	{pc}
	...

10007fc8 <double2uint64_shim>:
10007fc8:	2200      	movs	r2, #0

10007fca <double2ufix64_shim>:
10007fca:	150b      	asrs	r3, r1, #20
10007fcc:	d40a      	bmi.n	10007fe4 <ret_dzero>

10007fce <d2fix>:
10007fce:	b510      	push	{r4, lr}
10007fd0:	4694      	mov	ip, r2
10007fd2:	f000 f85f 	bl	10008094 <dunpacks>
10007fd6:	1414      	asrs	r4, r2, #16
10007fd8:	3401      	adds	r4, #1
10007fda:	da00      	bge.n	10007fde <d2fix+0x10>
10007fdc:	2100      	movs	r1, #0
10007fde:	17cb      	asrs	r3, r1, #31
10007fe0:	4c14      	ldr	r4, [pc, #80]	; (10008034 <d2fix_a+0x4a>)
10007fe2:	4720      	bx	r4

10007fe4 <ret_dzero>:
10007fe4:	2000      	movs	r0, #0
10007fe6:	2100      	movs	r1, #0
10007fe8:	4770      	bx	lr

10007fea <d2fix_a>:
10007fea:	4462      	add	r2, ip
10007fec:	3a34      	subs	r2, #52	; 0x34
10007fee:	d40c      	bmi.n	1000800a <d2fix_a+0x20>
10007ff0:	2a0c      	cmp	r2, #12
10007ff2:	da07      	bge.n	10008004 <d2fix_a+0x1a>
10007ff4:	0004      	movs	r4, r0
10007ff6:	4091      	lsls	r1, r2
10007ff8:	4090      	lsls	r0, r2
10007ffa:	4252      	negs	r2, r2
10007ffc:	3220      	adds	r2, #32
10007ffe:	40d4      	lsrs	r4, r2
10008000:	4321      	orrs	r1, r4
10008002:	bd10      	pop	{r4, pc}
10008004:	43d8      	mvns	r0, r3
10008006:	43d9      	mvns	r1, r3
10008008:	bd10      	pop	{r4, pc}
1000800a:	3220      	adds	r2, #32
1000800c:	d407      	bmi.n	1000801e <d2fix_a+0x34>
1000800e:	460c      	mov	r4, r1
10008010:	4094      	lsls	r4, r2
10008012:	4252      	negs	r2, r2
10008014:	3220      	adds	r2, #32
10008016:	4111      	asrs	r1, r2
10008018:	40d0      	lsrs	r0, r2
1000801a:	4320      	orrs	r0, r4
1000801c:	bd10      	pop	{r4, pc}
1000801e:	0008      	movs	r0, r1
10008020:	17c9      	asrs	r1, r1, #31
10008022:	3220      	adds	r2, #32
10008024:	d403      	bmi.n	1000802e <d2fix_a+0x44>
10008026:	4252      	negs	r2, r2
10008028:	3220      	adds	r2, #32
1000802a:	4110      	asrs	r0, r2
1000802c:	bd10      	pop	{r4, pc}
1000802e:	0018      	movs	r0, r3
10008030:	0019      	movs	r1, r3
10008032:	bd10      	pop	{r4, pc}
10008034:	10007feb 	.word	0x10007feb

10008038 <double2float_shim>:
10008038:	004a      	lsls	r2, r1, #1
1000803a:	0d52      	lsrs	r2, r2, #21
1000803c:	4b14      	ldr	r3, [pc, #80]	; (10008090 <double2float_shim+0x58>)
1000803e:	1ad2      	subs	r2, r2, r3
10008040:	dd13      	ble.n	1000806a <double2float_shim+0x32>
10008042:	2aff      	cmp	r2, #255	; 0xff
10008044:	da1e      	bge.n	10008084 <double2float_shim+0x4c>
10008046:	05d2      	lsls	r2, r2, #23
10008048:	0fcb      	lsrs	r3, r1, #31
1000804a:	07db      	lsls	r3, r3, #31
1000804c:	431a      	orrs	r2, r3
1000804e:	00c3      	lsls	r3, r0, #3
10008050:	0f40      	lsrs	r0, r0, #29
10008052:	0309      	lsls	r1, r1, #12
10008054:	0a49      	lsrs	r1, r1, #9
10008056:	4308      	orrs	r0, r1
10008058:	4310      	orrs	r0, r2
1000805a:	005b      	lsls	r3, r3, #1
1000805c:	d301      	bcc.n	10008062 <double2float_shim+0x2a>
1000805e:	d001      	beq.n	10008064 <double2float_shim+0x2c>
10008060:	3001      	adds	r0, #1
10008062:	4770      	bx	lr
10008064:	0843      	lsrs	r3, r0, #1
10008066:	d2fb      	bcs.n	10008060 <double2float_shim+0x28>
10008068:	4770      	bx	lr
1000806a:	d002      	beq.n	10008072 <double2float_shim+0x3a>
1000806c:	0fc8      	lsrs	r0, r1, #31
1000806e:	07c0      	lsls	r0, r0, #31
10008070:	4770      	bx	lr
10008072:	030a      	lsls	r2, r1, #12
10008074:	1312      	asrs	r2, r2, #12
10008076:	3201      	adds	r2, #1
10008078:	d1f8      	bne.n	1000806c <double2float_shim+0x34>
1000807a:	0f42      	lsrs	r2, r0, #29
1000807c:	2a07      	cmp	r2, #7
1000807e:	d1f5      	bne.n	1000806c <double2float_shim+0x34>
10008080:	2201      	movs	r2, #1
10008082:	e000      	b.n	10008086 <double2float_shim+0x4e>
10008084:	22ff      	movs	r2, #255	; 0xff
10008086:	0fc8      	lsrs	r0, r1, #31
10008088:	0200      	lsls	r0, r0, #8
1000808a:	1880      	adds	r0, r0, r2
1000808c:	05c0      	lsls	r0, r0, #23
1000808e:	4770      	bx	lr
10008090:	00000380 	.word	0x00000380

10008094 <dunpacks>:
10008094:	0d0a      	lsrs	r2, r1, #20
10008096:	0fcc      	lsrs	r4, r1, #31
10008098:	1e53      	subs	r3, r2, #1
1000809a:	051b      	lsls	r3, r3, #20
1000809c:	1ac9      	subs	r1, r1, r3
1000809e:	0552      	lsls	r2, r2, #21
100080a0:	d303      	bcc.n	100080aa <l59_1>
100080a2:	43c9      	mvns	r1, r1
100080a4:	4240      	negs	r0, r0
100080a6:	d300      	bcc.n	100080aa <l59_1>
100080a8:	3101      	adds	r1, #1

100080aa <l59_1>:
100080aa:	0d52      	lsrs	r2, r2, #21
100080ac:	d003      	beq.n	100080b6 <l59_2>
100080ae:	1c53      	adds	r3, r2, #1
100080b0:	0adb      	lsrs	r3, r3, #11
100080b2:	d007      	beq.n	100080c4 <l59_3>
100080b4:	1b12      	subs	r2, r2, r4

100080b6 <l59_2>:
100080b6:	2000      	movs	r0, #0
100080b8:	0064      	lsls	r4, r4, #1
100080ba:	1c61      	adds	r1, r4, #1
100080bc:	0789      	lsls	r1, r1, #30
100080be:	1289      	asrs	r1, r1, #10
100080c0:	3a80      	subs	r2, #128	; 0x80
100080c2:	0312      	lsls	r2, r2, #12

100080c4 <l59_3>:
100080c4:	4b01      	ldr	r3, [pc, #4]	; (100080cc <l59_3+0x8>)
100080c6:	1ad2      	subs	r2, r2, r3
100080c8:	4770      	bx	lr
100080ca:	0000      	.short	0x0000
100080cc:	000003ff 	.word	0x000003ff

100080d0 <__wrap___aeabi_lmul>:
100080d0:	4351      	muls	r1, r2
100080d2:	4343      	muls	r3, r0
100080d4:	18c9      	adds	r1, r1, r3
100080d6:	468c      	mov	ip, r1
100080d8:	0c11      	lsrs	r1, r2, #16
100080da:	b283      	uxth	r3, r0
100080dc:	434b      	muls	r3, r1
100080de:	b410      	push	{r4}
100080e0:	0c04      	lsrs	r4, r0, #16
100080e2:	4361      	muls	r1, r4
100080e4:	b292      	uxth	r2, r2
100080e6:	b280      	uxth	r0, r0
100080e8:	4350      	muls	r0, r2
100080ea:	4362      	muls	r2, r4
100080ec:	041c      	lsls	r4, r3, #16
100080ee:	0c1b      	lsrs	r3, r3, #16
100080f0:	1900      	adds	r0, r0, r4
100080f2:	bc10      	pop	{r4}
100080f4:	4159      	adcs	r1, r3
100080f6:	0413      	lsls	r3, r2, #16
100080f8:	0c12      	lsrs	r2, r2, #16
100080fa:	18c0      	adds	r0, r0, r3
100080fc:	4151      	adcs	r1, r2
100080fe:	4461      	add	r1, ip
10008100:	4770      	bx	lr
	...

10008104 <__wrap___aeabi_frsub>:
10008104:	4048      	eors	r0, r1
10008106:	4041      	eors	r1, r0
10008108:	4048      	eors	r0, r1

1000810a <__wrap___aeabi_fsub>:
1000810a:	4b0e      	ldr	r3, [pc, #56]	; (10008144 <__wrap___aeabi_fmul+0x6>)
1000810c:	685b      	ldr	r3, [r3, #4]
1000810e:	4718      	bx	r3

10008110 <__wrap___aeabi_fadd>:
10008110:	4b0c      	ldr	r3, [pc, #48]	; (10008144 <__wrap___aeabi_fmul+0x6>)
10008112:	681b      	ldr	r3, [r3, #0]
10008114:	4718      	bx	r3

10008116 <__wrap___aeabi_fdiv>:
10008116:	4a0c      	ldr	r2, [pc, #48]	; (10008148 <__wrap___aeabi_fmul+0xa>)
10008118:	6f93      	ldr	r3, [r2, #120]	; 0x78
1000811a:	089b      	lsrs	r3, r3, #2
1000811c:	d202      	bcs.n	10008124 <fdiv_save_state>

1000811e <fdiv_shim_call>:
1000811e:	4b09      	ldr	r3, [pc, #36]	; (10008144 <__wrap___aeabi_fmul+0x6>)
10008120:	68db      	ldr	r3, [r3, #12]
10008122:	4718      	bx	r3

10008124 <fdiv_save_state>:
10008124:	b5f0      	push	{r4, r5, r6, r7, lr}
10008126:	6e14      	ldr	r4, [r2, #96]	; 0x60
10008128:	6e55      	ldr	r5, [r2, #100]	; 0x64
1000812a:	6f57      	ldr	r7, [r2, #116]	; 0x74
1000812c:	6f16      	ldr	r6, [r2, #112]	; 0x70
1000812e:	f7ff fff6 	bl	1000811e <fdiv_shim_call>
10008132:	4a05      	ldr	r2, [pc, #20]	; (10008148 <__wrap___aeabi_fmul+0xa>)
10008134:	6614      	str	r4, [r2, #96]	; 0x60
10008136:	6655      	str	r5, [r2, #100]	; 0x64
10008138:	6757      	str	r7, [r2, #116]	; 0x74
1000813a:	6716      	str	r6, [r2, #112]	; 0x70
1000813c:	bdf0      	pop	{r4, r5, r6, r7, pc}

1000813e <__wrap___aeabi_fmul>:
1000813e:	4b01      	ldr	r3, [pc, #4]	; (10008144 <__wrap___aeabi_fmul+0x6>)
10008140:	689b      	ldr	r3, [r3, #8]
10008142:	4718      	bx	r3
10008144:	200007a8 	.word	0x200007a8
10008148:	d0000000 	.word	0xd0000000

1000814c <__wrap___aeabi_cfrcmple>:
1000814c:	b507      	push	{r0, r1, r2, lr}
1000814e:	4048      	eors	r0, r1
10008150:	4041      	eors	r1, r0
10008152:	4048      	eors	r0, r1
10008154:	e001      	b.n	1000815a <__aeabi_cfcmple_guts>
10008156:	46c0      	nop			; (mov r8, r8)

10008158 <__wrap___aeabi_cfcmpeq>:
10008158:	b507      	push	{r0, r1, r2, lr}

1000815a <__aeabi_cfcmple_guts>:
1000815a:	0042      	lsls	r2, r0, #1
1000815c:	0e12      	lsrs	r2, r2, #24
1000815e:	d003      	beq.n	10008168 <__aeabi_cfcmple_guts+0xe>
10008160:	2aff      	cmp	r2, #255	; 0xff
10008162:	d103      	bne.n	1000816c <__aeabi_cfcmple_guts+0x12>
10008164:	0242      	lsls	r2, r0, #9
10008166:	d818      	bhi.n	1000819a <__aeabi_cfcmple_guts+0x40>
10008168:	0dc0      	lsrs	r0, r0, #23
1000816a:	05c0      	lsls	r0, r0, #23
1000816c:	004a      	lsls	r2, r1, #1
1000816e:	0e12      	lsrs	r2, r2, #24
10008170:	d003      	beq.n	1000817a <__aeabi_cfcmple_guts+0x20>
10008172:	2aff      	cmp	r2, #255	; 0xff
10008174:	d103      	bne.n	1000817e <__aeabi_cfcmple_guts+0x24>
10008176:	024a      	lsls	r2, r1, #9
10008178:	d80f      	bhi.n	1000819a <__aeabi_cfcmple_guts+0x40>
1000817a:	0dc9      	lsrs	r1, r1, #23
1000817c:	05c9      	lsls	r1, r1, #23
1000817e:	2201      	movs	r2, #1
10008180:	4041      	eors	r1, r0
10008182:	d405      	bmi.n	10008190 <__aeabi_cfcmple_guts+0x36>
10008184:	4041      	eors	r1, r0
10008186:	d501      	bpl.n	1000818c <__aeabi_cfcmple_guts+0x32>
10008188:	4281      	cmp	r1, r0
1000818a:	bd07      	pop	{r0, r1, r2, pc}
1000818c:	4288      	cmp	r0, r1
1000818e:	bd07      	pop	{r0, r1, r2, pc}
10008190:	4301      	orrs	r1, r0
10008192:	1849      	adds	r1, r1, r1
10008194:	d001      	beq.n	1000819a <__aeabi_cfcmple_guts+0x40>
10008196:	43c0      	mvns	r0, r0
10008198:	1800      	adds	r0, r0, r0
1000819a:	bd07      	pop	{r0, r1, r2, pc}

1000819c <__wrap___aeabi_fcmple>:
1000819c:	b500      	push	{lr}
1000819e:	f7ff ffdb 	bl	10008158 <__wrap___aeabi_cfcmpeq>
100081a2:	d901      	bls.n	100081a8 <__wrap___aeabi_fcmple+0xc>
100081a4:	2000      	movs	r0, #0
100081a6:	bd00      	pop	{pc}
100081a8:	2001      	movs	r0, #1
100081aa:	bd00      	pop	{pc}

100081ac <__wrap___aeabi_fcmpge>:
100081ac:	b500      	push	{lr}
100081ae:	f7ff ffcd 	bl	1000814c <__wrap___aeabi_cfrcmple>
100081b2:	d901      	bls.n	100081b8 <__wrap___aeabi_fcmpge+0xc>
100081b4:	2000      	movs	r0, #0
100081b6:	bd00      	pop	{pc}
100081b8:	2001      	movs	r0, #1
100081ba:	bd00      	pop	{pc}

100081bc <__wrap___aeabi_fcmpgt>:
100081bc:	b500      	push	{lr}
100081be:	f7ff ffc5 	bl	1000814c <__wrap___aeabi_cfrcmple>
100081c2:	4180      	sbcs	r0, r0
100081c4:	bd00      	pop	{pc}

100081c6 <__wrap___aeabi_ui2f>:
100081c6:	1a49      	subs	r1, r1, r1
100081c8:	2800      	cmp	r0, #0
100081ca:	d107      	bne.n	100081dc <__aeabi_i2f_main>
100081cc:	4608      	mov	r0, r1
100081ce:	4770      	bx	lr

100081d0 <__wrap___aeabi_i2f>:
100081d0:	0fc1      	lsrs	r1, r0, #31
100081d2:	07c9      	lsls	r1, r1, #31
100081d4:	d500      	bpl.n	100081d8 <__wrap___aeabi_i2f+0x8>
100081d6:	4240      	negs	r0, r0
100081d8:	2800      	cmp	r0, #0
100081da:	d017      	beq.n	1000820c <__aeabi_i2f_main+0x30>

100081dc <__aeabi_i2f_main>:
100081dc:	46f4      	mov	ip, lr
100081de:	b403      	push	{r0, r1}
100081e0:	4b0b      	ldr	r3, [pc, #44]	; (10008210 <__aeabi_i2f_main+0x34>)
100081e2:	681b      	ldr	r3, [r3, #0]
100081e4:	4798      	blx	r3
100081e6:	bc06      	pop	{r1, r2}
100081e8:	4081      	lsls	r1, r0
100081ea:	389e      	subs	r0, #158	; 0x9e
100081ec:	4240      	negs	r0, r0
100081ee:	3180      	adds	r1, #128	; 0x80
100081f0:	d207      	bcs.n	10008202 <__aeabi_i2f_main+0x26>
100081f2:	060b      	lsls	r3, r1, #24
100081f4:	d007      	beq.n	10008206 <__aeabi_i2f_main+0x2a>
100081f6:	0049      	lsls	r1, r1, #1
100081f8:	0a49      	lsrs	r1, r1, #9
100081fa:	05c0      	lsls	r0, r0, #23
100081fc:	4310      	orrs	r0, r2
100081fe:	4308      	orrs	r0, r1
10008200:	4760      	bx	ip
10008202:	3001      	adds	r0, #1
10008204:	e7f8      	b.n	100081f8 <__aeabi_i2f_main+0x1c>
10008206:	0a49      	lsrs	r1, r1, #9
10008208:	0289      	lsls	r1, r1, #10
1000820a:	e7f5      	b.n	100081f8 <__aeabi_i2f_main+0x1c>
1000820c:	4770      	bx	lr
1000820e:	0000      	.short	0x0000
10008210:	20026b48 	.word	0x20026b48

10008214 <__wrap___aeabi_f2iz>:
10008214:	0041      	lsls	r1, r0, #1
10008216:	0e0a      	lsrs	r2, r1, #24
10008218:	2380      	movs	r3, #128	; 0x80
1000821a:	061b      	lsls	r3, r3, #24
1000821c:	2a7e      	cmp	r2, #126	; 0x7e
1000821e:	dd0b      	ble.n	10008238 <__wrap___aeabi_f2iz+0x24>
10008220:	3a9e      	subs	r2, #158	; 0x9e
10008222:	da0b      	bge.n	1000823c <__wrap___aeabi_f2iz+0x28>
10008224:	17c1      	asrs	r1, r0, #31
10008226:	0240      	lsls	r0, r0, #9
10008228:	0840      	lsrs	r0, r0, #1
1000822a:	4318      	orrs	r0, r3
1000822c:	4252      	negs	r2, r2
1000822e:	40d0      	lsrs	r0, r2
10008230:	0049      	lsls	r1, r1, #1
10008232:	3101      	adds	r1, #1
10008234:	4348      	muls	r0, r1
10008236:	4770      	bx	lr
10008238:	2000      	movs	r0, #0
1000823a:	4770      	bx	lr
1000823c:	0fc0      	lsrs	r0, r0, #31
1000823e:	18c0      	adds	r0, r0, r3
10008240:	3801      	subs	r0, #1
10008242:	4770      	bx	lr
10008244:	42c0      	cmn	r0, r0
10008246:	d30d      	bcc.n	10008264 <float2int>
10008248:	b500      	push	{lr}
1000824a:	0040      	lsls	r0, r0, #1
1000824c:	0840      	lsrs	r0, r0, #1
1000824e:	2100      	movs	r1, #0
10008250:	f000 f812 	bl	10008278 <__wrap___aeabi_f2uiz>
10008254:	2800      	cmp	r0, #0
10008256:	d401      	bmi.n	1000825c <__wrap___aeabi_f2iz+0x48>
10008258:	4240      	negs	r0, r0
1000825a:	bd00      	pop	{pc}
1000825c:	2080      	movs	r0, #128	; 0x80
1000825e:	0600      	lsls	r0, r0, #24
10008260:	bd00      	pop	{pc}
	...

10008264 <float2int>:
10008264:	4b03      	ldr	r3, [pc, #12]	; (10008274 <float2int+0x10>)
10008266:	69db      	ldr	r3, [r3, #28]
10008268:	46fc      	mov	ip, pc
1000826a:	4718      	bx	r3
1000826c:	8365df1c 	.word	0x8365df1c
10008270:	00001000 	.word	0x00001000
10008274:	200007a8 	.word	0x200007a8

10008278 <__wrap___aeabi_f2uiz>:
10008278:	4b01      	ldr	r3, [pc, #4]	; (10008280 <__wrap___aeabi_f2uiz+0x8>)
1000827a:	6a5b      	ldr	r3, [r3, #36]	; 0x24
1000827c:	4718      	bx	r3
1000827e:	0000      	.short	0x0000
10008280:	200007a8 	.word	0x200007a8

10008284 <__wrap___aeabi_f2d>:
10008284:	4b03      	ldr	r3, [pc, #12]	; (10008294 <__wrap___aeabi_f2d+0x10>)
10008286:	6fdb      	ldr	r3, [r3, #124]	; 0x7c
10008288:	46fc      	mov	ip, pc
1000828a:	4718      	bx	r3
1000828c:	837ddf7c 	.word	0x837ddf7c
10008290:	00001000 	.word	0x00001000
10008294:	200007a8 	.word	0x200007a8

10008298 <__aeabi_float_init>:
10008298:	2313      	movs	r3, #19
1000829a:	b510      	push	{r4, lr}
1000829c:	4812      	ldr	r0, [pc, #72]	; (100082e8 <__aeabi_float_init+0x50>)
1000829e:	781c      	ldrb	r4, [r3, #0]
100082a0:	f7ff f864 	bl	1000736c <rom_data_lookup>
100082a4:	0001      	movs	r1, r0
100082a6:	2c01      	cmp	r4, #1
100082a8:	d00a      	beq.n	100082c0 <__aeabi_float_init+0x28>
100082aa:	dd03      	ble.n	100082b4 <__aeabi_float_init+0x1c>
100082ac:	2280      	movs	r2, #128	; 0x80
100082ae:	480f      	ldr	r0, [pc, #60]	; (100082ec <__aeabi_float_init+0x54>)
100082b0:	f000 f88a 	bl	100083c8 <__wrap___aeabi_memcpy>
100082b4:	480e      	ldr	r0, [pc, #56]	; (100082f0 <__aeabi_float_init+0x58>)
100082b6:	f7ff f851 	bl	1000735c <rom_func_lookup>
100082ba:	4b0e      	ldr	r3, [pc, #56]	; (100082f4 <__aeabi_float_init+0x5c>)
100082bc:	6018      	str	r0, [r3, #0]
100082be:	bd10      	pop	{r4, pc}
100082c0:	4c0a      	ldr	r4, [pc, #40]	; (100082ec <__aeabi_float_init+0x54>)
100082c2:	2254      	movs	r2, #84	; 0x54
100082c4:	0020      	movs	r0, r4
100082c6:	f000 f87f 	bl	100083c8 <__wrap___aeabi_memcpy>
100082ca:	4b0b      	ldr	r3, [pc, #44]	; (100082f8 <__aeabi_float_init+0x60>)
100082cc:	6563      	str	r3, [r4, #84]	; 0x54
100082ce:	65a3      	str	r3, [r4, #88]	; 0x58
100082d0:	65e3      	str	r3, [r4, #92]	; 0x5c
100082d2:	6623      	str	r3, [r4, #96]	; 0x60
100082d4:	6663      	str	r3, [r4, #100]	; 0x64
100082d6:	66a3      	str	r3, [r4, #104]	; 0x68
100082d8:	66e3      	str	r3, [r4, #108]	; 0x6c
100082da:	6723      	str	r3, [r4, #112]	; 0x70
100082dc:	6763      	str	r3, [r4, #116]	; 0x74
100082de:	67a3      	str	r3, [r4, #120]	; 0x78
100082e0:	67e3      	str	r3, [r4, #124]	; 0x7c
100082e2:	6223      	str	r3, [r4, #32]
100082e4:	61e3      	str	r3, [r4, #28]
100082e6:	e7e5      	b.n	100082b4 <__aeabi_float_init+0x1c>
100082e8:	00004653 	.word	0x00004653
100082ec:	200007a8 	.word	0x200007a8
100082f0:	0000334c 	.word	0x0000334c
100082f4:	20026b48 	.word	0x20026b48
100082f8:	10008339 	.word	0x10008339

100082fc <__wrap_roundf>:
100082fc:	0043      	lsls	r3, r0, #1
100082fe:	0e1b      	lsrs	r3, r3, #24
10008300:	3b7f      	subs	r3, #127	; 0x7f
10008302:	1c5a      	adds	r2, r3, #1
10008304:	db0f      	blt.n	10008326 <__wrap_roundf+0x2a>
10008306:	1c5a      	adds	r2, r3, #1
10008308:	d010      	beq.n	1000832c <__wrap_roundf+0x30>
1000830a:	2217      	movs	r2, #23
1000830c:	1ad2      	subs	r2, r2, r3
1000830e:	2a00      	cmp	r2, #0
10008310:	dd08      	ble.n	10008324 <__wrap_roundf+0x28>
10008312:	2216      	movs	r2, #22
10008314:	1ad2      	subs	r2, r2, r3
10008316:	2301      	movs	r3, #1
10008318:	4093      	lsls	r3, r2
1000831a:	1818      	adds	r0, r3, r0
1000831c:	2302      	movs	r3, #2
1000831e:	4093      	lsls	r3, r2
10008320:	425b      	negs	r3, r3
10008322:	4018      	ands	r0, r3
10008324:	4770      	bx	lr
10008326:	0fc0      	lsrs	r0, r0, #31
10008328:	07c0      	lsls	r0, r0, #31
1000832a:	e7fb      	b.n	10008324 <__wrap_roundf+0x28>
1000832c:	0fc0      	lsrs	r0, r0, #31
1000832e:	07c3      	lsls	r3, r0, #31
10008330:	20fe      	movs	r0, #254	; 0xfe
10008332:	0580      	lsls	r0, r0, #22
10008334:	4318      	orrs	r0, r3
10008336:	e7f5      	b.n	10008324 <__wrap_roundf+0x28>

10008338 <float_table_shim_on_use_helper>:
10008338:	b507      	push	{r0, r1, r2, lr}
1000833a:	4660      	mov	r0, ip
1000833c:	8801      	ldrh	r1, [r0, #0]
1000833e:	0a0a      	lsrs	r2, r1, #8
10008340:	3002      	adds	r0, #2
10008342:	2adf      	cmp	r2, #223	; 0xdf
10008344:	d1fa      	bne.n	1000833c <float_table_shim_on_use_helper+0x4>
10008346:	b2c9      	uxtb	r1, r1
10008348:	0882      	lsrs	r2, r0, #2
1000834a:	d304      	bcc.n	10008356 <float_table_shim_on_use_helper+0x1e>
1000834c:	8802      	ldrh	r2, [r0, #0]
1000834e:	8840      	ldrh	r0, [r0, #2]
10008350:	0400      	lsls	r0, r0, #16
10008352:	4310      	orrs	r0, r2
10008354:	e000      	b.n	10008358 <float_table_shim_on_use_helper+0x20>
10008356:	6800      	ldr	r0, [r0, #0]
10008358:	4a01      	ldr	r2, [pc, #4]	; (10008360 <float_table_shim_on_use_helper+0x28>)
1000835a:	5050      	str	r0, [r2, r1]
1000835c:	9003      	str	r0, [sp, #12]
1000835e:	bd07      	pop	{r0, r1, r2, pc}
10008360:	200007a8 	.word	0x200007a8

10008364 <float2int_shim>:
10008364:	2100      	movs	r1, #0

10008366 <float2fix_shim>:
10008366:	15c2      	asrs	r2, r0, #23
10008368:	3280      	adds	r2, #128	; 0x80
1000836a:	3280      	adds	r2, #128	; 0x80
1000836c:	d001      	beq.n	10008372 <float2fix_shim+0xc>
1000836e:	4a02      	ldr	r2, [pc, #8]	; (10008378 <float2fix_shim+0x12>)
10008370:	4710      	bx	r2
10008372:	2000      	movs	r0, #0
10008374:	4770      	bx	lr
10008376:	0000      	.short	0x0000
10008378:	00002acd 	.word	0x00002acd

1000837c <float2double_shim>:
1000837c:	0fc3      	lsrs	r3, r0, #31
1000837e:	07db      	lsls	r3, r3, #31
10008380:	0041      	lsls	r1, r0, #1
10008382:	0e0a      	lsrs	r2, r1, #24
10008384:	d007      	beq.n	10008396 <float2double_shim+0x1a>
10008386:	2aff      	cmp	r2, #255	; 0xff
10008388:	d008      	beq.n	1000839c <float2double_shim+0x20>
1000838a:	0909      	lsrs	r1, r1, #4
1000838c:	4a05      	ldr	r2, [pc, #20]	; (100083a4 <float2double_shim+0x28>)
1000838e:	1889      	adds	r1, r1, r2
10008390:	4319      	orrs	r1, r3
10008392:	0740      	lsls	r0, r0, #29
10008394:	4770      	bx	lr
10008396:	0019      	movs	r1, r3
10008398:	2000      	movs	r0, #0
1000839a:	4770      	bx	lr
1000839c:	4902      	ldr	r1, [pc, #8]	; (100083a8 <float2double_shim+0x2c>)
1000839e:	18c9      	adds	r1, r1, r3
100083a0:	e7fa      	b.n	10008398 <float2double_shim+0x1c>
100083a2:	0000      	.short	0x0000
100083a4:	38000000 	.word	0x38000000
100083a8:	7ff00000 	.word	0x7ff00000

100083ac <__aeabi_mem_init>:
100083ac:	4801      	ldr	r0, [pc, #4]	; (100083b4 <__aeabi_mem_init+0x8>)
100083ae:	2104      	movs	r1, #4
100083b0:	4b01      	ldr	r3, [pc, #4]	; (100083b8 <__aeabi_mem_init+0xc>)
100083b2:	4718      	bx	r3
100083b4:	20000530 	.word	0x20000530
100083b8:	1000737d 	.word	0x1000737d

100083bc <__wrap_memset>:
100083bc:	4b01      	ldr	r3, [pc, #4]	; (100083c4 <__wrap_memset+0x8>)
100083be:	681b      	ldr	r3, [r3, #0]
100083c0:	4718      	bx	r3
100083c2:	0000      	.short	0x0000
100083c4:	20000530 	.word	0x20000530

100083c8 <__wrap___aeabi_memcpy>:
100083c8:	4b01      	ldr	r3, [pc, #4]	; (100083d0 <__wrap___aeabi_memcpy+0x8>)
100083ca:	685b      	ldr	r3, [r3, #4]
100083cc:	4718      	bx	r3
100083ce:	0000      	.short	0x0000
100083d0:	20000530 	.word	0x20000530

100083d4 <stdio_out_chars_no_crlf>:
100083d4:	0003      	movs	r3, r0
100083d6:	b510      	push	{r4, lr}
100083d8:	0008      	movs	r0, r1
100083da:	0011      	movs	r1, r2
100083dc:	681b      	ldr	r3, [r3, #0]
100083de:	4798      	blx	r3
100083e0:	bd10      	pop	{r4, pc}
100083e2:	46c0      	nop			; (mov r8, r8)

100083e4 <stdio_out_chars_crlf>:
100083e4:	b5f0      	push	{r4, r5, r6, r7, lr}
100083e6:	4646      	mov	r6, r8
100083e8:	464f      	mov	r7, r9
100083ea:	46d6      	mov	lr, sl
100083ec:	b5c0      	push	{r6, r7, lr}
100083ee:	7c43      	ldrb	r3, [r0, #17]
100083f0:	4680      	mov	r8, r0
100083f2:	000e      	movs	r6, r1
100083f4:	0017      	movs	r7, r2
100083f6:	2b00      	cmp	r3, #0
100083f8:	d046      	beq.n	10008488 <stdio_out_chars_crlf+0xa4>
100083fa:	2a00      	cmp	r2, #0
100083fc:	dd3f      	ble.n	1000847e <stdio_out_chars_crlf+0x9a>
100083fe:	1e4b      	subs	r3, r1, #1
10008400:	4699      	mov	r9, r3
10008402:	4b24      	ldr	r3, [pc, #144]	; (10008494 <stdio_out_chars_crlf+0xb0>)
10008404:	2501      	movs	r5, #1
10008406:	2400      	movs	r4, #0
10008408:	2000      	movs	r0, #0
1000840a:	469a      	mov	sl, r3
1000840c:	e00d      	b.n	1000842a <stdio_out_chars_crlf+0x46>
1000840e:	464b      	mov	r3, r9
10008410:	5d1b      	ldrb	r3, [r3, r4]
10008412:	3b0d      	subs	r3, #13
10008414:	425a      	negs	r2, r3
10008416:	4153      	adcs	r3, r2
10008418:	5d32      	ldrb	r2, [r6, r4]
1000841a:	b2db      	uxtb	r3, r3
1000841c:	2a0a      	cmp	r2, #10
1000841e:	d00b      	beq.n	10008438 <stdio_out_chars_crlf+0x54>
10008420:	002b      	movs	r3, r5
10008422:	3401      	adds	r4, #1
10008424:	3501      	adds	r5, #1
10008426:	429f      	cmp	r7, r3
10008428:	dd1a      	ble.n	10008460 <stdio_out_chars_crlf+0x7c>
1000842a:	2c00      	cmp	r4, #0
1000842c:	d1ef      	bne.n	1000840e <stdio_out_chars_crlf+0x2a>
1000842e:	4643      	mov	r3, r8
10008430:	5d32      	ldrb	r2, [r6, r4]
10008432:	7c1b      	ldrb	r3, [r3, #16]
10008434:	2a0a      	cmp	r2, #10
10008436:	d1f3      	bne.n	10008420 <stdio_out_chars_crlf+0x3c>
10008438:	2b00      	cmp	r3, #0
1000843a:	d1f1      	bne.n	10008420 <stdio_out_chars_crlf+0x3c>
1000843c:	42a0      	cmp	r0, r4
1000843e:	da04      	bge.n	1000844a <stdio_out_chars_crlf+0x66>
10008440:	4643      	mov	r3, r8
10008442:	1a21      	subs	r1, r4, r0
10008444:	681b      	ldr	r3, [r3, #0]
10008446:	1830      	adds	r0, r6, r0
10008448:	4798      	blx	r3
1000844a:	4643      	mov	r3, r8
1000844c:	4650      	mov	r0, sl
1000844e:	681b      	ldr	r3, [r3, #0]
10008450:	2102      	movs	r1, #2
10008452:	4798      	blx	r3
10008454:	3401      	adds	r4, #1
10008456:	0028      	movs	r0, r5
10008458:	002b      	movs	r3, r5
1000845a:	3501      	adds	r5, #1
1000845c:	429f      	cmp	r7, r3
1000845e:	dce4      	bgt.n	1000842a <stdio_out_chars_crlf+0x46>
10008460:	4287      	cmp	r7, r0
10008462:	dd04      	ble.n	1000846e <stdio_out_chars_crlf+0x8a>
10008464:	4643      	mov	r3, r8
10008466:	1a39      	subs	r1, r7, r0
10008468:	681b      	ldr	r3, [r3, #0]
1000846a:	1830      	adds	r0, r6, r0
1000846c:	4798      	blx	r3
1000846e:	19f6      	adds	r6, r6, r7
10008470:	3e01      	subs	r6, #1
10008472:	7833      	ldrb	r3, [r6, #0]
10008474:	3b0d      	subs	r3, #13
10008476:	425a      	negs	r2, r3
10008478:	4153      	adcs	r3, r2
1000847a:	4642      	mov	r2, r8
1000847c:	7413      	strb	r3, [r2, #16]
1000847e:	bce0      	pop	{r5, r6, r7}
10008480:	46ba      	mov	sl, r7
10008482:	46b1      	mov	r9, r6
10008484:	46a8      	mov	r8, r5
10008486:	bdf0      	pop	{r4, r5, r6, r7, pc}
10008488:	6803      	ldr	r3, [r0, #0]
1000848a:	0011      	movs	r1, r2
1000848c:	0030      	movs	r0, r6
1000848e:	4798      	blx	r3
10008490:	e7f5      	b.n	1000847e <stdio_out_chars_crlf+0x9a>
10008492:	46c0      	nop			; (mov r8, r8)
10008494:	10012bb4 	.word	0x10012bb4

10008498 <stdio_put_string.isra.0>:
10008498:	b5f0      	push	{r4, r5, r6, r7, lr}
1000849a:	4657      	mov	r7, sl
1000849c:	464e      	mov	r6, r9
1000849e:	4645      	mov	r5, r8
100084a0:	46de      	mov	lr, fp
100084a2:	001c      	movs	r4, r3
100084a4:	23d0      	movs	r3, #208	; 0xd0
100084a6:	b5e0      	push	{r5, r6, r7, lr}
100084a8:	061b      	lsls	r3, r3, #24
100084aa:	681f      	ldr	r7, [r3, #0]
100084ac:	4b34      	ldr	r3, [pc, #208]	; (10008580 <stdio_put_string.isra.0+0xe8>)
100084ae:	b083      	sub	sp, #12
100084b0:	0006      	movs	r6, r0
100084b2:	000d      	movs	r5, r1
100084b4:	0018      	movs	r0, r3
100084b6:	a901      	add	r1, sp, #4
100084b8:	4691      	mov	r9, r2
100084ba:	469a      	mov	sl, r3
100084bc:	f002 fea8 	bl	1000b210 <__mutex_try_enter_veneer>
100084c0:	4680      	mov	r8, r0
100084c2:	2800      	cmp	r0, #0
100084c4:	d108      	bne.n	100084d8 <stdio_put_string.isra.0+0x40>
100084c6:	9b01      	ldr	r3, [sp, #4]
100084c8:	b27f      	sxtb	r7, r7
100084ca:	429f      	cmp	r7, r3
100084cc:	d004      	beq.n	100084d8 <stdio_put_string.isra.0+0x40>
100084ce:	4650      	mov	r0, sl
100084d0:	f002 feb6 	bl	1000b240 <__mutex_enter_blocking_veneer>
100084d4:	2301      	movs	r3, #1
100084d6:	4698      	mov	r8, r3
100084d8:	1c6b      	adds	r3, r5, #1
100084da:	d103      	bne.n	100084e4 <stdio_put_string.isra.0+0x4c>
100084dc:	0030      	movs	r0, r6
100084de:	f002 fe45 	bl	1000b16c <strlen>
100084e2:	0005      	movs	r5, r0
100084e4:	2c00      	cmp	r4, #0
100084e6:	d127      	bne.n	10008538 <stdio_put_string.isra.0+0xa0>
100084e8:	4f26      	ldr	r7, [pc, #152]	; (10008584 <stdio_put_string.isra.0+0xec>)
100084ea:	4b27      	ldr	r3, [pc, #156]	; (10008588 <stdio_put_string.isra.0+0xf0>)
100084ec:	681c      	ldr	r4, [r3, #0]
100084ee:	2c00      	cmp	r4, #0
100084f0:	d018      	beq.n	10008524 <stdio_put_string.isra.0+0x8c>
100084f2:	464b      	mov	r3, r9
100084f4:	2b00      	cmp	r3, #0
100084f6:	d121      	bne.n	1000853c <stdio_put_string.isra.0+0xa4>
100084f8:	4b24      	ldr	r3, [pc, #144]	; (1000858c <stdio_put_string.isra.0+0xf4>)
100084fa:	4699      	mov	r9, r3
100084fc:	e002      	b.n	10008504 <stdio_put_string.isra.0+0x6c>
100084fe:	68e4      	ldr	r4, [r4, #12]
10008500:	2c00      	cmp	r4, #0
10008502:	d00f      	beq.n	10008524 <stdio_put_string.isra.0+0x8c>
10008504:	6823      	ldr	r3, [r4, #0]
10008506:	2b00      	cmp	r3, #0
10008508:	d0f9      	beq.n	100084fe <stdio_put_string.isra.0+0x66>
1000850a:	464b      	mov	r3, r9
1000850c:	681b      	ldr	r3, [r3, #0]
1000850e:	2b00      	cmp	r3, #0
10008510:	d001      	beq.n	10008516 <stdio_put_string.isra.0+0x7e>
10008512:	42a3      	cmp	r3, r4
10008514:	d1f3      	bne.n	100084fe <stdio_put_string.isra.0+0x66>
10008516:	0020      	movs	r0, r4
10008518:	002a      	movs	r2, r5
1000851a:	0031      	movs	r1, r6
1000851c:	47b8      	blx	r7
1000851e:	68e4      	ldr	r4, [r4, #12]
10008520:	2c00      	cmp	r4, #0
10008522:	d1ef      	bne.n	10008504 <stdio_put_string.isra.0+0x6c>
10008524:	4643      	mov	r3, r8
10008526:	2b00      	cmp	r3, #0
10008528:	d125      	bne.n	10008576 <stdio_put_string.isra.0+0xde>
1000852a:	b003      	add	sp, #12
1000852c:	bcf0      	pop	{r4, r5, r6, r7}
1000852e:	46bb      	mov	fp, r7
10008530:	46b2      	mov	sl, r6
10008532:	46a9      	mov	r9, r5
10008534:	46a0      	mov	r8, r4
10008536:	bdf0      	pop	{r4, r5, r6, r7, pc}
10008538:	4f15      	ldr	r7, [pc, #84]	; (10008590 <stdio_put_string.isra.0+0xf8>)
1000853a:	e7d6      	b.n	100084ea <stdio_put_string.isra.0+0x52>
1000853c:	4b13      	ldr	r3, [pc, #76]	; (1000858c <stdio_put_string.isra.0+0xf4>)
1000853e:	4699      	mov	r9, r3
10008540:	230a      	movs	r3, #10
10008542:	469b      	mov	fp, r3
10008544:	e002      	b.n	1000854c <stdio_put_string.isra.0+0xb4>
10008546:	68e4      	ldr	r4, [r4, #12]
10008548:	2c00      	cmp	r4, #0
1000854a:	d0eb      	beq.n	10008524 <stdio_put_string.isra.0+0x8c>
1000854c:	6823      	ldr	r3, [r4, #0]
1000854e:	2b00      	cmp	r3, #0
10008550:	d0f9      	beq.n	10008546 <stdio_put_string.isra.0+0xae>
10008552:	464b      	mov	r3, r9
10008554:	681b      	ldr	r3, [r3, #0]
10008556:	2b00      	cmp	r3, #0
10008558:	d001      	beq.n	1000855e <stdio_put_string.isra.0+0xc6>
1000855a:	42a3      	cmp	r3, r4
1000855c:	d1f3      	bne.n	10008546 <stdio_put_string.isra.0+0xae>
1000855e:	002a      	movs	r2, r5
10008560:	0031      	movs	r1, r6
10008562:	0020      	movs	r0, r4
10008564:	47b8      	blx	r7
10008566:	465a      	mov	r2, fp
10008568:	466b      	mov	r3, sp
1000856a:	0020      	movs	r0, r4
1000856c:	711a      	strb	r2, [r3, #4]
1000856e:	a901      	add	r1, sp, #4
10008570:	2201      	movs	r2, #1
10008572:	47b8      	blx	r7
10008574:	e7e7      	b.n	10008546 <stdio_put_string.isra.0+0xae>
10008576:	4650      	mov	r0, sl
10008578:	f002 fe32 	bl	1000b1e0 <__mutex_exit_veneer>
1000857c:	e7d5      	b.n	1000852a <stdio_put_string.isra.0+0x92>
1000857e:	46c0      	nop			; (mov r8, r8)
10008580:	20000580 	.word	0x20000580
10008584:	100083e5 	.word	0x100083e5
10008588:	20026704 	.word	0x20026704
1000858c:	20026708 	.word	0x20026708
10008590:	100083d5 	.word	0x100083d5

10008594 <__wrap_putchar>:
10008594:	b5f0      	push	{r4, r5, r6, r7, lr}
10008596:	46ce      	mov	lr, r9
10008598:	4647      	mov	r7, r8
1000859a:	b580      	push	{r7, lr}
1000859c:	b083      	sub	sp, #12
1000859e:	466b      	mov	r3, sp
100085a0:	1cde      	adds	r6, r3, #3
100085a2:	23d0      	movs	r3, #208	; 0xd0
100085a4:	7030      	strb	r0, [r6, #0]
100085a6:	061b      	lsls	r3, r3, #24
100085a8:	681c      	ldr	r4, [r3, #0]
100085aa:	4b1f      	ldr	r3, [pc, #124]	; (10008628 <__wrap_putchar+0x94>)
100085ac:	4680      	mov	r8, r0
100085ae:	a901      	add	r1, sp, #4
100085b0:	0018      	movs	r0, r3
100085b2:	4699      	mov	r9, r3
100085b4:	f002 fe2c 	bl	1000b210 <__mutex_try_enter_veneer>
100085b8:	1e07      	subs	r7, r0, #0
100085ba:	d020      	beq.n	100085fe <__wrap_putchar+0x6a>
100085bc:	4b1b      	ldr	r3, [pc, #108]	; (1000862c <__wrap_putchar+0x98>)
100085be:	681c      	ldr	r4, [r3, #0]
100085c0:	2c00      	cmp	r4, #0
100085c2:	d028      	beq.n	10008616 <__wrap_putchar+0x82>
100085c4:	4d1a      	ldr	r5, [pc, #104]	; (10008630 <__wrap_putchar+0x9c>)
100085c6:	e002      	b.n	100085ce <__wrap_putchar+0x3a>
100085c8:	68e4      	ldr	r4, [r4, #12]
100085ca:	2c00      	cmp	r4, #0
100085cc:	d00f      	beq.n	100085ee <__wrap_putchar+0x5a>
100085ce:	6823      	ldr	r3, [r4, #0]
100085d0:	2b00      	cmp	r3, #0
100085d2:	d0f9      	beq.n	100085c8 <__wrap_putchar+0x34>
100085d4:	682b      	ldr	r3, [r5, #0]
100085d6:	2b00      	cmp	r3, #0
100085d8:	d001      	beq.n	100085de <__wrap_putchar+0x4a>
100085da:	42a3      	cmp	r3, r4
100085dc:	d1f4      	bne.n	100085c8 <__wrap_putchar+0x34>
100085de:	0020      	movs	r0, r4
100085e0:	2201      	movs	r2, #1
100085e2:	0031      	movs	r1, r6
100085e4:	f7ff fefe 	bl	100083e4 <stdio_out_chars_crlf>
100085e8:	68e4      	ldr	r4, [r4, #12]
100085ea:	2c00      	cmp	r4, #0
100085ec:	d1ef      	bne.n	100085ce <__wrap_putchar+0x3a>
100085ee:	2f00      	cmp	r7, #0
100085f0:	d111      	bne.n	10008616 <__wrap_putchar+0x82>
100085f2:	4640      	mov	r0, r8
100085f4:	b003      	add	sp, #12
100085f6:	bcc0      	pop	{r6, r7}
100085f8:	46b9      	mov	r9, r7
100085fa:	46b0      	mov	r8, r6
100085fc:	bdf0      	pop	{r4, r5, r6, r7, pc}
100085fe:	9b01      	ldr	r3, [sp, #4]
10008600:	b264      	sxtb	r4, r4
10008602:	429c      	cmp	r4, r3
10008604:	d00b      	beq.n	1000861e <__wrap_putchar+0x8a>
10008606:	4648      	mov	r0, r9
10008608:	f002 fe1a 	bl	1000b240 <__mutex_enter_blocking_veneer>
1000860c:	4b07      	ldr	r3, [pc, #28]	; (1000862c <__wrap_putchar+0x98>)
1000860e:	2701      	movs	r7, #1
10008610:	681c      	ldr	r4, [r3, #0]
10008612:	2c00      	cmp	r4, #0
10008614:	d1d6      	bne.n	100085c4 <__wrap_putchar+0x30>
10008616:	4648      	mov	r0, r9
10008618:	f002 fde2 	bl	1000b1e0 <__mutex_exit_veneer>
1000861c:	e7e9      	b.n	100085f2 <__wrap_putchar+0x5e>
1000861e:	4b03      	ldr	r3, [pc, #12]	; (1000862c <__wrap_putchar+0x98>)
10008620:	681c      	ldr	r4, [r3, #0]
10008622:	2c00      	cmp	r4, #0
10008624:	d1ce      	bne.n	100085c4 <__wrap_putchar+0x30>
10008626:	e7e4      	b.n	100085f2 <__wrap_putchar+0x5e>
10008628:	20000580 	.word	0x20000580
1000862c:	20026704 	.word	0x20026704
10008630:	20026708 	.word	0x20026708

10008634 <__wrap_puts>:
10008634:	b570      	push	{r4, r5, r6, lr}
10008636:	0004      	movs	r4, r0
10008638:	f002 fd98 	bl	1000b16c <strlen>
1000863c:	2300      	movs	r3, #0
1000863e:	0001      	movs	r1, r0
10008640:	0005      	movs	r5, r0
10008642:	2201      	movs	r2, #1
10008644:	0020      	movs	r0, r4
10008646:	f7ff ff27 	bl	10008498 <stdio_put_string.isra.0>
1000864a:	4b08      	ldr	r3, [pc, #32]	; (1000866c <__wrap_puts+0x38>)
1000864c:	681c      	ldr	r4, [r3, #0]
1000864e:	2c00      	cmp	r4, #0
10008650:	d006      	beq.n	10008660 <__wrap_puts+0x2c>
10008652:	6863      	ldr	r3, [r4, #4]
10008654:	2b00      	cmp	r3, #0
10008656:	d005      	beq.n	10008664 <__wrap_puts+0x30>
10008658:	4798      	blx	r3
1000865a:	68e4      	ldr	r4, [r4, #12]
1000865c:	2c00      	cmp	r4, #0
1000865e:	d1f8      	bne.n	10008652 <__wrap_puts+0x1e>
10008660:	0028      	movs	r0, r5
10008662:	bd70      	pop	{r4, r5, r6, pc}
10008664:	68e4      	ldr	r4, [r4, #12]
10008666:	2c00      	cmp	r4, #0
10008668:	d1f3      	bne.n	10008652 <__wrap_puts+0x1e>
1000866a:	e7f9      	b.n	10008660 <__wrap_puts+0x2c>
1000866c:	20026704 	.word	0x20026704

10008670 <stdio_set_driver_enabled>:
10008670:	4a0a      	ldr	r2, [pc, #40]	; (1000869c <stdio_set_driver_enabled+0x2c>)
10008672:	6813      	ldr	r3, [r2, #0]
10008674:	2b00      	cmp	r3, #0
10008676:	d105      	bne.n	10008684 <stdio_set_driver_enabled+0x14>
10008678:	e00c      	b.n	10008694 <stdio_set_driver_enabled+0x24>
1000867a:	001a      	movs	r2, r3
1000867c:	68db      	ldr	r3, [r3, #12]
1000867e:	320c      	adds	r2, #12
10008680:	2b00      	cmp	r3, #0
10008682:	d007      	beq.n	10008694 <stdio_set_driver_enabled+0x24>
10008684:	4298      	cmp	r0, r3
10008686:	d1f8      	bne.n	1000867a <stdio_set_driver_enabled+0xa>
10008688:	2900      	cmp	r1, #0
1000868a:	d102      	bne.n	10008692 <stdio_set_driver_enabled+0x22>
1000868c:	68c3      	ldr	r3, [r0, #12]
1000868e:	6013      	str	r3, [r2, #0]
10008690:	60c1      	str	r1, [r0, #12]
10008692:	4770      	bx	lr
10008694:	2900      	cmp	r1, #0
10008696:	d0fc      	beq.n	10008692 <stdio_set_driver_enabled+0x22>
10008698:	6010      	str	r0, [r2, #0]
1000869a:	e7fa      	b.n	10008692 <stdio_set_driver_enabled+0x22>
1000869c:	20026704 	.word	0x20026704

100086a0 <stdio_init_all>:
100086a0:	b510      	push	{r4, lr}
100086a2:	f000 f93d 	bl	10008920 <stdio_usb_init>
100086a6:	bd10      	pop	{r4, pc}

100086a8 <resetd_init>:
100086a8:	4770      	bx	lr
100086aa:	46c0      	nop			; (mov r8, r8)

100086ac <resetd_reset>:
100086ac:	2200      	movs	r2, #0
100086ae:	4b01      	ldr	r3, [pc, #4]	; (100086b4 <resetd_reset+0x8>)
100086b0:	701a      	strb	r2, [r3, #0]
100086b2:	4770      	bx	lr
100086b4:	20026b91 	.word	0x20026b91

100086b8 <resetd_open>:
100086b8:	794b      	ldrb	r3, [r1, #5]
100086ba:	2000      	movs	r0, #0
100086bc:	2bff      	cmp	r3, #255	; 0xff
100086be:	d10b      	bne.n	100086d8 <resetd_open+0x20>
100086c0:	798b      	ldrb	r3, [r1, #6]
100086c2:	2b00      	cmp	r3, #0
100086c4:	d108      	bne.n	100086d8 <resetd_open+0x20>
100086c6:	79cb      	ldrb	r3, [r1, #7]
100086c8:	2b01      	cmp	r3, #1
100086ca:	d105      	bne.n	100086d8 <resetd_open+0x20>
100086cc:	2a08      	cmp	r2, #8
100086ce:	d903      	bls.n	100086d8 <resetd_open+0x20>
100086d0:	788a      	ldrb	r2, [r1, #2]
100086d2:	4b02      	ldr	r3, [pc, #8]	; (100086dc <resetd_open+0x24>)
100086d4:	3009      	adds	r0, #9
100086d6:	701a      	strb	r2, [r3, #0]
100086d8:	4770      	bx	lr
100086da:	46c0      	nop			; (mov r8, r8)
100086dc:	20026b91 	.word	0x20026b91

100086e0 <resetd_xfer_cb>:
100086e0:	2001      	movs	r0, #1
100086e2:	4770      	bx	lr

100086e4 <resetd_control_xfer_cb>:
100086e4:	b570      	push	{r4, r5, r6, lr}
100086e6:	2900      	cmp	r1, #0
100086e8:	d115      	bne.n	10008716 <resetd_control_xfer_cb+0x32>
100086ea:	4915      	ldr	r1, [pc, #84]	; (10008740 <resetd_control_xfer_cb+0x5c>)
100086ec:	7953      	ldrb	r3, [r2, #5]
100086ee:	7910      	ldrb	r0, [r2, #4]
100086f0:	7809      	ldrb	r1, [r1, #0]
100086f2:	021b      	lsls	r3, r3, #8
100086f4:	4303      	orrs	r3, r0
100086f6:	2000      	movs	r0, #0
100086f8:	4299      	cmp	r1, r3
100086fa:	d000      	beq.n	100086fe <resetd_control_xfer_cb+0x1a>
100086fc:	bd70      	pop	{r4, r5, r6, pc}
100086fe:	7853      	ldrb	r3, [r2, #1]
10008700:	2b01      	cmp	r3, #1
10008702:	d00a      	beq.n	1000871a <resetd_control_xfer_cb+0x36>
10008704:	2b02      	cmp	r3, #2
10008706:	d1f9      	bne.n	100086fc <resetd_control_xfer_cb+0x18>
10008708:	2000      	movs	r0, #0
1000870a:	2264      	movs	r2, #100	; 0x64
1000870c:	2100      	movs	r1, #0
1000870e:	f7fd fac7 	bl	10005ca0 <watchdog_reboot>
10008712:	2001      	movs	r0, #1
10008714:	e7f2      	b.n	100086fc <resetd_control_xfer_cb+0x18>
10008716:	2001      	movs	r0, #1
10008718:	e7f0      	b.n	100086fc <resetd_control_xfer_cb+0x18>
1000871a:	7894      	ldrb	r4, [r2, #2]
1000871c:	78d2      	ldrb	r2, [r2, #3]
1000871e:	0005      	movs	r5, r0
10008720:	0212      	lsls	r2, r2, #8
10008722:	4314      	orrs	r4, r2
10008724:	05d2      	lsls	r2, r2, #23
10008726:	d502      	bpl.n	1000872e <resetd_control_xfer_cb+0x4a>
10008728:	0a62      	lsrs	r2, r4, #9
1000872a:	4093      	lsls	r3, r2
1000872c:	001d      	movs	r5, r3
1000872e:	4805      	ldr	r0, [pc, #20]	; (10008744 <resetd_control_xfer_cb+0x60>)
10008730:	f7fe fe14 	bl	1000735c <rom_func_lookup>
10008734:	217f      	movs	r1, #127	; 0x7f
10008736:	0003      	movs	r3, r0
10008738:	4021      	ands	r1, r4
1000873a:	0028      	movs	r0, r5
1000873c:	4798      	blx	r3
1000873e:	46c0      	nop			; (mov r8, r8)
10008740:	20026b91 	.word	0x20026b91
10008744:	00004255 	.word	0x00004255

10008748 <usbd_app_driver_get_cb>:
10008748:	2301      	movs	r3, #1
1000874a:	7003      	strb	r3, [r0, #0]
1000874c:	4800      	ldr	r0, [pc, #0]	; (10008750 <usbd_app_driver_get_cb+0x8>)
1000874e:	4770      	bx	lr
10008750:	10012bb8 	.word	0x10012bb8

10008754 <tud_cdc_line_coding_cb>:
10008754:	7848      	ldrb	r0, [r1, #1]
10008756:	780b      	ldrb	r3, [r1, #0]
10008758:	788a      	ldrb	r2, [r1, #2]
1000875a:	0200      	lsls	r0, r0, #8
1000875c:	4318      	orrs	r0, r3
1000875e:	0412      	lsls	r2, r2, #16
10008760:	4310      	orrs	r0, r2
10008762:	2296      	movs	r2, #150	; 0x96
10008764:	78cb      	ldrb	r3, [r1, #3]
10008766:	b510      	push	{r4, lr}
10008768:	061b      	lsls	r3, r3, #24
1000876a:	4303      	orrs	r3, r0
1000876c:	00d2      	lsls	r2, r2, #3
1000876e:	4293      	cmp	r3, r2
10008770:	d000      	beq.n	10008774 <tud_cdc_line_coding_cb+0x20>
10008772:	bd10      	pop	{r4, pc}
10008774:	4803      	ldr	r0, [pc, #12]	; (10008784 <tud_cdc_line_coding_cb+0x30>)
10008776:	f7fe fdf1 	bl	1000735c <rom_func_lookup>
1000877a:	2100      	movs	r1, #0
1000877c:	0003      	movs	r3, r0
1000877e:	0008      	movs	r0, r1
10008780:	4798      	blx	r3
10008782:	46c0      	nop			; (mov r8, r8)
10008784:	00004255 	.word	0x00004255

10008788 <stdio_usb_in_chars>:
10008788:	b570      	push	{r4, r5, r6, lr}
1000878a:	4c18      	ldr	r4, [pc, #96]	; (100087ec <stdio_usb_in_chars+0x64>)
1000878c:	b082      	sub	sp, #8
1000878e:	0006      	movs	r6, r0
10008790:	000d      	movs	r5, r1
10008792:	0020      	movs	r0, r4
10008794:	a901      	add	r1, sp, #4
10008796:	f002 fd3b 	bl	1000b210 <__mutex_try_enter_veneer>
1000879a:	2800      	cmp	r0, #0
1000879c:	d108      	bne.n	100087b0 <stdio_usb_in_chars+0x28>
1000879e:	23d0      	movs	r3, #208	; 0xd0
100087a0:	061b      	lsls	r3, r3, #24
100087a2:	681b      	ldr	r3, [r3, #0]
100087a4:	9a01      	ldr	r2, [sp, #4]
100087a6:	429a      	cmp	r2, r3
100087a8:	d01c      	beq.n	100087e4 <stdio_usb_in_chars+0x5c>
100087aa:	0020      	movs	r0, r4
100087ac:	f002 fd48 	bl	1000b240 <__mutex_enter_blocking_veneer>
100087b0:	2000      	movs	r0, #0
100087b2:	f001 fe1f 	bl	1000a3f4 <tud_cdc_n_connected>
100087b6:	2800      	cmp	r0, #0
100087b8:	d107      	bne.n	100087ca <stdio_usb_in_chars+0x42>
100087ba:	2503      	movs	r5, #3
100087bc:	426d      	negs	r5, r5
100087be:	0020      	movs	r0, r4
100087c0:	f002 fd0e 	bl	1000b1e0 <__mutex_exit_veneer>
100087c4:	0028      	movs	r0, r5
100087c6:	b002      	add	sp, #8
100087c8:	bd70      	pop	{r4, r5, r6, pc}
100087ca:	2000      	movs	r0, #0
100087cc:	f001 fe2a 	bl	1000a424 <tud_cdc_n_available>
100087d0:	2800      	cmp	r0, #0
100087d2:	d0f2      	beq.n	100087ba <stdio_usb_in_chars+0x32>
100087d4:	002a      	movs	r2, r5
100087d6:	0031      	movs	r1, r6
100087d8:	2000      	movs	r0, #0
100087da:	f001 fe2f 	bl	1000a43c <tud_cdc_n_read>
100087de:	1e05      	subs	r5, r0, #0
100087e0:	d0eb      	beq.n	100087ba <stdio_usb_in_chars+0x32>
100087e2:	e7ec      	b.n	100087be <stdio_usb_in_chars+0x36>
100087e4:	2503      	movs	r5, #3
100087e6:	426d      	negs	r5, r5
100087e8:	e7ec      	b.n	100087c4 <stdio_usb_in_chars+0x3c>
100087ea:	46c0      	nop			; (mov r8, r8)
100087ec:	20026b50 	.word	0x20026b50

100087f0 <stdio_usb_out_chars>:
100087f0:	b5f0      	push	{r4, r5, r6, r7, lr}
100087f2:	46de      	mov	lr, fp
100087f4:	464f      	mov	r7, r9
100087f6:	4646      	mov	r6, r8
100087f8:	b5c0      	push	{r6, r7, lr}
100087fa:	4b33      	ldr	r3, [pc, #204]	; (100088c8 <stdio_usb_out_chars+0xd8>)
100087fc:	b082      	sub	sp, #8
100087fe:	4681      	mov	r9, r0
10008800:	000d      	movs	r5, r1
10008802:	0018      	movs	r0, r3
10008804:	a901      	add	r1, sp, #4
10008806:	469b      	mov	fp, r3
10008808:	f002 fd02 	bl	1000b210 <__mutex_try_enter_veneer>
1000880c:	2800      	cmp	r0, #0
1000880e:	d108      	bne.n	10008822 <stdio_usb_out_chars+0x32>
10008810:	23d0      	movs	r3, #208	; 0xd0
10008812:	061b      	lsls	r3, r3, #24
10008814:	681b      	ldr	r3, [r3, #0]
10008816:	9a01      	ldr	r2, [sp, #4]
10008818:	429a      	cmp	r2, r3
1000881a:	d04f      	beq.n	100088bc <stdio_usb_out_chars+0xcc>
1000881c:	4658      	mov	r0, fp
1000881e:	f002 fd0f 	bl	1000b240 <__mutex_enter_blocking_veneer>
10008822:	2000      	movs	r0, #0
10008824:	f001 fde6 	bl	1000a3f4 <tud_cdc_n_connected>
10008828:	2800      	cmp	r0, #0
1000882a:	d03f      	beq.n	100088ac <stdio_usb_out_chars+0xbc>
1000882c:	2400      	movs	r4, #0
1000882e:	2d00      	cmp	r5, #0
10008830:	dd41      	ble.n	100088b6 <stdio_usb_out_chars+0xc6>
10008832:	4e26      	ldr	r6, [pc, #152]	; (100088cc <stdio_usb_out_chars+0xdc>)
10008834:	e011      	b.n	1000885a <stdio_usb_out_chars+0x6a>
10008836:	464b      	mov	r3, r9
10008838:	2000      	movs	r0, #0
1000883a:	1919      	adds	r1, r3, r4
1000883c:	f001 fe72 	bl	1000a524 <tud_cdc_n_write>
10008840:	4680      	mov	r8, r0
10008842:	f000 fe65 	bl	10009510 <tud_task>
10008846:	2000      	movs	r0, #0
10008848:	f001 fe30 	bl	1000a4ac <tud_cdc_n_write_flush>
1000884c:	f7fc fc72 	bl	10005134 <time_us_64>
10008850:	6030      	str	r0, [r6, #0]
10008852:	6071      	str	r1, [r6, #4]
10008854:	4444      	add	r4, r8
10008856:	42ac      	cmp	r4, r5
10008858:	da2d      	bge.n	100088b6 <stdio_usb_out_chars+0xc6>
1000885a:	2000      	movs	r0, #0
1000885c:	f001 fe7c 	bl	1000a558 <tud_cdc_n_write_available>
10008860:	1b2f      	subs	r7, r5, r4
10008862:	0002      	movs	r2, r0
10008864:	42b8      	cmp	r0, r7
10008866:	dd00      	ble.n	1000886a <stdio_usb_out_chars+0x7a>
10008868:	003a      	movs	r2, r7
1000886a:	2a00      	cmp	r2, #0
1000886c:	d1e3      	bne.n	10008836 <stdio_usb_out_chars+0x46>
1000886e:	f000 fe4f 	bl	10009510 <tud_task>
10008872:	2000      	movs	r0, #0
10008874:	f001 fe1a 	bl	1000a4ac <tud_cdc_n_write_flush>
10008878:	2000      	movs	r0, #0
1000887a:	f001 fdbb 	bl	1000a3f4 <tud_cdc_n_connected>
1000887e:	2800      	cmp	r0, #0
10008880:	d019      	beq.n	100088b6 <stdio_usb_out_chars+0xc6>
10008882:	2000      	movs	r0, #0
10008884:	f001 fe68 	bl	1000a558 <tud_cdc_n_write_available>
10008888:	2800      	cmp	r0, #0
1000888a:	d1e4      	bne.n	10008856 <stdio_usb_out_chars+0x66>
1000888c:	f7fc fc52 	bl	10005134 <time_us_64>
10008890:	6832      	ldr	r2, [r6, #0]
10008892:	6873      	ldr	r3, [r6, #4]
10008894:	000f      	movs	r7, r1
10008896:	2100      	movs	r1, #0
10008898:	4684      	mov	ip, r0
1000889a:	480d      	ldr	r0, [pc, #52]	; (100088d0 <stdio_usb_out_chars+0xe0>)
1000889c:	1812      	adds	r2, r2, r0
1000889e:	414b      	adcs	r3, r1
100088a0:	429f      	cmp	r7, r3
100088a2:	d808      	bhi.n	100088b6 <stdio_usb_out_chars+0xc6>
100088a4:	d1d7      	bne.n	10008856 <stdio_usb_out_chars+0x66>
100088a6:	4594      	cmp	ip, r2
100088a8:	d9d5      	bls.n	10008856 <stdio_usb_out_chars+0x66>
100088aa:	e004      	b.n	100088b6 <stdio_usb_out_chars+0xc6>
100088ac:	2000      	movs	r0, #0
100088ae:	2100      	movs	r1, #0
100088b0:	4b06      	ldr	r3, [pc, #24]	; (100088cc <stdio_usb_out_chars+0xdc>)
100088b2:	6018      	str	r0, [r3, #0]
100088b4:	6059      	str	r1, [r3, #4]
100088b6:	4658      	mov	r0, fp
100088b8:	f002 fc92 	bl	1000b1e0 <__mutex_exit_veneer>
100088bc:	b002      	add	sp, #8
100088be:	bce0      	pop	{r5, r6, r7}
100088c0:	46bb      	mov	fp, r7
100088c2:	46b1      	mov	r9, r6
100088c4:	46a8      	mov	r8, r5
100088c6:	bdf0      	pop	{r4, r5, r6, r7, pc}
100088c8:	20026b50 	.word	0x20026b50
100088cc:	200006a0 	.word	0x200006a0
100088d0:	0007a120 	.word	0x0007a120

100088d4 <timer_task>:
100088d4:	b510      	push	{r4, lr}
100088d6:	4b04      	ldr	r3, [pc, #16]	; (100088e8 <timer_task+0x14>)
100088d8:	7818      	ldrb	r0, [r3, #0]
100088da:	f7fb fd03 	bl	100042e4 <irq_set_pending>
100088de:	20fa      	movs	r0, #250	; 0xfa
100088e0:	2100      	movs	r1, #0
100088e2:	0080      	lsls	r0, r0, #2
100088e4:	bd10      	pop	{r4, pc}
100088e6:	46c0      	nop			; (mov r8, r8)
100088e8:	20026b92 	.word	0x20026b92

100088ec <usb_irq>:
100088ec:	b510      	push	{r4, lr}
100088ee:	4b02      	ldr	r3, [pc, #8]	; (100088f8 <usb_irq+0xc>)
100088f0:	7818      	ldrb	r0, [r3, #0]
100088f2:	f7fb fcf7 	bl	100042e4 <irq_set_pending>
100088f6:	bd10      	pop	{r4, pc}
100088f8:	20026b92 	.word	0x20026b92

100088fc <low_priority_worker_irq>:
100088fc:	b510      	push	{r4, lr}
100088fe:	4c07      	ldr	r4, [pc, #28]	; (1000891c <low_priority_worker_irq+0x20>)
10008900:	2100      	movs	r1, #0
10008902:	0020      	movs	r0, r4
10008904:	f002 fc84 	bl	1000b210 <__mutex_try_enter_veneer>
10008908:	2800      	cmp	r0, #0
1000890a:	d100      	bne.n	1000890e <low_priority_worker_irq+0x12>
1000890c:	bd10      	pop	{r4, pc}
1000890e:	f000 fdff 	bl	10009510 <tud_task>
10008912:	0020      	movs	r0, r4
10008914:	f002 fc64 	bl	1000b1e0 <__mutex_exit_veneer>
10008918:	e7f8      	b.n	1000890c <low_priority_worker_irq+0x10>
1000891a:	46c0      	nop			; (mov r8, r8)
1000891c:	20026b50 	.word	0x20026b50

10008920 <stdio_usb_init>:
10008920:	b5f0      	push	{r4, r5, r6, r7, lr}
10008922:	4b24      	ldr	r3, [pc, #144]	; (100089b4 <stdio_usb_init+0x94>)
10008924:	b085      	sub	sp, #20
10008926:	781b      	ldrb	r3, [r3, #0]
10008928:	f001 fffe 	bl	1000a928 <tusb_init>
1000892c:	4822      	ldr	r0, [pc, #136]	; (100089b8 <stdio_usb_init+0x98>)
1000892e:	f7fc ff2f 	bl	10005790 <mutex_init>
10008932:	2001      	movs	r0, #1
10008934:	f7fb ff5e 	bl	100047f4 <user_irq_claim_unused>
10008938:	23ff      	movs	r3, #255	; 0xff
1000893a:	4c20      	ldr	r4, [pc, #128]	; (100089bc <stdio_usb_init+0x9c>)
1000893c:	4920      	ldr	r1, [pc, #128]	; (100089c0 <stdio_usb_init+0xa0>)
1000893e:	7020      	strb	r0, [r4, #0]
10008940:	4018      	ands	r0, r3
10008942:	f7fb fcf5 	bl	10004330 <irq_set_exclusive_handler>
10008946:	7820      	ldrb	r0, [r4, #0]
10008948:	2101      	movs	r1, #1
1000894a:	f7fb fcb9 	bl	100042c0 <irq_set_enabled>
1000894e:	2005      	movs	r0, #5
10008950:	f7fb fcd0 	bl	100042f4 <irq_has_shared_handler>
10008954:	1e04      	subs	r4, r0, #0
10008956:	d00c      	beq.n	10008972 <stdio_usb_init+0x52>
10008958:	2200      	movs	r2, #0
1000895a:	2005      	movs	r0, #5
1000895c:	4919      	ldr	r1, [pc, #100]	; (100089c4 <stdio_usb_init+0xa4>)
1000895e:	f7fb fd11 	bl	10004384 <irq_add_shared_handler>
10008962:	2101      	movs	r1, #1
10008964:	4818      	ldr	r0, [pc, #96]	; (100089c8 <stdio_usb_init+0xa8>)
10008966:	f7ff fe83 	bl	10008670 <stdio_set_driver_enabled>
1000896a:	2401      	movs	r4, #1
1000896c:	0020      	movs	r0, r4
1000896e:	b005      	add	sp, #20
10008970:	bdf0      	pop	{r4, r5, r6, r7, pc}
10008972:	f7fc f9b5 	bl	10004ce0 <alarm_pool_get_default>
10008976:	0005      	movs	r5, r0
10008978:	f7fc fbdc 	bl	10005134 <time_us_64>
1000897c:	22fa      	movs	r2, #250	; 0xfa
1000897e:	0006      	movs	r6, r0
10008980:	000f      	movs	r7, r1
10008982:	2300      	movs	r3, #0
10008984:	0092      	lsls	r2, r2, #2
10008986:	1992      	adds	r2, r2, r6
10008988:	417b      	adcs	r3, r7
1000898a:	4299      	cmp	r1, r3
1000898c:	d80e      	bhi.n	100089ac <stdio_usb_init+0x8c>
1000898e:	d00b      	beq.n	100089a8 <stdio_usb_init+0x88>
10008990:	2101      	movs	r1, #1
10008992:	9102      	str	r1, [sp, #8]
10008994:	2100      	movs	r1, #0
10008996:	9101      	str	r1, [sp, #4]
10008998:	490c      	ldr	r1, [pc, #48]	; (100089cc <stdio_usb_init+0xac>)
1000899a:	0028      	movs	r0, r5
1000899c:	9100      	str	r1, [sp, #0]
1000899e:	f7fc f9a3 	bl	10004ce8 <alarm_pool_add_alarm_at>
100089a2:	2800      	cmp	r0, #0
100089a4:	d0e2      	beq.n	1000896c <stdio_usb_init+0x4c>
100089a6:	e7dc      	b.n	10008962 <stdio_usb_init+0x42>
100089a8:	4290      	cmp	r0, r2
100089aa:	d9f1      	bls.n	10008990 <stdio_usb_init+0x70>
100089ac:	2201      	movs	r2, #1
100089ae:	4252      	negs	r2, r2
100089b0:	17d3      	asrs	r3, r2, #31
100089b2:	e7ed      	b.n	10008990 <stdio_usb_init+0x70>
100089b4:	10012dc4 	.word	0x10012dc4
100089b8:	20026b50 	.word	0x20026b50
100089bc:	20026b92 	.word	0x20026b92
100089c0:	100088fd 	.word	0x100088fd
100089c4:	100088ed 	.word	0x100088ed
100089c8:	20000540 	.word	0x20000540
100089cc:	100088d5 	.word	0x100088d5

100089d0 <tud_descriptor_device_cb>:
100089d0:	4800      	ldr	r0, [pc, #0]	; (100089d4 <tud_descriptor_device_cb+0x4>)
100089d2:	4770      	bx	lr
100089d4:	10012c70 	.word	0x10012c70

100089d8 <tud_descriptor_configuration_cb>:
100089d8:	4800      	ldr	r0, [pc, #0]	; (100089dc <tud_descriptor_configuration_cb+0x4>)
100089da:	4770      	bx	lr
100089dc:	10012c1c 	.word	0x10012c1c

100089e0 <tud_descriptor_string_cb>:
100089e0:	b570      	push	{r4, r5, r6, lr}
100089e2:	0004      	movs	r4, r0
100089e4:	4817      	ldr	r0, [pc, #92]	; (10008a44 <tud_descriptor_string_cb+0x64>)
100089e6:	7803      	ldrb	r3, [r0, #0]
100089e8:	2b00      	cmp	r3, #0
100089ea:	d021      	beq.n	10008a30 <tud_descriptor_string_cb+0x50>
100089ec:	2c00      	cmp	r4, #0
100089ee:	d106      	bne.n	100089fe <tud_descriptor_string_cb+0x1e>
100089f0:	24c1      	movs	r4, #193	; 0xc1
100089f2:	4815      	ldr	r0, [pc, #84]	; (10008a48 <tud_descriptor_string_cb+0x68>)
100089f4:	4b15      	ldr	r3, [pc, #84]	; (10008a4c <tud_descriptor_string_cb+0x6c>)
100089f6:	00a4      	lsls	r4, r4, #2
100089f8:	8043      	strh	r3, [r0, #2]
100089fa:	8004      	strh	r4, [r0, #0]
100089fc:	bd70      	pop	{r4, r5, r6, pc}
100089fe:	2c05      	cmp	r4, #5
10008a00:	d81d      	bhi.n	10008a3e <tud_descriptor_string_cb+0x5e>
10008a02:	4b13      	ldr	r3, [pc, #76]	; (10008a50 <tud_descriptor_string_cb+0x70>)
10008a04:	4810      	ldr	r0, [pc, #64]	; (10008a48 <tud_descriptor_string_cb+0x68>)
10008a06:	00a4      	lsls	r4, r4, #2
10008a08:	58e5      	ldr	r5, [r4, r3]
10008a0a:	1c81      	adds	r1, r0, #2
10008a0c:	2300      	movs	r3, #0
10008a0e:	e004      	b.n	10008a1a <tud_descriptor_string_cb+0x3a>
10008a10:	3301      	adds	r3, #1
10008a12:	800a      	strh	r2, [r1, #0]
10008a14:	3102      	adds	r1, #2
10008a16:	2b13      	cmp	r3, #19
10008a18:	d00e      	beq.n	10008a38 <tud_descriptor_string_cb+0x58>
10008a1a:	5cea      	ldrb	r2, [r5, r3]
10008a1c:	b2dc      	uxtb	r4, r3
10008a1e:	2a00      	cmp	r2, #0
10008a20:	d1f6      	bne.n	10008a10 <tud_descriptor_string_cb+0x30>
10008a22:	23c0      	movs	r3, #192	; 0xc0
10008a24:	3401      	adds	r4, #1
10008a26:	b2e4      	uxtb	r4, r4
10008a28:	0064      	lsls	r4, r4, #1
10008a2a:	009b      	lsls	r3, r3, #2
10008a2c:	431c      	orrs	r4, r3
10008a2e:	e7e4      	b.n	100089fa <tud_descriptor_string_cb+0x1a>
10008a30:	2111      	movs	r1, #17
10008a32:	f002 fa0f 	bl	1000ae54 <pico_get_unique_board_id_string>
10008a36:	e7d9      	b.n	100089ec <tud_descriptor_string_cb+0xc>
10008a38:	24ca      	movs	r4, #202	; 0xca
10008a3a:	00a4      	lsls	r4, r4, #2
10008a3c:	e7dd      	b.n	100089fa <tud_descriptor_string_cb+0x1a>
10008a3e:	2000      	movs	r0, #0
10008a40:	e7dc      	b.n	100089fc <tud_descriptor_string_cb+0x1c>
10008a42:	46c0      	nop			; (mov r8, r8)
10008a44:	20026b6c 	.word	0x20026b6c
10008a48:	200266d8 	.word	0x200266d8
10008a4c:	00000409 	.word	0x00000409
10008a50:	10012c84 	.word	0x10012c84

10008a54 <dcd_rp2040_irq>:
10008a54:	b5f0      	push	{r4, r5, r6, r7, lr}
10008a56:	2398      	movs	r3, #152	; 0x98
10008a58:	4657      	mov	r7, sl
10008a5a:	4645      	mov	r5, r8
10008a5c:	46de      	mov	lr, fp
10008a5e:	464e      	mov	r6, r9
10008a60:	4a6c      	ldr	r2, [pc, #432]	; (10008c14 <dcd_rp2040_irq+0x1c0>)
10008a62:	b5e0      	push	{r5, r6, r7, lr}
10008a64:	58d7      	ldr	r7, [r2, r3]
10008a66:	2580      	movs	r5, #128	; 0x80
10008a68:	003c      	movs	r4, r7
10008a6a:	026d      	lsls	r5, r5, #9
10008a6c:	3b88      	subs	r3, #136	; 0x88
10008a6e:	469a      	mov	sl, r3
10008a70:	b083      	sub	sp, #12
10008a72:	402c      	ands	r4, r5
10008a74:	422f      	tst	r7, r5
10008a76:	d00f      	beq.n	10008a98 <dcd_rp2040_irq+0x44>
10008a78:	2201      	movs	r2, #1
10008a7a:	2123      	movs	r1, #35	; 0x23
10008a7c:	4b66      	ldr	r3, [pc, #408]	; (10008c18 <dcd_rp2040_irq+0x1c4>)
10008a7e:	2000      	movs	r0, #0
10008a80:	545a      	strb	r2, [r3, r1]
10008a82:	70da      	strb	r2, [r3, #3]
10008a84:	4965      	ldr	r1, [pc, #404]	; (10008c1c <dcd_rp2040_irq+0x1c8>)
10008a86:	f001 fa73 	bl	10009f70 <dcd_event_setup_received>
10008a8a:	2280      	movs	r2, #128	; 0x80
10008a8c:	4b64      	ldr	r3, [pc, #400]	; (10008c20 <dcd_rp2040_irq+0x1cc>)
10008a8e:	0292      	lsls	r2, r2, #10
10008a90:	651a      	str	r2, [r3, #80]	; 0x50
10008a92:	4b64      	ldr	r3, [pc, #400]	; (10008c24 <dcd_rp2040_irq+0x1d0>)
10008a94:	002c      	movs	r4, r5
10008a96:	469a      	mov	sl, r3
10008a98:	06fb      	lsls	r3, r7, #27
10008a9a:	d417      	bmi.n	10008acc <dcd_rp2040_irq+0x78>
10008a9c:	2380      	movs	r3, #128	; 0x80
10008a9e:	015b      	lsls	r3, r3, #5
10008aa0:	421f      	tst	r7, r3
10008aa2:	d145      	bne.n	10008b30 <dcd_rp2040_irq+0xdc>
10008aa4:	2380      	movs	r3, #128	; 0x80
10008aa6:	01db      	lsls	r3, r3, #7
10008aa8:	421f      	tst	r7, r3
10008aaa:	d000      	beq.n	10008aae <dcd_rp2040_irq+0x5a>
10008aac:	e088      	b.n	10008bc0 <dcd_rp2040_irq+0x16c>
10008aae:	2380      	movs	r3, #128	; 0x80
10008ab0:	021b      	lsls	r3, r3, #8
10008ab2:	421f      	tst	r7, r3
10008ab4:	d000      	beq.n	10008ab8 <dcd_rp2040_irq+0x64>
10008ab6:	e091      	b.n	10008bdc <dcd_rp2040_irq+0x188>
10008ab8:	42bc      	cmp	r4, r7
10008aba:	d000      	beq.n	10008abe <dcd_rp2040_irq+0x6a>
10008abc:	e0a5      	b.n	10008c0a <dcd_rp2040_irq+0x1b6>
10008abe:	b003      	add	sp, #12
10008ac0:	bcf0      	pop	{r4, r5, r6, r7}
10008ac2:	46bb      	mov	fp, r7
10008ac4:	46b2      	mov	sl, r6
10008ac6:	46a9      	mov	r9, r5
10008ac8:	46a0      	mov	r8, r4
10008aca:	bdf0      	pop	{r4, r5, r6, r7, pc}
10008acc:	4b51      	ldr	r3, [pc, #324]	; (10008c14 <dcd_rp2040_irq+0x1c0>)
10008ace:	6d9b      	ldr	r3, [r3, #88]	; 0x58
10008ad0:	4698      	mov	r8, r3
10008ad2:	2b00      	cmp	r3, #0
10008ad4:	d027      	beq.n	10008b26 <dcd_rp2040_irq+0xd2>
10008ad6:	4b52      	ldr	r3, [pc, #328]	; (10008c20 <dcd_rp2040_irq+0x1cc>)
10008ad8:	2400      	movs	r4, #0
10008ada:	469b      	mov	fp, r3
10008adc:	2301      	movs	r3, #1
10008ade:	4699      	mov	r9, r3
10008ae0:	4643      	mov	r3, r8
10008ae2:	2601      	movs	r6, #1
10008ae4:	46b8      	mov	r8, r7
10008ae6:	001f      	movs	r7, r3
10008ae8:	e004      	b.n	10008af4 <dcd_rp2040_irq+0xa0>
10008aea:	3401      	adds	r4, #1
10008aec:	0076      	lsls	r6, r6, #1
10008aee:	b2e4      	uxtb	r4, r4
10008af0:	2c20      	cmp	r4, #32
10008af2:	d017      	beq.n	10008b24 <dcd_rp2040_irq+0xd0>
10008af4:	4237      	tst	r7, r6
10008af6:	d0f8      	beq.n	10008aea <dcd_rp2040_irq+0x96>
10008af8:	465b      	mov	r3, fp
10008afa:	659e      	str	r6, [r3, #88]	; 0x58
10008afc:	464b      	mov	r3, r9
10008afe:	0865      	lsrs	r5, r4, #1
10008b00:	43a3      	bics	r3, r4
10008b02:	006d      	lsls	r5, r5, #1
10008b04:	18ed      	adds	r5, r5, r3
10008b06:	4b44      	ldr	r3, [pc, #272]	; (10008c18 <dcd_rp2040_irq+0x1c4>)
10008b08:	016d      	lsls	r5, r5, #5
10008b0a:	469c      	mov	ip, r3
10008b0c:	4465      	add	r5, ip
10008b0e:	0028      	movs	r0, r5
10008b10:	f000 fb8a 	bl	10009228 <hw_endpoint_xfer_continue>
10008b14:	2800      	cmp	r0, #0
10008b16:	d16c      	bne.n	10008bf2 <dcd_rp2040_irq+0x19e>
10008b18:	3401      	adds	r4, #1
10008b1a:	43b7      	bics	r7, r6
10008b1c:	b2e4      	uxtb	r4, r4
10008b1e:	0076      	lsls	r6, r6, #1
10008b20:	2f00      	cmp	r7, #0
10008b22:	d1e5      	bne.n	10008af0 <dcd_rp2040_irq+0x9c>
10008b24:	4647      	mov	r7, r8
10008b26:	2380      	movs	r3, #128	; 0x80
10008b28:	015b      	lsls	r3, r3, #5
10008b2a:	4654      	mov	r4, sl
10008b2c:	421f      	tst	r7, r3
10008b2e:	d0b9      	beq.n	10008aa4 <dcd_rp2040_irq+0x50>
10008b30:	431c      	orrs	r4, r3
10008b32:	2300      	movs	r3, #0
10008b34:	4a37      	ldr	r2, [pc, #220]	; (10008c14 <dcd_rp2040_irq+0x1c0>)
10008b36:	2100      	movs	r1, #0
10008b38:	6013      	str	r3, [r2, #0]
10008b3a:	4a38      	ldr	r2, [pc, #224]	; (10008c1c <dcd_rp2040_irq+0x1c8>)
10008b3c:	483a      	ldr	r0, [pc, #232]	; (10008c28 <dcd_rp2040_irq+0x1d4>)
10008b3e:	6093      	str	r3, [r2, #8]
10008b40:	60d3      	str	r3, [r2, #12]
10008b42:	4a3a      	ldr	r2, [pc, #232]	; (10008c2c <dcd_rp2040_irq+0x1d8>)
10008b44:	6093      	str	r3, [r2, #8]
10008b46:	60d3      	str	r3, [r2, #12]
10008b48:	4a39      	ldr	r2, [pc, #228]	; (10008c30 <dcd_rp2040_irq+0x1dc>)
10008b4a:	6093      	str	r3, [r2, #8]
10008b4c:	60d3      	str	r3, [r2, #12]
10008b4e:	4a39      	ldr	r2, [pc, #228]	; (10008c34 <dcd_rp2040_irq+0x1e0>)
10008b50:	6093      	str	r3, [r2, #8]
10008b52:	60d3      	str	r3, [r2, #12]
10008b54:	4a38      	ldr	r2, [pc, #224]	; (10008c38 <dcd_rp2040_irq+0x1e4>)
10008b56:	6093      	str	r3, [r2, #8]
10008b58:	60d3      	str	r3, [r2, #12]
10008b5a:	4a38      	ldr	r2, [pc, #224]	; (10008c3c <dcd_rp2040_irq+0x1e8>)
10008b5c:	6093      	str	r3, [r2, #8]
10008b5e:	60d3      	str	r3, [r2, #12]
10008b60:	4a37      	ldr	r2, [pc, #220]	; (10008c40 <dcd_rp2040_irq+0x1ec>)
10008b62:	6093      	str	r3, [r2, #8]
10008b64:	60d3      	str	r3, [r2, #12]
10008b66:	4a37      	ldr	r2, [pc, #220]	; (10008c44 <dcd_rp2040_irq+0x1f0>)
10008b68:	6093      	str	r3, [r2, #8]
10008b6a:	60d3      	str	r3, [r2, #12]
10008b6c:	4a36      	ldr	r2, [pc, #216]	; (10008c48 <dcd_rp2040_irq+0x1f4>)
10008b6e:	6093      	str	r3, [r2, #8]
10008b70:	60d3      	str	r3, [r2, #12]
10008b72:	4a36      	ldr	r2, [pc, #216]	; (10008c4c <dcd_rp2040_irq+0x1f8>)
10008b74:	6093      	str	r3, [r2, #8]
10008b76:	60d3      	str	r3, [r2, #12]
10008b78:	4a35      	ldr	r2, [pc, #212]	; (10008c50 <dcd_rp2040_irq+0x1fc>)
10008b7a:	6093      	str	r3, [r2, #8]
10008b7c:	60d3      	str	r3, [r2, #12]
10008b7e:	4a35      	ldr	r2, [pc, #212]	; (10008c54 <dcd_rp2040_irq+0x200>)
10008b80:	6093      	str	r3, [r2, #8]
10008b82:	60d3      	str	r3, [r2, #12]
10008b84:	4a34      	ldr	r2, [pc, #208]	; (10008c58 <dcd_rp2040_irq+0x204>)
10008b86:	6093      	str	r3, [r2, #8]
10008b88:	60d3      	str	r3, [r2, #12]
10008b8a:	4a34      	ldr	r2, [pc, #208]	; (10008c5c <dcd_rp2040_irq+0x208>)
10008b8c:	6093      	str	r3, [r2, #8]
10008b8e:	60d3      	str	r3, [r2, #12]
10008b90:	4a33      	ldr	r2, [pc, #204]	; (10008c60 <dcd_rp2040_irq+0x20c>)
10008b92:	6093      	str	r3, [r2, #8]
10008b94:	60d3      	str	r3, [r2, #12]
10008b96:	22f0      	movs	r2, #240	; 0xf0
10008b98:	0092      	lsls	r2, r2, #2
10008b9a:	f7ff fc0f 	bl	100083bc <__wrap_memset>
10008b9e:	4b31      	ldr	r3, [pc, #196]	; (10008c64 <dcd_rp2040_irq+0x210>)
10008ba0:	4a31      	ldr	r2, [pc, #196]	; (10008c68 <dcd_rp2040_irq+0x214>)
10008ba2:	2100      	movs	r1, #0
10008ba4:	601a      	str	r2, [r3, #0]
10008ba6:	2000      	movs	r0, #0
10008ba8:	2201      	movs	r2, #1
10008baa:	f001 f9b7 	bl	10009f1c <dcd_event_bus_reset>
10008bae:	2280      	movs	r2, #128	; 0x80
10008bb0:	4b1b      	ldr	r3, [pc, #108]	; (10008c20 <dcd_rp2040_irq+0x1cc>)
10008bb2:	0312      	lsls	r2, r2, #12
10008bb4:	651a      	str	r2, [r3, #80]	; 0x50
10008bb6:	2380      	movs	r3, #128	; 0x80
10008bb8:	01db      	lsls	r3, r3, #7
10008bba:	421f      	tst	r7, r3
10008bbc:	d100      	bne.n	10008bc0 <dcd_rp2040_irq+0x16c>
10008bbe:	e776      	b.n	10008aae <dcd_rp2040_irq+0x5a>
10008bc0:	2201      	movs	r2, #1
10008bc2:	2104      	movs	r1, #4
10008bc4:	2000      	movs	r0, #0
10008bc6:	431c      	orrs	r4, r3
10008bc8:	f001 f918 	bl	10009dfc <dcd_event_bus_signal>
10008bcc:	2210      	movs	r2, #16
10008bce:	4b14      	ldr	r3, [pc, #80]	; (10008c20 <dcd_rp2040_irq+0x1cc>)
10008bd0:	651a      	str	r2, [r3, #80]	; 0x50
10008bd2:	2380      	movs	r3, #128	; 0x80
10008bd4:	021b      	lsls	r3, r3, #8
10008bd6:	421f      	tst	r7, r3
10008bd8:	d100      	bne.n	10008bdc <dcd_rp2040_irq+0x188>
10008bda:	e76d      	b.n	10008ab8 <dcd_rp2040_irq+0x64>
10008bdc:	2201      	movs	r2, #1
10008bde:	2105      	movs	r1, #5
10008be0:	2000      	movs	r0, #0
10008be2:	431c      	orrs	r4, r3
10008be4:	f001 f90a 	bl	10009dfc <dcd_event_bus_signal>
10008be8:	2280      	movs	r2, #128	; 0x80
10008bea:	4b0d      	ldr	r3, [pc, #52]	; (10008c20 <dcd_rp2040_irq+0x1cc>)
10008bec:	0112      	lsls	r2, r2, #4
10008bee:	651a      	str	r2, [r3, #80]	; 0x50
10008bf0:	e762      	b.n	10008ab8 <dcd_rp2040_irq+0x64>
10008bf2:	464b      	mov	r3, r9
10008bf4:	8aaa      	ldrh	r2, [r5, #20]
10008bf6:	78a9      	ldrb	r1, [r5, #2]
10008bf8:	2000      	movs	r0, #0
10008bfa:	9300      	str	r3, [sp, #0]
10008bfc:	2300      	movs	r3, #0
10008bfe:	f001 f9df 	bl	10009fc0 <dcd_event_xfer_complete>
10008c02:	0028      	movs	r0, r5
10008c04:	f000 fa4c 	bl	100090a0 <hw_endpoint_reset_transfer>
10008c08:	e786      	b.n	10008b18 <dcd_rp2040_irq+0xc4>
10008c0a:	0021      	movs	r1, r4
10008c0c:	4817      	ldr	r0, [pc, #92]	; (10008c6c <dcd_rp2040_irq+0x218>)
10008c0e:	4079      	eors	r1, r7
10008c10:	f7fc fe64 	bl	100058dc <panic>
10008c14:	50110000 	.word	0x50110000
10008c18:	2002670c 	.word	0x2002670c
10008c1c:	50100000 	.word	0x50100000
10008c20:	50113000 	.word	0x50113000
10008c24:	00010010 	.word	0x00010010
10008c28:	2002674c 	.word	0x2002674c
10008c2c:	50100008 	.word	0x50100008
10008c30:	50100010 	.word	0x50100010
10008c34:	50100018 	.word	0x50100018
10008c38:	50100020 	.word	0x50100020
10008c3c:	50100028 	.word	0x50100028
10008c40:	50100030 	.word	0x50100030
10008c44:	50100038 	.word	0x50100038
10008c48:	50100040 	.word	0x50100040
10008c4c:	50100048 	.word	0x50100048
10008c50:	50100050 	.word	0x50100050
10008c54:	50100058 	.word	0x50100058
10008c58:	50100060 	.word	0x50100060
10008c5c:	50100068 	.word	0x50100068
10008c60:	50100070 	.word	0x50100070
10008c64:	20026b1c 	.word	0x20026b1c
10008c68:	50100180 	.word	0x50100180
10008c6c:	10012c9c 	.word	0x10012c9c

10008c70 <dcd_int_enable>:
10008c70:	b510      	push	{r4, lr}
10008c72:	2101      	movs	r1, #1
10008c74:	2005      	movs	r0, #5
10008c76:	f7fb fb23 	bl	100042c0 <irq_set_enabled>
10008c7a:	bd10      	pop	{r4, pc}

10008c7c <dcd_set_address>:
10008c7c:	b510      	push	{r4, lr}
10008c7e:	2200      	movs	r2, #0
10008c80:	2100      	movs	r1, #0
10008c82:	4802      	ldr	r0, [pc, #8]	; (10008c8c <dcd_set_address+0x10>)
10008c84:	f000 fa34 	bl	100090f0 <hw_endpoint_xfer_start>
10008c88:	bd10      	pop	{r4, pc}
10008c8a:	46c0      	nop			; (mov r8, r8)
10008c8c:	2002672c 	.word	0x2002672c

10008c90 <dcd_connect>:
10008c90:	2280      	movs	r2, #128	; 0x80
10008c92:	4b02      	ldr	r3, [pc, #8]	; (10008c9c <dcd_connect+0xc>)
10008c94:	0252      	lsls	r2, r2, #9
10008c96:	64da      	str	r2, [r3, #76]	; 0x4c
10008c98:	4770      	bx	lr
10008c9a:	46c0      	nop			; (mov r8, r8)
10008c9c:	50112000 	.word	0x50112000

10008ca0 <dcd_init>:
10008ca0:	b5f0      	push	{r4, r5, r6, r7, lr}
10008ca2:	46c6      	mov	lr, r8
10008ca4:	b500      	push	{lr}
10008ca6:	0006      	movs	r6, r0
10008ca8:	f000 f9d4 	bl	10009054 <rp2040_usb_init>
10008cac:	230c      	movs	r3, #12
10008cae:	4d35      	ldr	r5, [pc, #212]	; (10008d84 <dcd_init+0xe4>)
10008cb0:	2005      	movs	r0, #5
10008cb2:	67ab      	str	r3, [r5, #120]	; 0x78
10008cb4:	4934      	ldr	r1, [pc, #208]	; (10008d88 <dcd_init+0xe8>)
10008cb6:	f7fb fb3b 	bl	10004330 <irq_set_exclusive_handler>
10008cba:	2340      	movs	r3, #64	; 0x40
10008cbc:	4698      	mov	r8, r3
10008cbe:	4c33      	ldr	r4, [pc, #204]	; (10008d8c <dcd_init+0xec>)
10008cc0:	2240      	movs	r2, #64	; 0x40
10008cc2:	2100      	movs	r1, #0
10008cc4:	0020      	movs	r0, r4
10008cc6:	f7ff fb79 	bl	100083bc <__wrap_memset>
10008cca:	4643      	mov	r3, r8
10008ccc:	2701      	movs	r7, #1
10008cce:	83a3      	strh	r3, [r4, #28]
10008cd0:	2121      	movs	r1, #33	; 0x21
10008cd2:	2300      	movs	r3, #0
10008cd4:	4a2e      	ldr	r2, [pc, #184]	; (10008d90 <dcd_init+0xf0>)
10008cd6:	7067      	strb	r7, [r4, #1]
10008cd8:	60a2      	str	r2, [r4, #8]
10008cda:	6013      	str	r3, [r2, #0]
10008cdc:	5463      	strb	r3, [r4, r1]
10008cde:	315f      	adds	r1, #95	; 0x5f
10008ce0:	8461      	strh	r1, [r4, #34]	; 0x22
10008ce2:	4641      	mov	r1, r8
10008ce4:	87a1      	strh	r1, [r4, #60]	; 0x3c
10008ce6:	3902      	subs	r1, #2
10008ce8:	5463      	strb	r3, [r4, r1]
10008cea:	4a2a      	ldr	r2, [pc, #168]	; (10008d94 <dcd_init+0xf4>)
10008cec:	492a      	ldr	r1, [pc, #168]	; (10008d98 <dcd_init+0xf8>)
10008cee:	6063      	str	r3, [r4, #4]
10008cf0:	60e2      	str	r2, [r4, #12]
10008cf2:	62a1      	str	r1, [r4, #40]	; 0x28
10008cf4:	600b      	str	r3, [r1, #0]
10008cf6:	62e2      	str	r2, [r4, #44]	; 0x2c
10008cf8:	4a28      	ldr	r2, [pc, #160]	; (10008d9c <dcd_init+0xfc>)
10008cfa:	6263      	str	r3, [r4, #36]	; 0x24
10008cfc:	6093      	str	r3, [r2, #8]
10008cfe:	60d3      	str	r3, [r2, #12]
10008d00:	4a27      	ldr	r2, [pc, #156]	; (10008da0 <dcd_init+0x100>)
10008d02:	0020      	movs	r0, r4
10008d04:	6093      	str	r3, [r2, #8]
10008d06:	60d3      	str	r3, [r2, #12]
10008d08:	4a26      	ldr	r2, [pc, #152]	; (10008da4 <dcd_init+0x104>)
10008d0a:	2100      	movs	r1, #0
10008d0c:	6093      	str	r3, [r2, #8]
10008d0e:	60d3      	str	r3, [r2, #12]
10008d10:	4a25      	ldr	r2, [pc, #148]	; (10008da8 <dcd_init+0x108>)
10008d12:	3040      	adds	r0, #64	; 0x40
10008d14:	6093      	str	r3, [r2, #8]
10008d16:	60d3      	str	r3, [r2, #12]
10008d18:	4a24      	ldr	r2, [pc, #144]	; (10008dac <dcd_init+0x10c>)
10008d1a:	6093      	str	r3, [r2, #8]
10008d1c:	60d3      	str	r3, [r2, #12]
10008d1e:	4a24      	ldr	r2, [pc, #144]	; (10008db0 <dcd_init+0x110>)
10008d20:	6093      	str	r3, [r2, #8]
10008d22:	60d3      	str	r3, [r2, #12]
10008d24:	4a23      	ldr	r2, [pc, #140]	; (10008db4 <dcd_init+0x114>)
10008d26:	6093      	str	r3, [r2, #8]
10008d28:	60d3      	str	r3, [r2, #12]
10008d2a:	4a23      	ldr	r2, [pc, #140]	; (10008db8 <dcd_init+0x118>)
10008d2c:	6093      	str	r3, [r2, #8]
10008d2e:	60d3      	str	r3, [r2, #12]
10008d30:	4a22      	ldr	r2, [pc, #136]	; (10008dbc <dcd_init+0x11c>)
10008d32:	6093      	str	r3, [r2, #8]
10008d34:	60d3      	str	r3, [r2, #12]
10008d36:	4a22      	ldr	r2, [pc, #136]	; (10008dc0 <dcd_init+0x120>)
10008d38:	6093      	str	r3, [r2, #8]
10008d3a:	60d3      	str	r3, [r2, #12]
10008d3c:	4a21      	ldr	r2, [pc, #132]	; (10008dc4 <dcd_init+0x124>)
10008d3e:	6093      	str	r3, [r2, #8]
10008d40:	60d3      	str	r3, [r2, #12]
10008d42:	4a21      	ldr	r2, [pc, #132]	; (10008dc8 <dcd_init+0x128>)
10008d44:	6093      	str	r3, [r2, #8]
10008d46:	60d3      	str	r3, [r2, #12]
10008d48:	4a20      	ldr	r2, [pc, #128]	; (10008dcc <dcd_init+0x12c>)
10008d4a:	6093      	str	r3, [r2, #8]
10008d4c:	60d3      	str	r3, [r2, #12]
10008d4e:	4a20      	ldr	r2, [pc, #128]	; (10008dd0 <dcd_init+0x130>)
10008d50:	6093      	str	r3, [r2, #8]
10008d52:	60d3      	str	r3, [r2, #12]
10008d54:	4a1f      	ldr	r2, [pc, #124]	; (10008dd4 <dcd_init+0x134>)
10008d56:	6093      	str	r3, [r2, #8]
10008d58:	60d3      	str	r3, [r2, #12]
10008d5a:	22f0      	movs	r2, #240	; 0xf0
10008d5c:	0092      	lsls	r2, r2, #2
10008d5e:	f7ff fb2d 	bl	100083bc <__wrap_memset>
10008d62:	4b1d      	ldr	r3, [pc, #116]	; (10008dd8 <dcd_init+0x138>)
10008d64:	4a1d      	ldr	r2, [pc, #116]	; (10008ddc <dcd_init+0x13c>)
10008d66:	0030      	movs	r0, r6
10008d68:	601a      	str	r2, [r3, #0]
10008d6a:	2380      	movs	r3, #128	; 0x80
10008d6c:	059b      	lsls	r3, r3, #22
10008d6e:	642f      	str	r7, [r5, #64]	; 0x40
10008d70:	64eb      	str	r3, [r5, #76]	; 0x4c
10008d72:	2390      	movs	r3, #144	; 0x90
10008d74:	4a1a      	ldr	r2, [pc, #104]	; (10008de0 <dcd_init+0x140>)
10008d76:	50ea      	str	r2, [r5, r3]
10008d78:	f7ff ff8a 	bl	10008c90 <dcd_connect>
10008d7c:	bc80      	pop	{r7}
10008d7e:	46b8      	mov	r8, r7
10008d80:	bdf0      	pop	{r4, r5, r6, r7, pc}
10008d82:	46c0      	nop			; (mov r8, r8)
10008d84:	50110000 	.word	0x50110000
10008d88:	10008a55 	.word	0x10008a55
10008d8c:	2002670c 	.word	0x2002670c
10008d90:	50100084 	.word	0x50100084
10008d94:	50100100 	.word	0x50100100
10008d98:	50100080 	.word	0x50100080
10008d9c:	50100000 	.word	0x50100000
10008da0:	50100008 	.word	0x50100008
10008da4:	50100010 	.word	0x50100010
10008da8:	50100018 	.word	0x50100018
10008dac:	50100020 	.word	0x50100020
10008db0:	50100028 	.word	0x50100028
10008db4:	50100030 	.word	0x50100030
10008db8:	50100038 	.word	0x50100038
10008dbc:	50100040 	.word	0x50100040
10008dc0:	50100048 	.word	0x50100048
10008dc4:	50100050 	.word	0x50100050
10008dc8:	50100058 	.word	0x50100058
10008dcc:	50100060 	.word	0x50100060
10008dd0:	50100068 	.word	0x50100068
10008dd4:	50100070 	.word	0x50100070
10008dd8:	20026b1c 	.word	0x20026b1c
10008ddc:	50100180 	.word	0x50100180
10008de0:	0001d010 	.word	0x0001d010

10008de4 <dcd_edpt0_status_complete>:
10008de4:	780b      	ldrb	r3, [r1, #0]
10008de6:	065b      	lsls	r3, r3, #25
10008de8:	d102      	bne.n	10008df0 <dcd_edpt0_status_complete+0xc>
10008dea:	784b      	ldrb	r3, [r1, #1]
10008dec:	2b05      	cmp	r3, #5
10008dee:	d000      	beq.n	10008df2 <dcd_edpt0_status_complete+0xe>
10008df0:	4770      	bx	lr
10008df2:	788a      	ldrb	r2, [r1, #2]
10008df4:	4b01      	ldr	r3, [pc, #4]	; (10008dfc <dcd_edpt0_status_complete+0x18>)
10008df6:	601a      	str	r2, [r3, #0]
10008df8:	e7fa      	b.n	10008df0 <dcd_edpt0_status_complete+0xc>
10008dfa:	46c0      	nop			; (mov r8, r8)
10008dfc:	50110000 	.word	0x50110000

10008e00 <dcd_edpt_open>:
10008e00:	b5f0      	push	{r4, r5, r6, r7, lr}
10008e02:	46ce      	mov	lr, r9
10008e04:	4647      	mov	r7, r8
10008e06:	2307      	movs	r3, #7
10008e08:	b580      	push	{r7, lr}
10008e0a:	7948      	ldrb	r0, [r1, #5]
10008e0c:	788e      	ldrb	r6, [r1, #2]
10008e0e:	790a      	ldrb	r2, [r1, #4]
10008e10:	4003      	ands	r3, r0
10008e12:	78c8      	ldrb	r0, [r1, #3]
10008e14:	217f      	movs	r1, #127	; 0x7f
10008e16:	0780      	lsls	r0, r0, #30
10008e18:	4031      	ands	r1, r6
10008e1a:	021b      	lsls	r3, r3, #8
10008e1c:	09f4      	lsrs	r4, r6, #7
10008e1e:	4313      	orrs	r3, r2
10008e20:	004f      	lsls	r7, r1, #1
10008e22:	0f82      	lsrs	r2, r0, #30
10008e24:	4694      	mov	ip, r2
10008e26:	4691      	mov	r9, r2
10008e28:	4d2a      	ldr	r5, [pc, #168]	; (10008ed4 <dcd_edpt_open+0xd4>)
10008e2a:	193a      	adds	r2, r7, r4
10008e2c:	0152      	lsls	r2, r2, #5
10008e2e:	18aa      	adds	r2, r5, r2
10008e30:	7096      	strb	r6, [r2, #2]
10008e32:	2601      	movs	r6, #1
10008e34:	4066      	eors	r6, r4
10008e36:	7056      	strb	r6, [r2, #1]
10008e38:	4660      	mov	r0, ip
10008e3a:	2600      	movs	r6, #0
10008e3c:	8393      	strh	r3, [r2, #28]
10008e3e:	70d6      	strb	r6, [r2, #3]
10008e40:	7790      	strb	r0, [r2, #30]
10008e42:	00ca      	lsls	r2, r1, #3
10008e44:	2c01      	cmp	r4, #1
10008e46:	d029      	beq.n	10008e9c <dcd_edpt_open+0x9c>
10008e48:	4823      	ldr	r0, [pc, #140]	; (10008ed8 <dcd_edpt_open+0xd8>)
10008e4a:	4684      	mov	ip, r0
10008e4c:	0188      	lsls	r0, r1, #6
10008e4e:	4462      	add	r2, ip
10008e50:	4684      	mov	ip, r0
10008e52:	44ac      	add	ip, r5
10008e54:	4660      	mov	r0, ip
10008e56:	6082      	str	r2, [r0, #8]
10008e58:	6016      	str	r6, [r2, #0]
10008e5a:	2900      	cmp	r1, #0
10008e5c:	d029      	beq.n	10008eb2 <dcd_edpt_open+0xb2>
10008e5e:	4a1f      	ldr	r2, [pc, #124]	; (10008edc <dcd_edpt_open+0xdc>)
10008e60:	00c9      	lsls	r1, r1, #3
10008e62:	4690      	mov	r8, r2
10008e64:	4441      	add	r1, r8
10008e66:	6041      	str	r1, [r0, #4]
10008e68:	223f      	movs	r2, #63	; 0x3f
10008e6a:	333f      	adds	r3, #63	; 0x3f
10008e6c:	4393      	bics	r3, r2
10008e6e:	464a      	mov	r2, r9
10008e70:	2a02      	cmp	r2, #2
10008e72:	d100      	bne.n	10008e76 <dcd_edpt_open+0x76>
10008e74:	005b      	lsls	r3, r3, #1
10008e76:	491a      	ldr	r1, [pc, #104]	; (10008ee0 <dcd_edpt_open+0xe0>)
10008e78:	193f      	adds	r7, r7, r4
10008e7a:	680a      	ldr	r2, [r1, #0]
10008e7c:	017f      	lsls	r7, r7, #5
10008e7e:	18d3      	adds	r3, r2, r3
10008e80:	600b      	str	r3, [r1, #0]
10008e82:	4b18      	ldr	r3, [pc, #96]	; (10008ee4 <dcd_edpt_open+0xe4>)
10008e84:	19ed      	adds	r5, r5, r7
10008e86:	4053      	eors	r3, r2
10008e88:	60ea      	str	r2, [r5, #12]
10008e8a:	464a      	mov	r2, r9
10008e8c:	0690      	lsls	r0, r2, #26
10008e8e:	4318      	orrs	r0, r3
10008e90:	2380      	movs	r3, #128	; 0x80
10008e92:	061b      	lsls	r3, r3, #24
10008e94:	4318      	orrs	r0, r3
10008e96:	686b      	ldr	r3, [r5, #4]
10008e98:	6018      	str	r0, [r3, #0]
10008e9a:	e010      	b.n	10008ebe <dcd_edpt_open+0xbe>
10008e9c:	4812      	ldr	r0, [pc, #72]	; (10008ee8 <dcd_edpt_open+0xe8>)
10008e9e:	4684      	mov	ip, r0
10008ea0:	0188      	lsls	r0, r1, #6
10008ea2:	4462      	add	r2, ip
10008ea4:	4684      	mov	ip, r0
10008ea6:	44ac      	add	ip, r5
10008ea8:	4660      	mov	r0, ip
10008eaa:	6282      	str	r2, [r0, #40]	; 0x28
10008eac:	6016      	str	r6, [r2, #0]
10008eae:	2900      	cmp	r1, #0
10008eb0:	d10a      	bne.n	10008ec8 <dcd_edpt_open+0xc8>
10008eb2:	2300      	movs	r3, #0
10008eb4:	0164      	lsls	r4, r4, #5
10008eb6:	192d      	adds	r5, r5, r4
10008eb8:	606b      	str	r3, [r5, #4]
10008eba:	4b0c      	ldr	r3, [pc, #48]	; (10008eec <dcd_edpt_open+0xec>)
10008ebc:	60eb      	str	r3, [r5, #12]
10008ebe:	2001      	movs	r0, #1
10008ec0:	bcc0      	pop	{r6, r7}
10008ec2:	46b9      	mov	r9, r7
10008ec4:	46b0      	mov	r8, r6
10008ec6:	bdf0      	pop	{r4, r5, r6, r7, pc}
10008ec8:	4a06      	ldr	r2, [pc, #24]	; (10008ee4 <dcd_edpt_open+0xe4>)
10008eca:	00c9      	lsls	r1, r1, #3
10008ecc:	4690      	mov	r8, r2
10008ece:	4441      	add	r1, r8
10008ed0:	6241      	str	r1, [r0, #36]	; 0x24
10008ed2:	e7c9      	b.n	10008e68 <dcd_edpt_open+0x68>
10008ed4:	2002670c 	.word	0x2002670c
10008ed8:	50100084 	.word	0x50100084
10008edc:	50100004 	.word	0x50100004
10008ee0:	20026b1c 	.word	0x20026b1c
10008ee4:	50100000 	.word	0x50100000
10008ee8:	50100080 	.word	0x50100080
10008eec:	50100100 	.word	0x50100100

10008ef0 <dcd_edpt_close_all>:
10008ef0:	2300      	movs	r3, #0
10008ef2:	4a1c      	ldr	r2, [pc, #112]	; (10008f64 <dcd_edpt_close_all+0x74>)
10008ef4:	b510      	push	{r4, lr}
10008ef6:	6093      	str	r3, [r2, #8]
10008ef8:	60d3      	str	r3, [r2, #12]
10008efa:	4a1b      	ldr	r2, [pc, #108]	; (10008f68 <dcd_edpt_close_all+0x78>)
10008efc:	2100      	movs	r1, #0
10008efe:	6093      	str	r3, [r2, #8]
10008f00:	60d3      	str	r3, [r2, #12]
10008f02:	4a1a      	ldr	r2, [pc, #104]	; (10008f6c <dcd_edpt_close_all+0x7c>)
10008f04:	481a      	ldr	r0, [pc, #104]	; (10008f70 <dcd_edpt_close_all+0x80>)
10008f06:	6093      	str	r3, [r2, #8]
10008f08:	60d3      	str	r3, [r2, #12]
10008f0a:	4a1a      	ldr	r2, [pc, #104]	; (10008f74 <dcd_edpt_close_all+0x84>)
10008f0c:	6093      	str	r3, [r2, #8]
10008f0e:	60d3      	str	r3, [r2, #12]
10008f10:	4a19      	ldr	r2, [pc, #100]	; (10008f78 <dcd_edpt_close_all+0x88>)
10008f12:	6093      	str	r3, [r2, #8]
10008f14:	60d3      	str	r3, [r2, #12]
10008f16:	4a19      	ldr	r2, [pc, #100]	; (10008f7c <dcd_edpt_close_all+0x8c>)
10008f18:	6093      	str	r3, [r2, #8]
10008f1a:	60d3      	str	r3, [r2, #12]
10008f1c:	4a18      	ldr	r2, [pc, #96]	; (10008f80 <dcd_edpt_close_all+0x90>)
10008f1e:	6093      	str	r3, [r2, #8]
10008f20:	60d3      	str	r3, [r2, #12]
10008f22:	4a18      	ldr	r2, [pc, #96]	; (10008f84 <dcd_edpt_close_all+0x94>)
10008f24:	6093      	str	r3, [r2, #8]
10008f26:	60d3      	str	r3, [r2, #12]
10008f28:	4a17      	ldr	r2, [pc, #92]	; (10008f88 <dcd_edpt_close_all+0x98>)
10008f2a:	6093      	str	r3, [r2, #8]
10008f2c:	60d3      	str	r3, [r2, #12]
10008f2e:	4a17      	ldr	r2, [pc, #92]	; (10008f8c <dcd_edpt_close_all+0x9c>)
10008f30:	6093      	str	r3, [r2, #8]
10008f32:	60d3      	str	r3, [r2, #12]
10008f34:	4a16      	ldr	r2, [pc, #88]	; (10008f90 <dcd_edpt_close_all+0xa0>)
10008f36:	6093      	str	r3, [r2, #8]
10008f38:	60d3      	str	r3, [r2, #12]
10008f3a:	4a16      	ldr	r2, [pc, #88]	; (10008f94 <dcd_edpt_close_all+0xa4>)
10008f3c:	6093      	str	r3, [r2, #8]
10008f3e:	60d3      	str	r3, [r2, #12]
10008f40:	4a15      	ldr	r2, [pc, #84]	; (10008f98 <dcd_edpt_close_all+0xa8>)
10008f42:	6093      	str	r3, [r2, #8]
10008f44:	60d3      	str	r3, [r2, #12]
10008f46:	4a15      	ldr	r2, [pc, #84]	; (10008f9c <dcd_edpt_close_all+0xac>)
10008f48:	6093      	str	r3, [r2, #8]
10008f4a:	60d3      	str	r3, [r2, #12]
10008f4c:	4a14      	ldr	r2, [pc, #80]	; (10008fa0 <dcd_edpt_close_all+0xb0>)
10008f4e:	6093      	str	r3, [r2, #8]
10008f50:	60d3      	str	r3, [r2, #12]
10008f52:	22f0      	movs	r2, #240	; 0xf0
10008f54:	0092      	lsls	r2, r2, #2
10008f56:	f7ff fa31 	bl	100083bc <__wrap_memset>
10008f5a:	4b12      	ldr	r3, [pc, #72]	; (10008fa4 <dcd_edpt_close_all+0xb4>)
10008f5c:	4a12      	ldr	r2, [pc, #72]	; (10008fa8 <dcd_edpt_close_all+0xb8>)
10008f5e:	601a      	str	r2, [r3, #0]
10008f60:	bd10      	pop	{r4, pc}
10008f62:	46c0      	nop			; (mov r8, r8)
10008f64:	50100000 	.word	0x50100000
10008f68:	50100008 	.word	0x50100008
10008f6c:	50100010 	.word	0x50100010
10008f70:	2002674c 	.word	0x2002674c
10008f74:	50100018 	.word	0x50100018
10008f78:	50100020 	.word	0x50100020
10008f7c:	50100028 	.word	0x50100028
10008f80:	50100030 	.word	0x50100030
10008f84:	50100038 	.word	0x50100038
10008f88:	50100040 	.word	0x50100040
10008f8c:	50100048 	.word	0x50100048
10008f90:	50100050 	.word	0x50100050
10008f94:	50100058 	.word	0x50100058
10008f98:	50100060 	.word	0x50100060
10008f9c:	50100068 	.word	0x50100068
10008fa0:	50100070 	.word	0x50100070
10008fa4:	20026b1c 	.word	0x20026b1c
10008fa8:	50100180 	.word	0x50100180

10008fac <dcd_edpt_xfer>:
10008fac:	b510      	push	{r4, lr}
10008fae:	207f      	movs	r0, #127	; 0x7f
10008fb0:	000c      	movs	r4, r1
10008fb2:	4020      	ands	r0, r4
10008fb4:	0040      	lsls	r0, r0, #1
10008fb6:	09e4      	lsrs	r4, r4, #7
10008fb8:	0011      	movs	r1, r2
10008fba:	1900      	adds	r0, r0, r4
10008fbc:	001a      	movs	r2, r3
10008fbe:	4b03      	ldr	r3, [pc, #12]	; (10008fcc <dcd_edpt_xfer+0x20>)
10008fc0:	0140      	lsls	r0, r0, #5
10008fc2:	18c0      	adds	r0, r0, r3
10008fc4:	f000 f894 	bl	100090f0 <hw_endpoint_xfer_start>
10008fc8:	2001      	movs	r0, #1
10008fca:	bd10      	pop	{r4, pc}
10008fcc:	2002670c 	.word	0x2002670c

10008fd0 <dcd_edpt_stall>:
10008fd0:	227f      	movs	r2, #127	; 0x7f
10008fd2:	0013      	movs	r3, r2
10008fd4:	b510      	push	{r4, lr}
10008fd6:	400b      	ands	r3, r1
10008fd8:	420a      	tst	r2, r1
10008fda:	d00b      	beq.n	10008ff4 <dcd_edpt_stall+0x24>
10008fdc:	09c9      	lsrs	r1, r1, #7
10008fde:	2280      	movs	r2, #128	; 0x80
10008fe0:	0058      	lsls	r0, r3, #1
10008fe2:	1840      	adds	r0, r0, r1
10008fe4:	4906      	ldr	r1, [pc, #24]	; (10009000 <dcd_edpt_stall+0x30>)
10008fe6:	0140      	lsls	r0, r0, #5
10008fe8:	1840      	adds	r0, r0, r1
10008fea:	0112      	lsls	r2, r2, #4
10008fec:	2100      	movs	r1, #0
10008fee:	f000 f85d 	bl	100090ac <_hw_endpoint_buffer_control_update32>
10008ff2:	bd10      	pop	{r4, pc}
10008ff4:	2202      	movs	r2, #2
10008ff6:	4803      	ldr	r0, [pc, #12]	; (10009004 <dcd_edpt_stall+0x34>)
10008ff8:	09c9      	lsrs	r1, r1, #7
10008ffa:	1a52      	subs	r2, r2, r1
10008ffc:	6682      	str	r2, [r0, #104]	; 0x68
10008ffe:	e7ee      	b.n	10008fde <dcd_edpt_stall+0xe>
10009000:	2002670c 	.word	0x2002670c
10009004:	50112000 	.word	0x50112000

10009008 <dcd_edpt_clear_stall>:
10009008:	227f      	movs	r2, #127	; 0x7f
1000900a:	0010      	movs	r0, r2
1000900c:	b510      	push	{r4, lr}
1000900e:	4008      	ands	r0, r1
10009010:	420a      	tst	r2, r1
10009012:	d100      	bne.n	10009016 <dcd_edpt_clear_stall+0xe>
10009014:	bd10      	pop	{r4, pc}
10009016:	2300      	movs	r3, #0
10009018:	09c9      	lsrs	r1, r1, #7
1000901a:	0040      	lsls	r0, r0, #1
1000901c:	1840      	adds	r0, r0, r1
1000901e:	4904      	ldr	r1, [pc, #16]	; (10009030 <dcd_edpt_clear_stall+0x28>)
10009020:	0140      	lsls	r0, r0, #5
10009022:	1808      	adds	r0, r1, r0
10009024:	2200      	movs	r2, #0
10009026:	4903      	ldr	r1, [pc, #12]	; (10009034 <dcd_edpt_clear_stall+0x2c>)
10009028:	70c3      	strb	r3, [r0, #3]
1000902a:	f000 f83f 	bl	100090ac <_hw_endpoint_buffer_control_update32>
1000902e:	e7f1      	b.n	10009014 <dcd_edpt_clear_stall+0xc>
10009030:	2002670c 	.word	0x2002670c
10009034:	fffff7ff 	.word	0xfffff7ff

10009038 <_hw_endpoint_buffer_control_update32.part.0.isra.0>:
10009038:	217f      	movs	r1, #127	; 0x7f
1000903a:	09c3      	lsrs	r3, r0, #7
1000903c:	4a03      	ldr	r2, [pc, #12]	; (1000904c <_hw_endpoint_buffer_control_update32.part.0.isra.0+0x14>)
1000903e:	009b      	lsls	r3, r3, #2
10009040:	4001      	ands	r1, r0
10009042:	b510      	push	{r4, lr}
10009044:	589a      	ldr	r2, [r3, r2]
10009046:	4802      	ldr	r0, [pc, #8]	; (10009050 <_hw_endpoint_buffer_control_update32.part.0.isra.0+0x18>)
10009048:	f7fc fc48 	bl	100058dc <panic>
1000904c:	20000554 	.word	0x20000554
10009050:	10012cb0 	.word	0x10012cb0

10009054 <rp2040_usb_init>:
10009054:	2280      	movs	r2, #128	; 0x80
10009056:	4b0d      	ldr	r3, [pc, #52]	; (1000908c <rp2040_usb_init+0x38>)
10009058:	0452      	lsls	r2, r2, #17
1000905a:	b510      	push	{r4, lr}
1000905c:	601a      	str	r2, [r3, #0]
1000905e:	4b0c      	ldr	r3, [pc, #48]	; (10009090 <rp2040_usb_init+0x3c>)
10009060:	490c      	ldr	r1, [pc, #48]	; (10009094 <rp2040_usb_init+0x40>)
10009062:	601a      	str	r2, [r3, #0]
10009064:	0010      	movs	r0, r2
10009066:	688b      	ldr	r3, [r1, #8]
10009068:	4398      	bics	r0, r3
1000906a:	d1fb      	bne.n	10009064 <rp2040_usb_init+0x10>
1000906c:	4c0a      	ldr	r4, [pc, #40]	; (10009098 <rp2040_usb_init+0x44>)
1000906e:	229c      	movs	r2, #156	; 0x9c
10009070:	2100      	movs	r1, #0
10009072:	0020      	movs	r0, r4
10009074:	f7ff f9a2 	bl	100083bc <__wrap_memset>
10009078:	2280      	movs	r2, #128	; 0x80
1000907a:	2100      	movs	r1, #0
1000907c:	0152      	lsls	r2, r2, #5
1000907e:	4807      	ldr	r0, [pc, #28]	; (1000909c <rp2040_usb_init+0x48>)
10009080:	f7ff f99c 	bl	100083bc <__wrap_memset>
10009084:	2309      	movs	r3, #9
10009086:	6763      	str	r3, [r4, #116]	; 0x74
10009088:	bd10      	pop	{r4, pc}
1000908a:	46c0      	nop			; (mov r8, r8)
1000908c:	4000e000 	.word	0x4000e000
10009090:	4000f000 	.word	0x4000f000
10009094:	4000c000 	.word	0x4000c000
10009098:	50110000 	.word	0x50110000
1000909c:	50100000 	.word	0x50100000

100090a0 <hw_endpoint_reset_transfer>:
100090a0:	2300      	movs	r3, #0
100090a2:	7403      	strb	r3, [r0, #16]
100090a4:	8243      	strh	r3, [r0, #18]
100090a6:	8283      	strh	r3, [r0, #20]
100090a8:	6183      	str	r3, [r0, #24]
100090aa:	4770      	bx	lr

100090ac <_hw_endpoint_buffer_control_update32>:
100090ac:	b510      	push	{r4, lr}
100090ae:	6883      	ldr	r3, [r0, #8]
100090b0:	2900      	cmp	r1, #0
100090b2:	d001      	beq.n	100090b8 <_hw_endpoint_buffer_control_update32+0xc>
100090b4:	681c      	ldr	r4, [r3, #0]
100090b6:	4021      	ands	r1, r4
100090b8:	2a00      	cmp	r2, #0
100090ba:	d011      	beq.n	100090e0 <_hw_endpoint_buffer_control_update32+0x34>
100090bc:	2480      	movs	r4, #128	; 0x80
100090be:	00e4      	lsls	r4, r4, #3
100090c0:	4311      	orrs	r1, r2
100090c2:	4222      	tst	r2, r4
100090c4:	d00c      	beq.n	100090e0 <_hw_endpoint_buffer_control_update32+0x34>
100090c6:	681a      	ldr	r2, [r3, #0]
100090c8:	4222      	tst	r2, r4
100090ca:	d10b      	bne.n	100090e4 <_hw_endpoint_buffer_control_update32+0x38>
100090cc:	4a07      	ldr	r2, [pc, #28]	; (100090ec <_hw_endpoint_buffer_control_update32+0x40>)
100090ce:	400a      	ands	r2, r1
100090d0:	601a      	str	r2, [r3, #0]
100090d2:	e7ff      	b.n	100090d4 <_hw_endpoint_buffer_control_update32+0x28>
100090d4:	e7ff      	b.n	100090d6 <_hw_endpoint_buffer_control_update32+0x2a>
100090d6:	e7ff      	b.n	100090d8 <_hw_endpoint_buffer_control_update32+0x2c>
100090d8:	e7ff      	b.n	100090da <_hw_endpoint_buffer_control_update32+0x2e>
100090da:	e7ff      	b.n	100090dc <_hw_endpoint_buffer_control_update32+0x30>
100090dc:	e7ff      	b.n	100090de <_hw_endpoint_buffer_control_update32+0x32>
100090de:	6883      	ldr	r3, [r0, #8]
100090e0:	6019      	str	r1, [r3, #0]
100090e2:	bd10      	pop	{r4, pc}
100090e4:	7880      	ldrb	r0, [r0, #2]
100090e6:	f7ff ffa7 	bl	10009038 <_hw_endpoint_buffer_control_update32.part.0.isra.0>
100090ea:	46c0      	nop			; (mov r8, r8)
100090ec:	fffffbff 	.word	0xfffffbff

100090f0 <hw_endpoint_xfer_start>:
100090f0:	b5f0      	push	{r4, r5, r6, r7, lr}
100090f2:	46c6      	mov	lr, r8
100090f4:	2300      	movs	r3, #0
100090f6:	b500      	push	{lr}
100090f8:	8283      	strh	r3, [r0, #20]
100090fa:	3301      	adds	r3, #1
100090fc:	7403      	strb	r3, [r0, #16]
100090fe:	6843      	ldr	r3, [r0, #4]
10009100:	0004      	movs	r4, r0
10009102:	681e      	ldr	r6, [r3, #0]
10009104:	8b83      	ldrh	r3, [r0, #28]
10009106:	6181      	str	r1, [r0, #24]
10009108:	1c1f      	adds	r7, r3, #0
1000910a:	4293      	cmp	r3, r2
1000910c:	d900      	bls.n	10009110 <hw_endpoint_xfer_start+0x20>
1000910e:	1c17      	adds	r7, r2, #0
10009110:	2580      	movs	r5, #128	; 0x80
10009112:	b2bf      	uxth	r7, r7
10009114:	1bd2      	subs	r2, r2, r7
10009116:	b293      	uxth	r3, r2
10009118:	78e2      	ldrb	r2, [r4, #3]
1000911a:	00ed      	lsls	r5, r5, #3
1000911c:	8263      	strh	r3, [r4, #18]
1000911e:	433d      	orrs	r5, r7
10009120:	2a00      	cmp	r2, #0
10009122:	d002      	beq.n	1000912a <hw_endpoint_xfer_start+0x3a>
10009124:	2590      	movs	r5, #144	; 0x90
10009126:	01ad      	lsls	r5, r5, #6
10009128:	433d      	orrs	r5, r7
1000912a:	2001      	movs	r0, #1
1000912c:	4042      	eors	r2, r0
1000912e:	70e2      	strb	r2, [r4, #3]
10009130:	7862      	ldrb	r2, [r4, #1]
10009132:	2a00      	cmp	r2, #0
10009134:	d051      	beq.n	100091da <hw_endpoint_xfer_start+0xea>
10009136:	2b00      	cmp	r3, #0
10009138:	d11d      	bne.n	10009176 <hw_endpoint_xfer_start+0x86>
1000913a:	23a0      	movs	r3, #160	; 0xa0
1000913c:	01db      	lsls	r3, r3, #7
1000913e:	431d      	orrs	r5, r3
10009140:	4b35      	ldr	r3, [pc, #212]	; (10009218 <hw_endpoint_xfer_start+0x128>)
10009142:	6c1b      	ldr	r3, [r3, #64]	; 0x40
10009144:	4b35      	ldr	r3, [pc, #212]	; (1000921c <hw_endpoint_xfer_start+0x12c>)
10009146:	4033      	ands	r3, r6
10009148:	2680      	movs	r6, #128	; 0x80
1000914a:	05b6      	lsls	r6, r6, #22
1000914c:	431e      	orrs	r6, r3
1000914e:	6863      	ldr	r3, [r4, #4]
10009150:	68a2      	ldr	r2, [r4, #8]
10009152:	601e      	str	r6, [r3, #0]
10009154:	6813      	ldr	r3, [r2, #0]
10009156:	055b      	lsls	r3, r3, #21
10009158:	d45a      	bmi.n	10009210 <hw_endpoint_xfer_start+0x120>
1000915a:	4b31      	ldr	r3, [pc, #196]	; (10009220 <hw_endpoint_xfer_start+0x130>)
1000915c:	402b      	ands	r3, r5
1000915e:	6013      	str	r3, [r2, #0]
10009160:	e7ff      	b.n	10009162 <hw_endpoint_xfer_start+0x72>
10009162:	e7ff      	b.n	10009164 <hw_endpoint_xfer_start+0x74>
10009164:	e7ff      	b.n	10009166 <hw_endpoint_xfer_start+0x76>
10009166:	e7ff      	b.n	10009168 <hw_endpoint_xfer_start+0x78>
10009168:	e7ff      	b.n	1000916a <hw_endpoint_xfer_start+0x7a>
1000916a:	e7ff      	b.n	1000916c <hw_endpoint_xfer_start+0x7c>
1000916c:	68a3      	ldr	r3, [r4, #8]
1000916e:	601d      	str	r5, [r3, #0]
10009170:	bc80      	pop	{r7}
10009172:	46b8      	mov	r8, r7
10009174:	bdf0      	pop	{r4, r5, r6, r7, pc}
10009176:	2280      	movs	r2, #128	; 0x80
10009178:	0152      	lsls	r2, r2, #5
1000917a:	4315      	orrs	r5, r2
1000917c:	4a26      	ldr	r2, [pc, #152]	; (10009218 <hw_endpoint_xfer_start+0x128>)
1000917e:	6c12      	ldr	r2, [r2, #64]	; 0x40
10009180:	0792      	lsls	r2, r2, #30
10009182:	d403      	bmi.n	1000918c <hw_endpoint_xfer_start+0x9c>
10009184:	78a2      	ldrb	r2, [r4, #2]
10009186:	09d2      	lsrs	r2, r2, #7
10009188:	2a01      	cmp	r2, #1
1000918a:	d1db      	bne.n	10009144 <hw_endpoint_xfer_start+0x54>
1000918c:	8ba2      	ldrh	r2, [r4, #28]
1000918e:	1c11      	adds	r1, r2, #0
10009190:	429a      	cmp	r2, r3
10009192:	d900      	bls.n	10009196 <hw_endpoint_xfer_start+0xa6>
10009194:	1c19      	adds	r1, r3, #0
10009196:	2780      	movs	r7, #128	; 0x80
10009198:	b28a      	uxth	r2, r1
1000919a:	00ff      	lsls	r7, r7, #3
1000919c:	1a9b      	subs	r3, r3, r2
1000919e:	4690      	mov	r8, r2
100091a0:	4317      	orrs	r7, r2
100091a2:	78e2      	ldrb	r2, [r4, #3]
100091a4:	b29b      	uxth	r3, r3
100091a6:	8263      	strh	r3, [r4, #18]
100091a8:	2a00      	cmp	r2, #0
100091aa:	d003      	beq.n	100091b4 <hw_endpoint_xfer_start+0xc4>
100091ac:	2790      	movs	r7, #144	; 0x90
100091ae:	4641      	mov	r1, r8
100091b0:	01bf      	lsls	r7, r7, #6
100091b2:	430f      	orrs	r7, r1
100091b4:	2101      	movs	r1, #1
100091b6:	404a      	eors	r2, r1
100091b8:	70e2      	strb	r2, [r4, #3]
100091ba:	7862      	ldrb	r2, [r4, #1]
100091bc:	2a00      	cmp	r2, #0
100091be:	d019      	beq.n	100091f4 <hw_endpoint_xfer_start+0x104>
100091c0:	2b00      	cmp	r3, #0
100091c2:	d102      	bne.n	100091ca <hw_endpoint_xfer_start+0xda>
100091c4:	2380      	movs	r3, #128	; 0x80
100091c6:	01db      	lsls	r3, r3, #7
100091c8:	431f      	orrs	r7, r3
100091ca:	4b16      	ldr	r3, [pc, #88]	; (10009224 <hw_endpoint_xfer_start+0x134>)
100091cc:	043f      	lsls	r7, r7, #16
100091ce:	4033      	ands	r3, r6
100091d0:	26a0      	movs	r6, #160	; 0xa0
100091d2:	05f6      	lsls	r6, r6, #23
100091d4:	433d      	orrs	r5, r7
100091d6:	431e      	orrs	r6, r3
100091d8:	e7b9      	b.n	1000914e <hw_endpoint_xfer_start+0x5e>
100091da:	003a      	movs	r2, r7
100091dc:	68e0      	ldr	r0, [r4, #12]
100091de:	f7ff f8f3 	bl	100083c8 <__wrap___aeabi_memcpy>
100091e2:	69a3      	ldr	r3, [r4, #24]
100091e4:	469c      	mov	ip, r3
100091e6:	2380      	movs	r3, #128	; 0x80
100091e8:	4467      	add	r7, ip
100091ea:	021b      	lsls	r3, r3, #8
100091ec:	431d      	orrs	r5, r3
100091ee:	61a7      	str	r7, [r4, #24]
100091f0:	8a63      	ldrh	r3, [r4, #18]
100091f2:	e7a0      	b.n	10009136 <hw_endpoint_xfer_start+0x46>
100091f4:	68e0      	ldr	r0, [r4, #12]
100091f6:	4642      	mov	r2, r8
100091f8:	69a1      	ldr	r1, [r4, #24]
100091fa:	3040      	adds	r0, #64	; 0x40
100091fc:	f7ff f8e4 	bl	100083c8 <__wrap___aeabi_memcpy>
10009200:	69a3      	ldr	r3, [r4, #24]
10009202:	4443      	add	r3, r8
10009204:	61a3      	str	r3, [r4, #24]
10009206:	2380      	movs	r3, #128	; 0x80
10009208:	021b      	lsls	r3, r3, #8
1000920a:	431f      	orrs	r7, r3
1000920c:	8a63      	ldrh	r3, [r4, #18]
1000920e:	e7d7      	b.n	100091c0 <hw_endpoint_xfer_start+0xd0>
10009210:	78a0      	ldrb	r0, [r4, #2]
10009212:	f7ff ff11 	bl	10009038 <_hw_endpoint_buffer_control_update32.part.0.isra.0>
10009216:	46c0      	nop			; (mov r8, r8)
10009218:	50110000 	.word	0x50110000
1000921c:	afffffff 	.word	0xafffffff
10009220:	fffffbff 	.word	0xfffffbff
10009224:	dfffffff 	.word	0xdfffffff

10009228 <hw_endpoint_xfer_continue>:
10009228:	b5f0      	push	{r4, r5, r6, r7, lr}
1000922a:	46c6      	mov	lr, r8
1000922c:	b500      	push	{lr}
1000922e:	7c06      	ldrb	r6, [r0, #16]
10009230:	0004      	movs	r4, r0
10009232:	2e00      	cmp	r6, #0
10009234:	d100      	bne.n	10009238 <hw_endpoint_xfer_continue+0x10>
10009236:	e0d3      	b.n	100093e0 <hw_endpoint_xfer_continue+0x1b8>
10009238:	6883      	ldr	r3, [r0, #8]
1000923a:	681a      	ldr	r2, [r3, #0]
1000923c:	681d      	ldr	r5, [r3, #0]
1000923e:	7843      	ldrb	r3, [r0, #1]
10009240:	05ad      	lsls	r5, r5, #22
10009242:	0dad      	lsrs	r5, r5, #22
10009244:	2b00      	cmp	r3, #0
10009246:	d151      	bne.n	100092ec <hw_endpoint_xfer_continue+0xc4>
10009248:	8a83      	ldrh	r3, [r0, #20]
1000924a:	18eb      	adds	r3, r5, r3
1000924c:	b29b      	uxth	r3, r3
1000924e:	8283      	strh	r3, [r0, #20]
10009250:	8ba1      	ldrh	r1, [r4, #28]
10009252:	428d      	cmp	r5, r1
10009254:	d207      	bcs.n	10009266 <hw_endpoint_xfer_continue+0x3e>
10009256:	2300      	movs	r3, #0
10009258:	8263      	strh	r3, [r4, #18]
1000925a:	6863      	ldr	r3, [r4, #4]
1000925c:	681b      	ldr	r3, [r3, #0]
1000925e:	0030      	movs	r0, r6
10009260:	bc80      	pop	{r7}
10009262:	46b8      	mov	r8, r7
10009264:	bdf0      	pop	{r4, r5, r6, r7, pc}
10009266:	6862      	ldr	r2, [r4, #4]
10009268:	6812      	ldr	r2, [r2, #0]
1000926a:	0052      	lsls	r2, r2, #1
1000926c:	d502      	bpl.n	10009274 <hw_endpoint_xfer_continue+0x4c>
1000926e:	428d      	cmp	r5, r1
10009270:	d100      	bne.n	10009274 <hw_endpoint_xfer_continue+0x4c>
10009272:	e075      	b.n	10009360 <hw_endpoint_xfer_continue+0x138>
10009274:	8a63      	ldrh	r3, [r4, #18]
10009276:	2b00      	cmp	r3, #0
10009278:	d0f1      	beq.n	1000925e <hw_endpoint_xfer_continue+0x36>
1000927a:	6862      	ldr	r2, [r4, #4]
1000927c:	1c1f      	adds	r7, r3, #0
1000927e:	6816      	ldr	r6, [r2, #0]
10009280:	428b      	cmp	r3, r1
10009282:	d900      	bls.n	10009286 <hw_endpoint_xfer_continue+0x5e>
10009284:	1c0f      	adds	r7, r1, #0
10009286:	2580      	movs	r5, #128	; 0x80
10009288:	b2bf      	uxth	r7, r7
1000928a:	1bdb      	subs	r3, r3, r7
1000928c:	78e2      	ldrb	r2, [r4, #3]
1000928e:	b29b      	uxth	r3, r3
10009290:	00ed      	lsls	r5, r5, #3
10009292:	8263      	strh	r3, [r4, #18]
10009294:	433d      	orrs	r5, r7
10009296:	2a00      	cmp	r2, #0
10009298:	d002      	beq.n	100092a0 <hw_endpoint_xfer_continue+0x78>
1000929a:	2590      	movs	r5, #144	; 0x90
1000929c:	01ad      	lsls	r5, r5, #6
1000929e:	433d      	orrs	r5, r7
100092a0:	2101      	movs	r1, #1
100092a2:	404a      	eors	r2, r1
100092a4:	70e2      	strb	r2, [r4, #3]
100092a6:	7862      	ldrb	r2, [r4, #1]
100092a8:	2a00      	cmp	r2, #0
100092aa:	d068      	beq.n	1000937e <hw_endpoint_xfer_continue+0x156>
100092ac:	2b00      	cmp	r3, #0
100092ae:	d12a      	bne.n	10009306 <hw_endpoint_xfer_continue+0xde>
100092b0:	23a0      	movs	r3, #160	; 0xa0
100092b2:	01db      	lsls	r3, r3, #7
100092b4:	431d      	orrs	r5, r3
100092b6:	4b4f      	ldr	r3, [pc, #316]	; (100093f4 <hw_endpoint_xfer_continue+0x1cc>)
100092b8:	6c1b      	ldr	r3, [r3, #64]	; 0x40
100092ba:	4b4f      	ldr	r3, [pc, #316]	; (100093f8 <hw_endpoint_xfer_continue+0x1d0>)
100092bc:	4033      	ands	r3, r6
100092be:	2680      	movs	r6, #128	; 0x80
100092c0:	05b6      	lsls	r6, r6, #22
100092c2:	431e      	orrs	r6, r3
100092c4:	6863      	ldr	r3, [r4, #4]
100092c6:	68a2      	ldr	r2, [r4, #8]
100092c8:	601e      	str	r6, [r3, #0]
100092ca:	6813      	ldr	r3, [r2, #0]
100092cc:	055b      	lsls	r3, r3, #21
100092ce:	d500      	bpl.n	100092d2 <hw_endpoint_xfer_continue+0xaa>
100092d0:	e08d      	b.n	100093ee <hw_endpoint_xfer_continue+0x1c6>
100092d2:	4b4a      	ldr	r3, [pc, #296]	; (100093fc <hw_endpoint_xfer_continue+0x1d4>)
100092d4:	402b      	ands	r3, r5
100092d6:	6013      	str	r3, [r2, #0]
100092d8:	e7ff      	b.n	100092da <hw_endpoint_xfer_continue+0xb2>
100092da:	e7ff      	b.n	100092dc <hw_endpoint_xfer_continue+0xb4>
100092dc:	e7ff      	b.n	100092de <hw_endpoint_xfer_continue+0xb6>
100092de:	e7ff      	b.n	100092e0 <hw_endpoint_xfer_continue+0xb8>
100092e0:	e7ff      	b.n	100092e2 <hw_endpoint_xfer_continue+0xba>
100092e2:	e7ff      	b.n	100092e4 <hw_endpoint_xfer_continue+0xbc>
100092e4:	68a3      	ldr	r3, [r4, #8]
100092e6:	2600      	movs	r6, #0
100092e8:	601d      	str	r5, [r3, #0]
100092ea:	e7b8      	b.n	1000925e <hw_endpoint_xfer_continue+0x36>
100092ec:	002a      	movs	r2, r5
100092ee:	68c1      	ldr	r1, [r0, #12]
100092f0:	6980      	ldr	r0, [r0, #24]
100092f2:	f7ff f869 	bl	100083c8 <__wrap___aeabi_memcpy>
100092f6:	8aa3      	ldrh	r3, [r4, #20]
100092f8:	69a2      	ldr	r2, [r4, #24]
100092fa:	18eb      	adds	r3, r5, r3
100092fc:	b29b      	uxth	r3, r3
100092fe:	1952      	adds	r2, r2, r5
10009300:	82a3      	strh	r3, [r4, #20]
10009302:	61a2      	str	r2, [r4, #24]
10009304:	e7a4      	b.n	10009250 <hw_endpoint_xfer_continue+0x28>
10009306:	2280      	movs	r2, #128	; 0x80
10009308:	0152      	lsls	r2, r2, #5
1000930a:	4315      	orrs	r5, r2
1000930c:	4a39      	ldr	r2, [pc, #228]	; (100093f4 <hw_endpoint_xfer_continue+0x1cc>)
1000930e:	6c12      	ldr	r2, [r2, #64]	; 0x40
10009310:	0792      	lsls	r2, r2, #30
10009312:	d403      	bmi.n	1000931c <hw_endpoint_xfer_continue+0xf4>
10009314:	78a2      	ldrb	r2, [r4, #2]
10009316:	09d2      	lsrs	r2, r2, #7
10009318:	2a01      	cmp	r2, #1
1000931a:	d1ce      	bne.n	100092ba <hw_endpoint_xfer_continue+0x92>
1000931c:	8ba2      	ldrh	r2, [r4, #28]
1000931e:	1c11      	adds	r1, r2, #0
10009320:	429a      	cmp	r2, r3
10009322:	d83f      	bhi.n	100093a4 <hw_endpoint_xfer_continue+0x17c>
10009324:	2780      	movs	r7, #128	; 0x80
10009326:	b28a      	uxth	r2, r1
10009328:	00ff      	lsls	r7, r7, #3
1000932a:	1a9b      	subs	r3, r3, r2
1000932c:	4690      	mov	r8, r2
1000932e:	4317      	orrs	r7, r2
10009330:	78e2      	ldrb	r2, [r4, #3]
10009332:	b29b      	uxth	r3, r3
10009334:	8263      	strh	r3, [r4, #18]
10009336:	2a00      	cmp	r2, #0
10009338:	d12f      	bne.n	1000939a <hw_endpoint_xfer_continue+0x172>
1000933a:	2101      	movs	r1, #1
1000933c:	404a      	eors	r2, r1
1000933e:	70e2      	strb	r2, [r4, #3]
10009340:	7862      	ldrb	r2, [r4, #1]
10009342:	2a00      	cmp	r2, #0
10009344:	d03e      	beq.n	100093c4 <hw_endpoint_xfer_continue+0x19c>
10009346:	2b00      	cmp	r3, #0
10009348:	d102      	bne.n	10009350 <hw_endpoint_xfer_continue+0x128>
1000934a:	2380      	movs	r3, #128	; 0x80
1000934c:	01db      	lsls	r3, r3, #7
1000934e:	431f      	orrs	r7, r3
10009350:	4b2b      	ldr	r3, [pc, #172]	; (10009400 <hw_endpoint_xfer_continue+0x1d8>)
10009352:	043f      	lsls	r7, r7, #16
10009354:	4033      	ands	r3, r6
10009356:	26a0      	movs	r6, #160	; 0xa0
10009358:	05f6      	lsls	r6, r6, #23
1000935a:	433d      	orrs	r5, r7
1000935c:	431e      	orrs	r6, r3
1000935e:	e7b1      	b.n	100092c4 <hw_endpoint_xfer_continue+0x9c>
10009360:	68a2      	ldr	r2, [r4, #8]
10009362:	6815      	ldr	r5, [r2, #0]
10009364:	7862      	ldrb	r2, [r4, #1]
10009366:	01ad      	lsls	r5, r5, #6
10009368:	0dad      	lsrs	r5, r5, #22
1000936a:	2a00      	cmp	r2, #0
1000936c:	d11c      	bne.n	100093a8 <hw_endpoint_xfer_continue+0x180>
1000936e:	18eb      	adds	r3, r5, r3
10009370:	82a3      	strh	r3, [r4, #20]
10009372:	428d      	cmp	r5, r1
10009374:	d300      	bcc.n	10009378 <hw_endpoint_xfer_continue+0x150>
10009376:	e77d      	b.n	10009274 <hw_endpoint_xfer_continue+0x4c>
10009378:	2300      	movs	r3, #0
1000937a:	8263      	strh	r3, [r4, #18]
1000937c:	e76f      	b.n	1000925e <hw_endpoint_xfer_continue+0x36>
1000937e:	003a      	movs	r2, r7
10009380:	69a1      	ldr	r1, [r4, #24]
10009382:	68e0      	ldr	r0, [r4, #12]
10009384:	f7ff f820 	bl	100083c8 <__wrap___aeabi_memcpy>
10009388:	69a3      	ldr	r3, [r4, #24]
1000938a:	469c      	mov	ip, r3
1000938c:	2380      	movs	r3, #128	; 0x80
1000938e:	4467      	add	r7, ip
10009390:	021b      	lsls	r3, r3, #8
10009392:	431d      	orrs	r5, r3
10009394:	61a7      	str	r7, [r4, #24]
10009396:	8a63      	ldrh	r3, [r4, #18]
10009398:	e788      	b.n	100092ac <hw_endpoint_xfer_continue+0x84>
1000939a:	2790      	movs	r7, #144	; 0x90
1000939c:	4641      	mov	r1, r8
1000939e:	01bf      	lsls	r7, r7, #6
100093a0:	430f      	orrs	r7, r1
100093a2:	e7ca      	b.n	1000933a <hw_endpoint_xfer_continue+0x112>
100093a4:	1c19      	adds	r1, r3, #0
100093a6:	e7bd      	b.n	10009324 <hw_endpoint_xfer_continue+0xfc>
100093a8:	68e1      	ldr	r1, [r4, #12]
100093aa:	002a      	movs	r2, r5
100093ac:	3140      	adds	r1, #64	; 0x40
100093ae:	69a0      	ldr	r0, [r4, #24]
100093b0:	f7ff f80a 	bl	100083c8 <__wrap___aeabi_memcpy>
100093b4:	8aa3      	ldrh	r3, [r4, #20]
100093b6:	8ba1      	ldrh	r1, [r4, #28]
100093b8:	18eb      	adds	r3, r5, r3
100093ba:	82a3      	strh	r3, [r4, #20]
100093bc:	69a3      	ldr	r3, [r4, #24]
100093be:	195b      	adds	r3, r3, r5
100093c0:	61a3      	str	r3, [r4, #24]
100093c2:	e7d6      	b.n	10009372 <hw_endpoint_xfer_continue+0x14a>
100093c4:	68e0      	ldr	r0, [r4, #12]
100093c6:	4642      	mov	r2, r8
100093c8:	69a1      	ldr	r1, [r4, #24]
100093ca:	3040      	adds	r0, #64	; 0x40
100093cc:	f7fe fffc 	bl	100083c8 <__wrap___aeabi_memcpy>
100093d0:	69a3      	ldr	r3, [r4, #24]
100093d2:	4443      	add	r3, r8
100093d4:	61a3      	str	r3, [r4, #24]
100093d6:	2380      	movs	r3, #128	; 0x80
100093d8:	021b      	lsls	r3, r3, #8
100093da:	431f      	orrs	r7, r3
100093dc:	8a63      	ldrh	r3, [r4, #18]
100093de:	e7b2      	b.n	10009346 <hw_endpoint_xfer_continue+0x11e>
100093e0:	237f      	movs	r3, #127	; 0x7f
100093e2:	7881      	ldrb	r1, [r0, #2]
100093e4:	4a07      	ldr	r2, [pc, #28]	; (10009404 <hw_endpoint_xfer_continue+0x1dc>)
100093e6:	4808      	ldr	r0, [pc, #32]	; (10009408 <hw_endpoint_xfer_continue+0x1e0>)
100093e8:	4019      	ands	r1, r3
100093ea:	f7fc fa77 	bl	100058dc <panic>
100093ee:	78a0      	ldrb	r0, [r4, #2]
100093f0:	f7ff fe22 	bl	10009038 <_hw_endpoint_buffer_control_update32.part.0.isra.0>
100093f4:	50110000 	.word	0x50110000
100093f8:	afffffff 	.word	0xafffffff
100093fc:	fffffbff 	.word	0xfffffbff
10009400:	dfffffff 	.word	0xdfffffff
10009404:	20000554 	.word	0x20000554
10009408:	10012cd0 	.word	0x10012cd0

1000940c <tud_mounted>:
1000940c:	4b02      	ldr	r3, [pc, #8]	; (10009418 <tud_mounted+0xc>)
1000940e:	7858      	ldrb	r0, [r3, #1]
10009410:	1e43      	subs	r3, r0, #1
10009412:	4198      	sbcs	r0, r3
10009414:	b2c0      	uxtb	r0, r0
10009416:	4770      	bx	lr
10009418:	20026400 	.word	0x20026400

1000941c <tud_suspended>:
1000941c:	4b02      	ldr	r3, [pc, #8]	; (10009428 <tud_suspended+0xc>)
1000941e:	7818      	ldrb	r0, [r3, #0]
10009420:	0740      	lsls	r0, r0, #29
10009422:	0fc0      	lsrs	r0, r0, #31
10009424:	4770      	bx	lr
10009426:	46c0      	nop			; (mov r8, r8)
10009428:	20026400 	.word	0x20026400

1000942c <tud_inited>:
1000942c:	4b01      	ldr	r3, [pc, #4]	; (10009434 <tud_inited+0x8>)
1000942e:	7818      	ldrb	r0, [r3, #0]
10009430:	4770      	bx	lr
10009432:	46c0      	nop			; (mov r8, r8)
10009434:	20026b8b 	.word	0x20026b8b

10009438 <tud_init>:
10009438:	b5f8      	push	{r3, r4, r5, r6, r7, lr}
1000943a:	4647      	mov	r7, r8
1000943c:	46ce      	mov	lr, r9
1000943e:	b580      	push	{r7, lr}
10009440:	4f29      	ldr	r7, [pc, #164]	; (100094e8 <tud_init+0xb0>)
10009442:	0005      	movs	r5, r0
10009444:	783b      	ldrb	r3, [r7, #0]
10009446:	2b00      	cmp	r3, #0
10009448:	d004      	beq.n	10009454 <tud_init+0x1c>
1000944a:	2001      	movs	r0, #1
1000944c:	bcc0      	pop	{r6, r7}
1000944e:	46b9      	mov	r9, r7
10009450:	46b0      	mov	r8, r6
10009452:	bdf8      	pop	{r3, r4, r5, r6, r7, pc}
10009454:	2253      	movs	r2, #83	; 0x53
10009456:	2100      	movs	r1, #0
10009458:	4824      	ldr	r0, [pc, #144]	; (100094ec <tud_init+0xb4>)
1000945a:	f7fe ffaf 	bl	100083bc <__wrap_memset>
1000945e:	4c24      	ldr	r4, [pc, #144]	; (100094f0 <tud_init+0xb8>)
10009460:	0020      	movs	r0, r4
10009462:	f7fc f995 	bl	10005790 <mutex_init>
10009466:	4b23      	ldr	r3, [pc, #140]	; (100094f4 <tud_init+0xbc>)
10009468:	601c      	str	r4, [r3, #0]
1000946a:	4c23      	ldr	r4, [pc, #140]	; (100094f8 <tud_init+0xc0>)
1000946c:	0020      	movs	r0, r4
1000946e:	301c      	adds	r0, #28
10009470:	f7fc f9aa 	bl	100057c8 <critical_section_init>
10009474:	0020      	movs	r0, r4
10009476:	f001 fca1 	bl	1000adbc <tu_fifo_clear>
1000947a:	4b20      	ldr	r3, [pc, #128]	; (100094fc <tud_init+0xc4>)
1000947c:	4e20      	ldr	r6, [pc, #128]	; (10009500 <tud_init+0xc8>)
1000947e:	601c      	str	r4, [r3, #0]
10009480:	4b20      	ldr	r3, [pc, #128]	; (10009504 <tud_init+0xcc>)
10009482:	4698      	mov	r8, r3
10009484:	2b00      	cmp	r3, #0
10009486:	d004      	beq.n	10009492 <tud_init+0x5a>
10009488:	0030      	movs	r0, r6
1000948a:	f7ff f95d 	bl	10008748 <usbd_app_driver_get_cb>
1000948e:	4b1e      	ldr	r3, [pc, #120]	; (10009508 <tud_init+0xd0>)
10009490:	6018      	str	r0, [r3, #0]
10009492:	4642      	mov	r2, r8
10009494:	2400      	movs	r4, #0
10009496:	7833      	ldrb	r3, [r6, #0]
10009498:	2a00      	cmp	r2, #0
1000949a:	d01d      	beq.n	100094d8 <tud_init+0xa0>
1000949c:	4a1b      	ldr	r2, [pc, #108]	; (1000950c <tud_init+0xd4>)
1000949e:	4690      	mov	r8, r2
100094a0:	4a19      	ldr	r2, [pc, #100]	; (10009508 <tud_init+0xd0>)
100094a2:	4691      	mov	r9, r2
100094a4:	429c      	cmp	r4, r3
100094a6:	d310      	bcc.n	100094ca <tud_init+0x92>
100094a8:	d11b      	bne.n	100094e2 <tud_init+0xaa>
100094aa:	4643      	mov	r3, r8
100094ac:	4798      	blx	r3
100094ae:	3401      	adds	r4, #1
100094b0:	7833      	ldrb	r3, [r6, #0]
100094b2:	b2e4      	uxtb	r4, r4
100094b4:	42a3      	cmp	r3, r4
100094b6:	d2f5      	bcs.n	100094a4 <tud_init+0x6c>
100094b8:	0028      	movs	r0, r5
100094ba:	f7ff fbf1 	bl	10008ca0 <dcd_init>
100094be:	0028      	movs	r0, r5
100094c0:	f7ff fbd6 	bl	10008c70 <dcd_int_enable>
100094c4:	2301      	movs	r3, #1
100094c6:	703b      	strb	r3, [r7, #0]
100094c8:	e7bf      	b.n	1000944a <tud_init+0x12>
100094ca:	464a      	mov	r2, r9
100094cc:	0063      	lsls	r3, r4, #1
100094ce:	6812      	ldr	r2, [r2, #0]
100094d0:	191b      	adds	r3, r3, r4
100094d2:	00db      	lsls	r3, r3, #3
100094d4:	589b      	ldr	r3, [r3, r2]
100094d6:	e7e9      	b.n	100094ac <tud_init+0x74>
100094d8:	f001 f84a 	bl	1000a570 <cdcd_init>
100094dc:	7833      	ldrb	r3, [r6, #0]
100094de:	2b00      	cmp	r3, #0
100094e0:	d0ea      	beq.n	100094b8 <tud_init+0x80>
100094e2:	2300      	movs	r3, #0
100094e4:	681b      	ldr	r3, [r3, #0]
100094e6:	deff      	udf	#255	; 0xff
100094e8:	20026b8b 	.word	0x20026b8b
100094ec:	20026400 	.word	0x20026400
100094f0:	200263b8 	.word	0x200263b8
100094f4:	20026454 	.word	0x20026454
100094f8:	2000055c 	.word	0x2000055c
100094fc:	20026458 	.word	0x20026458
10009500:	20026b8a 	.word	0x20026b8a
10009504:	10008749 	.word	0x10008749
10009508:	200008c4 	.word	0x200008c4
1000950c:	1000a571 	.word	0x1000a571

10009510 <tud_task>:
10009510:	b5f0      	push	{r4, r5, r6, r7, lr}
10009512:	46de      	mov	lr, fp
10009514:	4657      	mov	r7, sl
10009516:	464e      	mov	r6, r9
10009518:	4645      	mov	r5, r8
1000951a:	b5e0      	push	{r5, r6, r7, lr}
1000951c:	b08b      	sub	sp, #44	; 0x2c
1000951e:	f001 fa09 	bl	1000a934 <tusb_inited>
10009522:	2800      	cmp	r0, #0
10009524:	d100      	bne.n	10009528 <tud_task+0x18>
10009526:	e144      	b.n	100097b2 <tud_task+0x2a2>
10009528:	4bc2      	ldr	r3, [pc, #776]	; (10009834 <tud_task+0x324>)
1000952a:	4ec3      	ldr	r6, [pc, #780]	; (10009838 <tud_task+0x328>)
1000952c:	469b      	mov	fp, r3
1000952e:	ac07      	add	r4, sp, #28
10009530:	6835      	ldr	r5, [r6, #0]
10009532:	69ea      	ldr	r2, [r5, #28]
10009534:	f3ef 8110 	mrs	r1, PRIMASK
10009538:	b672      	cpsid	i
1000953a:	6813      	ldr	r3, [r2, #0]
1000953c:	2b00      	cmp	r3, #0
1000953e:	d0fc      	beq.n	1000953a <tud_task+0x2a>
10009540:	f3bf 8f5f 	dmb	sy
10009544:	6229      	str	r1, [r5, #32]
10009546:	0028      	movs	r0, r5
10009548:	0021      	movs	r1, r4
1000954a:	f001 faab 	bl	1000aaa4 <tu_fifo_read>
1000954e:	69ea      	ldr	r2, [r5, #28]
10009550:	6a2b      	ldr	r3, [r5, #32]
10009552:	f3bf 8f5f 	dmb	sy
10009556:	2100      	movs	r1, #0
10009558:	6011      	str	r1, [r2, #0]
1000955a:	f383 8810 	msr	PRIMASK, r3
1000955e:	2800      	cmp	r0, #0
10009560:	d100      	bne.n	10009564 <tud_task+0x54>
10009562:	e126      	b.n	100097b2 <tud_task+0x2a2>
10009564:	7863      	ldrb	r3, [r4, #1]
10009566:	2b08      	cmp	r3, #8
10009568:	d8e2      	bhi.n	10009530 <tud_task+0x20>
1000956a:	465a      	mov	r2, fp
1000956c:	009b      	lsls	r3, r3, #2
1000956e:	58d3      	ldr	r3, [r2, r3]
10009570:	469f      	mov	pc, r3
10009572:	6863      	ldr	r3, [r4, #4]
10009574:	2b00      	cmp	r3, #0
10009576:	d0db      	beq.n	10009530 <tud_task+0x20>
10009578:	68a0      	ldr	r0, [r4, #8]
1000957a:	4798      	blx	r3
1000957c:	e7d8      	b.n	10009530 <tud_task+0x20>
1000957e:	227f      	movs	r2, #127	; 0x7f
10009580:	7921      	ldrb	r1, [r4, #4]
10009582:	4bae      	ldr	r3, [pc, #696]	; (1000983c <tud_task+0x32c>)
10009584:	400a      	ands	r2, r1
10009586:	0055      	lsls	r5, r2, #1
10009588:	09c8      	lsrs	r0, r1, #7
1000958a:	195b      	adds	r3, r3, r5
1000958c:	181b      	adds	r3, r3, r0
1000958e:	0018      	movs	r0, r3
10009590:	2701      	movs	r7, #1
10009592:	3030      	adds	r0, #48	; 0x30
10009594:	78c5      	ldrb	r5, [r0, #3]
10009596:	43bd      	bics	r5, r7
10009598:	70c5      	strb	r5, [r0, #3]
1000959a:	78c5      	ldrb	r5, [r0, #3]
1000959c:	3703      	adds	r7, #3
1000959e:	43bd      	bics	r5, r7
100095a0:	70c5      	strb	r5, [r0, #3]
100095a2:	2a00      	cmp	r2, #0
100095a4:	d100      	bne.n	100095a8 <tud_task+0x98>
100095a6:	e10b      	b.n	100097c0 <tud_task+0x2b0>
100095a8:	4aa5      	ldr	r2, [pc, #660]	; (10009840 <tud_task+0x330>)
100095aa:	7cdb      	ldrb	r3, [r3, #19]
100095ac:	2a00      	cmp	r2, #0
100095ae:	d006      	beq.n	100095be <tud_task+0xae>
100095b0:	4aa4      	ldr	r2, [pc, #656]	; (10009844 <tud_task+0x334>)
100095b2:	7812      	ldrb	r2, [r2, #0]
100095b4:	4293      	cmp	r3, r2
100095b6:	d200      	bcs.n	100095ba <tud_task+0xaa>
100095b8:	e191      	b.n	100098de <tud_task+0x3ce>
100095ba:	1a9b      	subs	r3, r3, r2
100095bc:	b2db      	uxtb	r3, r3
100095be:	2b00      	cmp	r3, #0
100095c0:	d000      	beq.n	100095c4 <tud_task+0xb4>
100095c2:	e0f6      	b.n	100097b2 <tud_task+0x2a2>
100095c4:	4da0      	ldr	r5, [pc, #640]	; (10009848 <tud_task+0x338>)
100095c6:	7962      	ldrb	r2, [r4, #5]
100095c8:	7820      	ldrb	r0, [r4, #0]
100095ca:	68a3      	ldr	r3, [r4, #8]
100095cc:	47a8      	blx	r5
100095ce:	e7af      	b.n	10009530 <tud_task+0x20>
100095d0:	2201      	movs	r2, #1
100095d2:	4f9a      	ldr	r7, [pc, #616]	; (1000983c <tud_task+0x32c>)
100095d4:	2101      	movs	r1, #1
100095d6:	783b      	ldrb	r3, [r7, #0]
100095d8:	2004      	movs	r0, #4
100095da:	4313      	orrs	r3, r2
100095dc:	703b      	strb	r3, [r7, #0]
100095de:	2333      	movs	r3, #51	; 0x33
100095e0:	5cfa      	ldrb	r2, [r7, r3]
100095e2:	438a      	bics	r2, r1
100095e4:	54fa      	strb	r2, [r7, r3]
100095e6:	5cfa      	ldrb	r2, [r7, r3]
100095e8:	4382      	bics	r2, r0
100095ea:	54fa      	strb	r2, [r7, r3]
100095ec:	3301      	adds	r3, #1
100095ee:	5cfa      	ldrb	r2, [r7, r3]
100095f0:	438a      	bics	r2, r1
100095f2:	54fa      	strb	r2, [r7, r3]
100095f4:	5cfa      	ldrb	r2, [r7, r3]
100095f6:	4382      	bics	r2, r0
100095f8:	54fa      	strb	r2, [r7, r3]
100095fa:	7823      	ldrb	r3, [r4, #0]
100095fc:	2000      	movs	r0, #0
100095fe:	469a      	mov	sl, r3
10009600:	f000 fe66 	bl	1000a2d0 <usbd_control_set_complete_callback>
10009604:	2260      	movs	r2, #96	; 0x60
10009606:	7923      	ldrb	r3, [r4, #4]
10009608:	401a      	ands	r2, r3
1000960a:	2a60      	cmp	r2, #96	; 0x60
1000960c:	d00d      	beq.n	1000962a <tud_task+0x11a>
1000960e:	2a40      	cmp	r2, #64	; 0x40
10009610:	d100      	bne.n	10009614 <tud_task+0x104>
10009612:	e0f2      	b.n	100097fa <tud_task+0x2ea>
10009614:	06db      	lsls	r3, r3, #27
10009616:	0edb      	lsrs	r3, r3, #27
10009618:	2b01      	cmp	r3, #1
1000961a:	d100      	bne.n	1000961e <tud_task+0x10e>
1000961c:	e16a      	b.n	100098f4 <tud_task+0x3e4>
1000961e:	2b02      	cmp	r3, #2
10009620:	d100      	bne.n	10009624 <tud_task+0x114>
10009622:	e121      	b.n	10009868 <tud_task+0x358>
10009624:	2b00      	cmp	r3, #0
10009626:	d100      	bne.n	1000962a <tud_task+0x11a>
10009628:	e0f6      	b.n	10009818 <tud_task+0x308>
1000962a:	7820      	ldrb	r0, [r4, #0]
1000962c:	2100      	movs	r1, #0
1000962e:	f7ff fccf 	bl	10008fd0 <dcd_edpt_stall>
10009632:	2180      	movs	r1, #128	; 0x80
10009634:	7820      	ldrb	r0, [r4, #0]
10009636:	f7ff fccb 	bl	10008fd0 <dcd_edpt_stall>
1000963a:	e779      	b.n	10009530 <tud_task+0x20>
1000963c:	4b7f      	ldr	r3, [pc, #508]	; (1000983c <tud_task+0x32c>)
1000963e:	781b      	ldrb	r3, [r3, #0]
10009640:	07db      	lsls	r3, r3, #31
10009642:	d400      	bmi.n	10009646 <tud_task+0x136>
10009644:	e774      	b.n	10009530 <tud_task+0x20>
10009646:	4b81      	ldr	r3, [pc, #516]	; (1000984c <tud_task+0x33c>)
10009648:	2b00      	cmp	r3, #0
1000964a:	d100      	bne.n	1000964e <tud_task+0x13e>
1000964c:	e770      	b.n	10009530 <tud_task+0x20>
1000964e:	e000      	b.n	10009652 <tud_task+0x142>
10009650:	bf00      	nop
10009652:	e76d      	b.n	10009530 <tud_task+0x20>
10009654:	4b79      	ldr	r3, [pc, #484]	; (1000983c <tud_task+0x32c>)
10009656:	781a      	ldrb	r2, [r3, #0]
10009658:	07d2      	lsls	r2, r2, #31
1000965a:	d400      	bmi.n	1000965e <tud_task+0x14e>
1000965c:	e768      	b.n	10009530 <tud_task+0x20>
1000965e:	4a7c      	ldr	r2, [pc, #496]	; (10009850 <tud_task+0x340>)
10009660:	2a00      	cmp	r2, #0
10009662:	d100      	bne.n	10009666 <tud_task+0x156>
10009664:	e764      	b.n	10009530 <tud_task+0x20>
10009666:	7818      	ldrb	r0, [r3, #0]
10009668:	0700      	lsls	r0, r0, #28
1000966a:	0fc0      	lsrs	r0, r0, #31
1000966c:	e000      	b.n	10009670 <tud_task+0x160>
1000966e:	bf00      	nop
10009670:	e75e      	b.n	10009530 <tud_task+0x20>
10009672:	4d74      	ldr	r5, [pc, #464]	; (10009844 <tud_task+0x334>)
10009674:	4a72      	ldr	r2, [pc, #456]	; (10009840 <tud_task+0x330>)
10009676:	2700      	movs	r7, #0
10009678:	782b      	ldrb	r3, [r5, #0]
1000967a:	2a00      	cmp	r2, #0
1000967c:	d100      	bne.n	10009680 <tud_task+0x170>
1000967e:	e0b6      	b.n	100097ee <tud_task+0x2de>
10009680:	4a74      	ldr	r2, [pc, #464]	; (10009854 <tud_task+0x344>)
10009682:	4690      	mov	r8, r2
10009684:	429f      	cmp	r7, r3
10009686:	d308      	bcc.n	1000969a <tud_task+0x18a>
10009688:	429f      	cmp	r7, r3
1000968a:	d000      	beq.n	1000968e <tud_task+0x17e>
1000968c:	e0b2      	b.n	100097f4 <tud_task+0x2e4>
1000968e:	3701      	adds	r7, #1
10009690:	b2ff      	uxtb	r7, r7
10009692:	429f      	cmp	r7, r3
10009694:	d900      	bls.n	10009698 <tud_task+0x188>
10009696:	e74b      	b.n	10009530 <tud_task+0x20>
10009698:	d2f6      	bcs.n	10009688 <tud_task+0x178>
1000969a:	4641      	mov	r1, r8
1000969c:	6809      	ldr	r1, [r1, #0]
1000969e:	007a      	lsls	r2, r7, #1
100096a0:	468c      	mov	ip, r1
100096a2:	19d2      	adds	r2, r2, r7
100096a4:	00d2      	lsls	r2, r2, #3
100096a6:	4462      	add	r2, ip
100096a8:	6952      	ldr	r2, [r2, #20]
100096aa:	2a00      	cmp	r2, #0
100096ac:	d0ef      	beq.n	1000968e <tud_task+0x17e>
100096ae:	7820      	ldrb	r0, [r4, #0]
100096b0:	4790      	blx	r2
100096b2:	3701      	adds	r7, #1
100096b4:	782b      	ldrb	r3, [r5, #0]
100096b6:	b2ff      	uxtb	r7, r7
100096b8:	429f      	cmp	r7, r3
100096ba:	d9e3      	bls.n	10009684 <tud_task+0x174>
100096bc:	e738      	b.n	10009530 <tud_task+0x20>
100096be:	7823      	ldrb	r3, [r4, #0]
100096c0:	4d60      	ldr	r5, [pc, #384]	; (10009844 <tud_task+0x334>)
100096c2:	4a5f      	ldr	r2, [pc, #380]	; (10009840 <tud_task+0x330>)
100096c4:	4698      	mov	r8, r3
100096c6:	2700      	movs	r7, #0
100096c8:	782b      	ldrb	r3, [r5, #0]
100096ca:	2a00      	cmp	r2, #0
100096cc:	d100      	bne.n	100096d0 <tud_task+0x1c0>
100096ce:	e086      	b.n	100097de <tud_task+0x2ce>
100096d0:	4a61      	ldr	r2, [pc, #388]	; (10009858 <tud_task+0x348>)
100096d2:	4691      	mov	r9, r2
100096d4:	4a5f      	ldr	r2, [pc, #380]	; (10009854 <tud_task+0x344>)
100096d6:	4692      	mov	sl, r2
100096d8:	002a      	movs	r2, r5
100096da:	4645      	mov	r5, r8
100096dc:	4690      	mov	r8, r2
100096de:	42bb      	cmp	r3, r7
100096e0:	d85e      	bhi.n	100097a0 <tud_task+0x290>
100096e2:	d000      	beq.n	100096e6 <tud_task+0x1d6>
100096e4:	e078      	b.n	100097d8 <tud_task+0x2c8>
100096e6:	464b      	mov	r3, r9
100096e8:	0028      	movs	r0, r5
100096ea:	4798      	blx	r3
100096ec:	4643      	mov	r3, r8
100096ee:	3701      	adds	r7, #1
100096f0:	781b      	ldrb	r3, [r3, #0]
100096f2:	b2ff      	uxtb	r7, r7
100096f4:	42bb      	cmp	r3, r7
100096f6:	d2f2      	bcs.n	100096de <tud_task+0x1ce>
100096f8:	4d50      	ldr	r5, [pc, #320]	; (1000983c <tud_task+0x32c>)
100096fa:	2253      	movs	r2, #83	; 0x53
100096fc:	2100      	movs	r1, #0
100096fe:	0028      	movs	r0, r5
10009700:	f7fe fe5c 	bl	100083bc <__wrap_memset>
10009704:	2210      	movs	r2, #16
10009706:	21ff      	movs	r1, #255	; 0xff
10009708:	1ce8      	adds	r0, r5, #3
1000970a:	f7fe fe57 	bl	100083bc <__wrap_memset>
1000970e:	0028      	movs	r0, r5
10009710:	2220      	movs	r2, #32
10009712:	21ff      	movs	r1, #255	; 0xff
10009714:	3013      	adds	r0, #19
10009716:	f7fe fe51 	bl	100083bc <__wrap_memset>
1000971a:	f000 fdcf 	bl	1000a2bc <usbd_control_reset>
1000971e:	4b4f      	ldr	r3, [pc, #316]	; (1000985c <tud_task+0x34c>)
10009720:	2b00      	cmp	r3, #0
10009722:	d100      	bne.n	10009726 <tud_task+0x216>
10009724:	e704      	b.n	10009530 <tud_task+0x20>
10009726:	e000      	b.n	1000972a <tud_task+0x21a>
10009728:	bf00      	nop
1000972a:	e701      	b.n	10009530 <tud_task+0x20>
1000972c:	7823      	ldrb	r3, [r4, #0]
1000972e:	4d45      	ldr	r5, [pc, #276]	; (10009844 <tud_task+0x334>)
10009730:	4a43      	ldr	r2, [pc, #268]	; (10009840 <tud_task+0x330>)
10009732:	4698      	mov	r8, r3
10009734:	2700      	movs	r7, #0
10009736:	782b      	ldrb	r3, [r5, #0]
10009738:	2a00      	cmp	r2, #0
1000973a:	d047      	beq.n	100097cc <tud_task+0x2bc>
1000973c:	4a46      	ldr	r2, [pc, #280]	; (10009858 <tud_task+0x348>)
1000973e:	4691      	mov	r9, r2
10009740:	4a44      	ldr	r2, [pc, #272]	; (10009854 <tud_task+0x344>)
10009742:	4692      	mov	sl, r2
10009744:	002a      	movs	r2, r5
10009746:	4645      	mov	r5, r8
10009748:	4690      	mov	r8, r2
1000974a:	429f      	cmp	r7, r3
1000974c:	d31f      	bcc.n	1000978e <tud_task+0x27e>
1000974e:	d143      	bne.n	100097d8 <tud_task+0x2c8>
10009750:	464b      	mov	r3, r9
10009752:	0028      	movs	r0, r5
10009754:	4798      	blx	r3
10009756:	4643      	mov	r3, r8
10009758:	3701      	adds	r7, #1
1000975a:	781b      	ldrb	r3, [r3, #0]
1000975c:	b2ff      	uxtb	r7, r7
1000975e:	42bb      	cmp	r3, r7
10009760:	d2f3      	bcs.n	1000974a <tud_task+0x23a>
10009762:	4d36      	ldr	r5, [pc, #216]	; (1000983c <tud_task+0x32c>)
10009764:	2253      	movs	r2, #83	; 0x53
10009766:	2100      	movs	r1, #0
10009768:	0028      	movs	r0, r5
1000976a:	f7fe fe27 	bl	100083bc <__wrap_memset>
1000976e:	2210      	movs	r2, #16
10009770:	21ff      	movs	r1, #255	; 0xff
10009772:	1ce8      	adds	r0, r5, #3
10009774:	f7fe fe22 	bl	100083bc <__wrap_memset>
10009778:	0028      	movs	r0, r5
1000977a:	2220      	movs	r2, #32
1000977c:	21ff      	movs	r1, #255	; 0xff
1000977e:	3013      	adds	r0, #19
10009780:	f7fe fe1c 	bl	100083bc <__wrap_memset>
10009784:	f000 fd9a 	bl	1000a2bc <usbd_control_reset>
10009788:	7923      	ldrb	r3, [r4, #4]
1000978a:	70ab      	strb	r3, [r5, #2]
1000978c:	e6d0      	b.n	10009530 <tud_task+0x20>
1000978e:	4652      	mov	r2, sl
10009790:	6812      	ldr	r2, [r2, #0]
10009792:	007b      	lsls	r3, r7, #1
10009794:	4694      	mov	ip, r2
10009796:	19db      	adds	r3, r3, r7
10009798:	00db      	lsls	r3, r3, #3
1000979a:	4463      	add	r3, ip
1000979c:	685b      	ldr	r3, [r3, #4]
1000979e:	e7d8      	b.n	10009752 <tud_task+0x242>
100097a0:	4652      	mov	r2, sl
100097a2:	6812      	ldr	r2, [r2, #0]
100097a4:	007b      	lsls	r3, r7, #1
100097a6:	4694      	mov	ip, r2
100097a8:	19db      	adds	r3, r3, r7
100097aa:	00db      	lsls	r3, r3, #3
100097ac:	4463      	add	r3, ip
100097ae:	685b      	ldr	r3, [r3, #4]
100097b0:	e79a      	b.n	100096e8 <tud_task+0x1d8>
100097b2:	b00b      	add	sp, #44	; 0x2c
100097b4:	bcf0      	pop	{r4, r5, r6, r7}
100097b6:	46bb      	mov	fp, r7
100097b8:	46b2      	mov	sl, r6
100097ba:	46a9      	mov	r9, r5
100097bc:	46a0      	mov	r8, r4
100097be:	bdf0      	pop	{r4, r5, r6, r7, pc}
100097c0:	7962      	ldrb	r2, [r4, #5]
100097c2:	7820      	ldrb	r0, [r4, #0]
100097c4:	68a3      	ldr	r3, [r4, #8]
100097c6:	f000 fd97 	bl	1000a2f8 <usbd_control_xfer_cb>
100097ca:	e6b1      	b.n	10009530 <tud_task+0x20>
100097cc:	4640      	mov	r0, r8
100097ce:	f000 ff0d 	bl	1000a5ec <cdcd_reset>
100097d2:	782b      	ldrb	r3, [r5, #0]
100097d4:	2b00      	cmp	r3, #0
100097d6:	d0c4      	beq.n	10009762 <tud_task+0x252>
100097d8:	2300      	movs	r3, #0
100097da:	685b      	ldr	r3, [r3, #4]
100097dc:	deff      	udf	#255	; 0xff
100097de:	4640      	mov	r0, r8
100097e0:	f000 ff04 	bl	1000a5ec <cdcd_reset>
100097e4:	782b      	ldrb	r3, [r5, #0]
100097e6:	2b00      	cmp	r3, #0
100097e8:	d100      	bne.n	100097ec <tud_task+0x2dc>
100097ea:	e785      	b.n	100096f8 <tud_task+0x1e8>
100097ec:	e7f4      	b.n	100097d8 <tud_task+0x2c8>
100097ee:	2b00      	cmp	r3, #0
100097f0:	d100      	bne.n	100097f4 <tud_task+0x2e4>
100097f2:	e69d      	b.n	10009530 <tud_task+0x20>
100097f4:	2300      	movs	r3, #0
100097f6:	695b      	ldr	r3, [r3, #20]
100097f8:	deff      	udf	#255	; 0xff
100097fa:	4819      	ldr	r0, [pc, #100]	; (10009860 <tud_task+0x350>)
100097fc:	2800      	cmp	r0, #0
100097fe:	d100      	bne.n	10009802 <tud_task+0x2f2>
10009800:	e713      	b.n	1000962a <tud_task+0x11a>
10009802:	f000 fd65 	bl	1000a2d0 <usbd_control_set_complete_callback>
10009806:	2100      	movs	r1, #0
10009808:	4650      	mov	r0, sl
1000980a:	aa08      	add	r2, sp, #32
1000980c:	e000      	b.n	10009810 <tud_task+0x300>
1000980e:	bf00      	nop
10009810:	2800      	cmp	r0, #0
10009812:	d000      	beq.n	10009816 <tud_task+0x306>
10009814:	e68c      	b.n	10009530 <tud_task+0x20>
10009816:	e708      	b.n	1000962a <tud_task+0x11a>
10009818:	2a20      	cmp	r2, #32
1000981a:	d100      	bne.n	1000981e <tud_task+0x30e>
1000981c:	e09f      	b.n	1000995e <tud_task+0x44e>
1000981e:	2a00      	cmp	r2, #0
10009820:	d000      	beq.n	10009824 <tud_task+0x314>
10009822:	e702      	b.n	1000962a <tud_task+0x11a>
10009824:	7963      	ldrb	r3, [r4, #5]
10009826:	2b09      	cmp	r3, #9
10009828:	d900      	bls.n	1000982c <tud_task+0x31c>
1000982a:	e6fe      	b.n	1000962a <tud_task+0x11a>
1000982c:	4a0d      	ldr	r2, [pc, #52]	; (10009864 <tud_task+0x354>)
1000982e:	009b      	lsls	r3, r3, #2
10009830:	58d3      	ldr	r3, [r2, r3]
10009832:	469f      	mov	pc, r3
10009834:	10012d04 	.word	0x10012d04
10009838:	20026458 	.word	0x20026458
1000983c:	20026400 	.word	0x20026400
10009840:	10008749 	.word	0x10008749
10009844:	20026b8a 	.word	0x20026b8a
10009848:	1000a7e1 	.word	0x1000a7e1
	...
10009854:	200008c4 	.word	0x200008c4
10009858:	1000a5ed 	.word	0x1000a5ed
	...
10009864:	10012d28 	.word	0x10012d28
10009868:	2370      	movs	r3, #112	; 0x70
1000986a:	7a21      	ldrb	r1, [r4, #8]
1000986c:	420b      	tst	r3, r1
1000986e:	d000      	beq.n	10009872 <tud_task+0x362>
10009870:	e6db      	b.n	1000962a <tud_task+0x11a>
10009872:	330f      	adds	r3, #15
10009874:	400b      	ands	r3, r1
10009876:	005b      	lsls	r3, r3, #1
10009878:	18f8      	adds	r0, r7, r3
1000987a:	09cd      	lsrs	r5, r1, #7
1000987c:	9300      	str	r3, [sp, #0]
1000987e:	4bc1      	ldr	r3, [pc, #772]	; (10009b84 <tud_task+0x674>)
10009880:	1940      	adds	r0, r0, r5
10009882:	7cc0      	ldrb	r0, [r0, #19]
10009884:	2b00      	cmp	r3, #0
10009886:	d006      	beq.n	10009896 <tud_task+0x386>
10009888:	4bbf      	ldr	r3, [pc, #764]	; (10009b88 <tud_task+0x678>)
1000988a:	781b      	ldrb	r3, [r3, #0]
1000988c:	4298      	cmp	r0, r3
1000988e:	d200      	bcs.n	10009892 <tud_task+0x382>
10009890:	e088      	b.n	100099a4 <tud_task+0x494>
10009892:	1ac0      	subs	r0, r0, r3
10009894:	b2c0      	uxtb	r0, r0
10009896:	2800      	cmp	r0, #0
10009898:	d17e      	bne.n	10009998 <tud_task+0x488>
1000989a:	2a00      	cmp	r2, #0
1000989c:	d000      	beq.n	100098a0 <tud_task+0x390>
1000989e:	e115      	b.n	10009acc <tud_task+0x5bc>
100098a0:	4bba      	ldr	r3, [pc, #744]	; (10009b8c <tud_task+0x67c>)
100098a2:	9301      	str	r3, [sp, #4]
100098a4:	7963      	ldrb	r3, [r4, #5]
100098a6:	4698      	mov	r8, r3
100098a8:	2302      	movs	r3, #2
100098aa:	4642      	mov	r2, r8
100098ac:	4699      	mov	r9, r3
100098ae:	439a      	bics	r2, r3
100098b0:	2a01      	cmp	r2, #1
100098b2:	d100      	bne.n	100098b6 <tud_task+0x3a6>
100098b4:	e10e      	b.n	10009ad4 <tud_task+0x5c4>
100098b6:	4643      	mov	r3, r8
100098b8:	2b00      	cmp	r3, #0
100098ba:	d000      	beq.n	100098be <tud_task+0x3ae>
100098bc:	e6b5      	b.n	1000962a <tud_task+0x11a>
100098be:	9b00      	ldr	r3, [sp, #0]
100098c0:	aa06      	add	r2, sp, #24
100098c2:	18fb      	adds	r3, r7, r3
100098c4:	195d      	adds	r5, r3, r5
100098c6:	3530      	adds	r5, #48	; 0x30
100098c8:	78eb      	ldrb	r3, [r5, #3]
100098ca:	3202      	adds	r2, #2
100098cc:	079b      	lsls	r3, r3, #30
100098ce:	0fdb      	lsrs	r3, r3, #31
100098d0:	8013      	strh	r3, [r2, #0]
100098d2:	4650      	mov	r0, sl
100098d4:	2302      	movs	r3, #2
100098d6:	a908      	add	r1, sp, #32
100098d8:	f000 fc92 	bl	1000a200 <tud_control_xfer>
100098dc:	e628      	b.n	10009530 <tud_task+0x20>
100098de:	005a      	lsls	r2, r3, #1
100098e0:	18d3      	adds	r3, r2, r3
100098e2:	4aab      	ldr	r2, [pc, #684]	; (10009b90 <tud_task+0x680>)
100098e4:	00db      	lsls	r3, r3, #3
100098e6:	6812      	ldr	r2, [r2, #0]
100098e8:	18d3      	adds	r3, r2, r3
100098ea:	2b00      	cmp	r3, #0
100098ec:	d100      	bne.n	100098f0 <tud_task+0x3e0>
100098ee:	e760      	b.n	100097b2 <tud_task+0x2a2>
100098f0:	691d      	ldr	r5, [r3, #16]
100098f2:	e668      	b.n	100095c6 <tud_task+0xb6>
100098f4:	7a23      	ldrb	r3, [r4, #8]
100098f6:	2b0f      	cmp	r3, #15
100098f8:	d900      	bls.n	100098fc <tud_task+0x3ec>
100098fa:	e696      	b.n	1000962a <tud_task+0x11a>
100098fc:	4aa1      	ldr	r2, [pc, #644]	; (10009b84 <tud_task+0x674>)
100098fe:	18fb      	adds	r3, r7, r3
10009900:	78db      	ldrb	r3, [r3, #3]
10009902:	2a00      	cmp	r2, #0
10009904:	d005      	beq.n	10009912 <tud_task+0x402>
10009906:	4aa0      	ldr	r2, [pc, #640]	; (10009b88 <tud_task+0x678>)
10009908:	7812      	ldrb	r2, [r2, #0]
1000990a:	4293      	cmp	r3, r2
1000990c:	d364      	bcc.n	100099d8 <tud_task+0x4c8>
1000990e:	1a9b      	subs	r3, r3, r2
10009910:	b2db      	uxtb	r3, r3
10009912:	2b00      	cmp	r3, #0
10009914:	d000      	beq.n	10009918 <tud_task+0x408>
10009916:	e688      	b.n	1000962a <tud_task+0x11a>
10009918:	489e      	ldr	r0, [pc, #632]	; (10009b94 <tud_task+0x684>)
1000991a:	4d9c      	ldr	r5, [pc, #624]	; (10009b8c <tud_task+0x67c>)
1000991c:	f000 fcd8 	bl	1000a2d0 <usbd_control_set_complete_callback>
10009920:	2100      	movs	r1, #0
10009922:	4650      	mov	r0, sl
10009924:	68eb      	ldr	r3, [r5, #12]
10009926:	aa08      	add	r2, sp, #32
10009928:	4798      	blx	r3
1000992a:	2800      	cmp	r0, #0
1000992c:	d000      	beq.n	10009930 <tud_task+0x420>
1000992e:	e5ff      	b.n	10009530 <tud_task+0x20>
10009930:	2260      	movs	r2, #96	; 0x60
10009932:	0015      	movs	r5, r2
10009934:	7923      	ldrb	r3, [r4, #4]
10009936:	401d      	ands	r5, r3
10009938:	421a      	tst	r2, r3
1000993a:	d000      	beq.n	1000993e <tud_task+0x42e>
1000993c:	e675      	b.n	1000962a <tud_task+0x11a>
1000993e:	7963      	ldrb	r3, [r4, #5]
10009940:	3b0a      	subs	r3, #10
10009942:	2b01      	cmp	r3, #1
10009944:	d900      	bls.n	10009948 <tud_task+0x438>
10009946:	e670      	b.n	1000962a <tud_task+0x11a>
10009948:	f000 fcc2 	bl	1000a2d0 <usbd_control_set_complete_callback>
1000994c:	7963      	ldrb	r3, [r4, #5]
1000994e:	2b0a      	cmp	r3, #10
10009950:	d100      	bne.n	10009954 <tud_task+0x444>
10009952:	e0ee      	b.n	10009b32 <tud_task+0x622>
10009954:	4650      	mov	r0, sl
10009956:	a908      	add	r1, sp, #32
10009958:	f000 fc3a 	bl	1000a1d0 <tud_control_status>
1000995c:	e5e8      	b.n	10009530 <tud_task+0x20>
1000995e:	7a23      	ldrb	r3, [r4, #8]
10009960:	2b0f      	cmp	r3, #15
10009962:	d900      	bls.n	10009966 <tud_task+0x456>
10009964:	e661      	b.n	1000962a <tud_task+0x11a>
10009966:	4a87      	ldr	r2, [pc, #540]	; (10009b84 <tud_task+0x674>)
10009968:	18fb      	adds	r3, r7, r3
1000996a:	78db      	ldrb	r3, [r3, #3]
1000996c:	2a00      	cmp	r2, #0
1000996e:	d006      	beq.n	1000997e <tud_task+0x46e>
10009970:	4a85      	ldr	r2, [pc, #532]	; (10009b88 <tud_task+0x678>)
10009972:	7812      	ldrb	r2, [r2, #0]
10009974:	4293      	cmp	r3, r2
10009976:	d200      	bcs.n	1000997a <tud_task+0x46a>
10009978:	e0d0      	b.n	10009b1c <tud_task+0x60c>
1000997a:	1a9b      	subs	r3, r3, r2
1000997c:	b2db      	uxtb	r3, r3
1000997e:	2b00      	cmp	r3, #0
10009980:	d000      	beq.n	10009984 <tud_task+0x474>
10009982:	e652      	b.n	1000962a <tud_task+0x11a>
10009984:	4883      	ldr	r0, [pc, #524]	; (10009b94 <tud_task+0x684>)
10009986:	4d81      	ldr	r5, [pc, #516]	; (10009b8c <tud_task+0x67c>)
10009988:	f000 fca2 	bl	1000a2d0 <usbd_control_set_complete_callback>
1000998c:	2100      	movs	r1, #0
1000998e:	4650      	mov	r0, sl
10009990:	68eb      	ldr	r3, [r5, #12]
10009992:	aa08      	add	r2, sp, #32
10009994:	4798      	blx	r3
10009996:	e73b      	b.n	10009810 <tud_task+0x300>
10009998:	2a00      	cmp	r2, #0
1000999a:	d000      	beq.n	1000999e <tud_task+0x48e>
1000999c:	e645      	b.n	1000962a <tud_task+0x11a>
1000999e:	2300      	movs	r3, #0
100099a0:	9301      	str	r3, [sp, #4]
100099a2:	e77f      	b.n	100098a4 <tud_task+0x394>
100099a4:	0043      	lsls	r3, r0, #1
100099a6:	469c      	mov	ip, r3
100099a8:	4b79      	ldr	r3, [pc, #484]	; (10009b90 <tud_task+0x680>)
100099aa:	4460      	add	r0, ip
100099ac:	681b      	ldr	r3, [r3, #0]
100099ae:	00c0      	lsls	r0, r0, #3
100099b0:	469c      	mov	ip, r3
100099b2:	0003      	movs	r3, r0
100099b4:	4463      	add	r3, ip
100099b6:	9301      	str	r3, [sp, #4]
100099b8:	2a00      	cmp	r2, #0
100099ba:	d100      	bne.n	100099be <tud_task+0x4ae>
100099bc:	e772      	b.n	100098a4 <tud_task+0x394>
100099be:	2b00      	cmp	r3, #0
100099c0:	d100      	bne.n	100099c4 <tud_task+0x4b4>
100099c2:	e632      	b.n	1000962a <tud_task+0x11a>
100099c4:	68d8      	ldr	r0, [r3, #12]
100099c6:	f000 fc83 	bl	1000a2d0 <usbd_control_set_complete_callback>
100099ca:	9b01      	ldr	r3, [sp, #4]
100099cc:	2100      	movs	r1, #0
100099ce:	4650      	mov	r0, sl
100099d0:	68db      	ldr	r3, [r3, #12]
100099d2:	aa08      	add	r2, sp, #32
100099d4:	4798      	blx	r3
100099d6:	e71b      	b.n	10009810 <tud_task+0x300>
100099d8:	4a6d      	ldr	r2, [pc, #436]	; (10009b90 <tud_task+0x680>)
100099da:	005d      	lsls	r5, r3, #1
100099dc:	18eb      	adds	r3, r5, r3
100099de:	6815      	ldr	r5, [r2, #0]
100099e0:	00db      	lsls	r3, r3, #3
100099e2:	18ed      	adds	r5, r5, r3
100099e4:	2d00      	cmp	r5, #0
100099e6:	d100      	bne.n	100099ea <tud_task+0x4da>
100099e8:	e61f      	b.n	1000962a <tud_task+0x11a>
100099ea:	68e8      	ldr	r0, [r5, #12]
100099ec:	e796      	b.n	1000991c <tud_task+0x40c>
100099ee:	88e3      	ldrh	r3, [r4, #6]
100099f0:	2b01      	cmp	r3, #1
100099f2:	d000      	beq.n	100099f6 <tud_task+0x4e6>
100099f4:	e619      	b.n	1000962a <tud_task+0x11a>
100099f6:	2208      	movs	r2, #8
100099f8:	783b      	ldrb	r3, [r7, #0]
100099fa:	4650      	mov	r0, sl
100099fc:	4393      	bics	r3, r2
100099fe:	a908      	add	r1, sp, #32
10009a00:	703b      	strb	r3, [r7, #0]
10009a02:	f000 fbe5 	bl	1000a1d0 <tud_control_status>
10009a06:	e593      	b.n	10009530 <tud_task+0x20>
10009a08:	2002      	movs	r0, #2
10009a0a:	7839      	ldrb	r1, [r7, #0]
10009a0c:	ab06      	add	r3, sp, #24
10009a0e:	1c9a      	adds	r2, r3, #2
10009a10:	068b      	lsls	r3, r1, #26
10009a12:	0889      	lsrs	r1, r1, #2
10009a14:	0fdb      	lsrs	r3, r3, #31
10009a16:	4001      	ands	r1, r0
10009a18:	430b      	orrs	r3, r1
10009a1a:	e759      	b.n	100098d0 <tud_task+0x3c0>
10009a1c:	79a3      	ldrb	r3, [r4, #6]
10009a1e:	9301      	str	r3, [sp, #4]
10009a20:	001a      	movs	r2, r3
10009a22:	787b      	ldrb	r3, [r7, #1]
10009a24:	429a      	cmp	r2, r3
10009a26:	d007      	beq.n	10009a38 <tud_task+0x528>
10009a28:	787b      	ldrb	r3, [r7, #1]
10009a2a:	2b00      	cmp	r3, #0
10009a2c:	d000      	beq.n	10009a30 <tud_task+0x520>
10009a2e:	e11e      	b.n	10009c6e <tud_task+0x75e>
10009a30:	9b01      	ldr	r3, [sp, #4]
10009a32:	2b00      	cmp	r3, #0
10009a34:	d000      	beq.n	10009a38 <tud_task+0x528>
10009a36:	e0b3      	b.n	10009ba0 <tud_task+0x690>
10009a38:	9b01      	ldr	r3, [sp, #4]
10009a3a:	4650      	mov	r0, sl
10009a3c:	a908      	add	r1, sp, #32
10009a3e:	707b      	strb	r3, [r7, #1]
10009a40:	f000 fbc6 	bl	1000a1d0 <tud_control_status>
10009a44:	e574      	b.n	10009530 <tud_task+0x20>
10009a46:	787b      	ldrb	r3, [r7, #1]
10009a48:	aa06      	add	r2, sp, #24
10009a4a:	3202      	adds	r2, #2
10009a4c:	7013      	strb	r3, [r2, #0]
10009a4e:	4650      	mov	r0, sl
10009a50:	2301      	movs	r3, #1
10009a52:	a908      	add	r1, sp, #32
10009a54:	f000 fbd4 	bl	1000a200 <tud_control_xfer>
10009a58:	e56a      	b.n	10009530 <tud_task+0x20>
10009a5a:	88e0      	ldrh	r0, [r4, #6]
10009a5c:	0a03      	lsrs	r3, r0, #8
10009a5e:	b2c0      	uxtb	r0, r0
10009a60:	2b0f      	cmp	r3, #15
10009a62:	d900      	bls.n	10009a66 <tud_task+0x556>
10009a64:	e5e1      	b.n	1000962a <tud_task+0x11a>
10009a66:	494c      	ldr	r1, [pc, #304]	; (10009b98 <tud_task+0x688>)
10009a68:	009a      	lsls	r2, r3, #2
10009a6a:	588a      	ldr	r2, [r1, r2]
10009a6c:	4697      	mov	pc, r2
10009a6e:	a808      	add	r0, sp, #32
10009a70:	f000 fc34 	bl	1000a2dc <usbd_control_set_request>
10009a74:	4650      	mov	r0, sl
10009a76:	79a1      	ldrb	r1, [r4, #6]
10009a78:	f7ff f900 	bl	10008c7c <dcd_set_address>
10009a7c:	2202      	movs	r2, #2
10009a7e:	783b      	ldrb	r3, [r7, #0]
10009a80:	4313      	orrs	r3, r2
10009a82:	703b      	strb	r3, [r7, #0]
10009a84:	e554      	b.n	10009530 <tud_task+0x20>
10009a86:	88e3      	ldrh	r3, [r4, #6]
10009a88:	2b01      	cmp	r3, #1
10009a8a:	d000      	beq.n	10009a8e <tud_task+0x57e>
10009a8c:	e5cd      	b.n	1000962a <tud_task+0x11a>
10009a8e:	2208      	movs	r2, #8
10009a90:	783b      	ldrb	r3, [r7, #0]
10009a92:	4650      	mov	r0, sl
10009a94:	4313      	orrs	r3, r2
10009a96:	a908      	add	r1, sp, #32
10009a98:	703b      	strb	r3, [r7, #0]
10009a9a:	f000 fb99 	bl	1000a1d0 <tud_control_status>
10009a9e:	e547      	b.n	10009530 <tud_task+0x20>
10009aa0:	2b02      	cmp	r3, #2
10009aa2:	d100      	bne.n	10009aa6 <tud_task+0x596>
10009aa4:	e194      	b.n	10009dd0 <tud_task+0x8c0>
10009aa6:	4b3d      	ldr	r3, [pc, #244]	; (10009b9c <tud_task+0x68c>)
10009aa8:	2b00      	cmp	r3, #0
10009aaa:	d100      	bne.n	10009aae <tud_task+0x59e>
10009aac:	e5bd      	b.n	1000962a <tud_task+0x11a>
10009aae:	e000      	b.n	10009ab2 <tud_task+0x5a2>
10009ab0:	bf00      	nop
10009ab2:	0002      	movs	r2, r0
10009ab4:	2a00      	cmp	r2, #0
10009ab6:	d100      	bne.n	10009aba <tud_task+0x5aa>
10009ab8:	e5b7      	b.n	1000962a <tud_task+0x11a>
10009aba:	78d3      	ldrb	r3, [r2, #3]
10009abc:	7891      	ldrb	r1, [r2, #2]
10009abe:	021b      	lsls	r3, r3, #8
10009ac0:	430b      	orrs	r3, r1
10009ac2:	4650      	mov	r0, sl
10009ac4:	a908      	add	r1, sp, #32
10009ac6:	f000 fb9b 	bl	1000a200 <tud_control_xfer>
10009aca:	e6a1      	b.n	10009810 <tud_task+0x300>
10009acc:	4b2f      	ldr	r3, [pc, #188]	; (10009b8c <tud_task+0x67c>)
10009ace:	4831      	ldr	r0, [pc, #196]	; (10009b94 <tud_task+0x684>)
10009ad0:	9301      	str	r3, [sp, #4]
10009ad2:	e778      	b.n	100099c6 <tud_task+0x4b6>
10009ad4:	88e2      	ldrh	r2, [r4, #6]
10009ad6:	2a00      	cmp	r2, #0
10009ad8:	d109      	bne.n	10009aee <tud_task+0x5de>
10009ada:	4643      	mov	r3, r8
10009adc:	2b01      	cmp	r3, #1
10009ade:	d03d      	beq.n	10009b5c <tud_task+0x64c>
10009ae0:	9b00      	ldr	r3, [sp, #0]
10009ae2:	18fb      	adds	r3, r7, r3
10009ae4:	195d      	adds	r5, r3, r5
10009ae6:	3530      	adds	r5, #48	; 0x30
10009ae8:	78eb      	ldrb	r3, [r5, #3]
10009aea:	079b      	lsls	r3, r3, #30
10009aec:	d52a      	bpl.n	10009b44 <tud_task+0x634>
10009aee:	9d01      	ldr	r5, [sp, #4]
10009af0:	2d00      	cmp	r5, #0
10009af2:	d100      	bne.n	10009af6 <tud_task+0x5e6>
10009af4:	e51c      	b.n	10009530 <tud_task+0x20>
10009af6:	68eb      	ldr	r3, [r5, #12]
10009af8:	0018      	movs	r0, r3
10009afa:	9300      	str	r3, [sp, #0]
10009afc:	f000 fbe8 	bl	1000a2d0 <usbd_control_set_complete_callback>
10009b00:	68eb      	ldr	r3, [r5, #12]
10009b02:	2100      	movs	r1, #0
10009b04:	aa08      	add	r2, sp, #32
10009b06:	4650      	mov	r0, sl
10009b08:	4798      	blx	r3
10009b0a:	2000      	movs	r0, #0
10009b0c:	f000 fbe0 	bl	1000a2d0 <usbd_control_set_complete_callback>
10009b10:	2334      	movs	r3, #52	; 0x34
10009b12:	5cfb      	ldrb	r3, [r7, r3]
10009b14:	07db      	lsls	r3, r3, #31
10009b16:	d500      	bpl.n	10009b1a <tud_task+0x60a>
10009b18:	e50a      	b.n	10009530 <tud_task+0x20>
10009b1a:	e71b      	b.n	10009954 <tud_task+0x444>
10009b1c:	4a1c      	ldr	r2, [pc, #112]	; (10009b90 <tud_task+0x680>)
10009b1e:	005d      	lsls	r5, r3, #1
10009b20:	18eb      	adds	r3, r5, r3
10009b22:	6815      	ldr	r5, [r2, #0]
10009b24:	00db      	lsls	r3, r3, #3
10009b26:	18ed      	adds	r5, r5, r3
10009b28:	2d00      	cmp	r5, #0
10009b2a:	d100      	bne.n	10009b2e <tud_task+0x61e>
10009b2c:	e57d      	b.n	1000962a <tud_task+0x11a>
10009b2e:	68e8      	ldr	r0, [r5, #12]
10009b30:	e72a      	b.n	10009988 <tud_task+0x478>
10009b32:	ab06      	add	r3, sp, #24
10009b34:	1c9a      	adds	r2, r3, #2
10009b36:	4650      	mov	r0, sl
10009b38:	2301      	movs	r3, #1
10009b3a:	a908      	add	r1, sp, #32
10009b3c:	7015      	strb	r5, [r2, #0]
10009b3e:	f000 fb5f 	bl	1000a200 <tud_control_xfer>
10009b42:	e4f5      	b.n	10009530 <tud_task+0x20>
10009b44:	4650      	mov	r0, sl
10009b46:	f7ff fa43 	bl	10008fd0 <dcd_edpt_stall>
10009b4a:	2202      	movs	r2, #2
10009b4c:	78eb      	ldrb	r3, [r5, #3]
10009b4e:	4313      	orrs	r3, r2
10009b50:	2201      	movs	r2, #1
10009b52:	70eb      	strb	r3, [r5, #3]
10009b54:	78eb      	ldrb	r3, [r5, #3]
10009b56:	4313      	orrs	r3, r2
10009b58:	70eb      	strb	r3, [r5, #3]
10009b5a:	e7c8      	b.n	10009aee <tud_task+0x5de>
10009b5c:	9b00      	ldr	r3, [sp, #0]
10009b5e:	18fb      	adds	r3, r7, r3
10009b60:	195d      	adds	r5, r3, r5
10009b62:	3530      	adds	r5, #48	; 0x30
10009b64:	78eb      	ldrb	r3, [r5, #3]
10009b66:	079b      	lsls	r3, r3, #30
10009b68:	d5c1      	bpl.n	10009aee <tud_task+0x5de>
10009b6a:	4650      	mov	r0, sl
10009b6c:	f7ff fa4c 	bl	10009008 <dcd_edpt_clear_stall>
10009b70:	464a      	mov	r2, r9
10009b72:	78eb      	ldrb	r3, [r5, #3]
10009b74:	4393      	bics	r3, r2
10009b76:	4642      	mov	r2, r8
10009b78:	70eb      	strb	r3, [r5, #3]
10009b7a:	78eb      	ldrb	r3, [r5, #3]
10009b7c:	4393      	bics	r3, r2
10009b7e:	70eb      	strb	r3, [r5, #3]
10009b80:	e7b5      	b.n	10009aee <tud_task+0x5de>
10009b82:	46c0      	nop			; (mov r8, r8)
10009b84:	10008749 	.word	0x10008749
10009b88:	20026b8a 	.word	0x20026b8a
10009b8c:	10012d90 	.word	0x10012d90
10009b90:	200008c4 	.word	0x200008c4
10009b94:	1000a6fd 	.word	0x1000a6fd
10009b98:	10012d50 	.word	0x10012d50
10009b9c:	00000000 	.word	0x00000000
10009ba0:	1e58      	subs	r0, r3, #1
10009ba2:	b2c0      	uxtb	r0, r0
10009ba4:	f7fe ff18 	bl	100089d8 <tud_descriptor_configuration_cb>
10009ba8:	2800      	cmp	r0, #0
10009baa:	d100      	bne.n	10009bae <tud_task+0x69e>
10009bac:	e53d      	b.n	1000962a <tud_task+0x11a>
10009bae:	7843      	ldrb	r3, [r0, #1]
10009bb0:	9304      	str	r3, [sp, #16]
10009bb2:	2b02      	cmp	r3, #2
10009bb4:	d000      	beq.n	10009bb8 <tud_task+0x6a8>
10009bb6:	e538      	b.n	1000962a <tud_task+0x11a>
10009bb8:	2101      	movs	r1, #1
10009bba:	79c3      	ldrb	r3, [r0, #7]
10009bbc:	119a      	asrs	r2, r3, #6
10009bbe:	115b      	asrs	r3, r3, #5
10009bc0:	400a      	ands	r2, r1
10009bc2:	400b      	ands	r3, r1
10009bc4:	0152      	lsls	r2, r2, #5
10009bc6:	011b      	lsls	r3, r3, #4
10009bc8:	4313      	orrs	r3, r2
10009bca:	783a      	ldrb	r2, [r7, #0]
10009bcc:	312f      	adds	r1, #47	; 0x2f
10009bce:	438a      	bics	r2, r1
10009bd0:	4313      	orrs	r3, r2
10009bd2:	703b      	strb	r3, [r7, #0]
10009bd4:	2309      	movs	r3, #9
10009bd6:	4699      	mov	r9, r3
10009bd8:	78c3      	ldrb	r3, [r0, #3]
10009bda:	7882      	ldrb	r2, [r0, #2]
10009bdc:	021b      	lsls	r3, r3, #8
10009bde:	4313      	orrs	r3, r2
10009be0:	18c3      	adds	r3, r0, r3
10009be2:	4481      	add	r9, r0
10009be4:	9303      	str	r3, [sp, #12]
10009be6:	9b03      	ldr	r3, [sp, #12]
10009be8:	454b      	cmp	r3, r9
10009bea:	d800      	bhi.n	10009bee <tud_task+0x6de>
10009bec:	e0e9      	b.n	10009dc2 <tud_task+0x8b2>
10009bee:	464b      	mov	r3, r9
10009bf0:	2201      	movs	r2, #1
10009bf2:	785b      	ldrb	r3, [r3, #1]
10009bf4:	9200      	str	r2, [sp, #0]
10009bf6:	2b0b      	cmp	r3, #11
10009bf8:	d107      	bne.n	10009c0a <tud_task+0x6fa>
10009bfa:	464b      	mov	r3, r9
10009bfc:	78db      	ldrb	r3, [r3, #3]
10009bfe:	9300      	str	r3, [sp, #0]
10009c00:	464b      	mov	r3, r9
10009c02:	781b      	ldrb	r3, [r3, #0]
10009c04:	4499      	add	r9, r3
10009c06:	464b      	mov	r3, r9
10009c08:	785b      	ldrb	r3, [r3, #1]
10009c0a:	2b04      	cmp	r3, #4
10009c0c:	d000      	beq.n	10009c10 <tud_task+0x700>
10009c0e:	e50c      	b.n	1000962a <tud_task+0x11a>
10009c10:	464a      	mov	r2, r9
10009c12:	9b03      	ldr	r3, [sp, #12]
10009c14:	2500      	movs	r5, #0
10009c16:	1a9b      	subs	r3, r3, r2
10009c18:	b29b      	uxth	r3, r3
10009c1a:	9302      	str	r3, [sp, #8]
10009c1c:	4a6e      	ldr	r2, [pc, #440]	; (10009dd8 <tud_task+0x8c8>)
10009c1e:	4b6f      	ldr	r3, [pc, #444]	; (10009ddc <tud_task+0x8cc>)
10009c20:	781b      	ldrb	r3, [r3, #0]
10009c22:	2a00      	cmp	r2, #0
10009c24:	d116      	bne.n	10009c54 <tud_task+0x744>
10009c26:	e062      	b.n	10009cee <tud_task+0x7de>
10009c28:	42ab      	cmp	r3, r5
10009c2a:	d171      	bne.n	10009d10 <tud_task+0x800>
10009c2c:	4a6c      	ldr	r2, [pc, #432]	; (10009de0 <tud_task+0x8d0>)
10009c2e:	4b6d      	ldr	r3, [pc, #436]	; (10009de4 <tud_task+0x8d4>)
10009c30:	4690      	mov	r8, r2
10009c32:	4649      	mov	r1, r9
10009c34:	4650      	mov	r0, sl
10009c36:	9a02      	ldr	r2, [sp, #8]
10009c38:	4798      	blx	r3
10009c3a:	4684      	mov	ip, r0
10009c3c:	2808      	cmp	r0, #8
10009c3e:	d902      	bls.n	10009c46 <tud_task+0x736>
10009c40:	9a02      	ldr	r2, [sp, #8]
10009c42:	4282      	cmp	r2, r0
10009c44:	d269      	bcs.n	10009d1a <tud_task+0x80a>
10009c46:	4b65      	ldr	r3, [pc, #404]	; (10009ddc <tud_task+0x8cc>)
10009c48:	3501      	adds	r5, #1
10009c4a:	781b      	ldrb	r3, [r3, #0]
10009c4c:	b2ed      	uxtb	r5, r5
10009c4e:	42ab      	cmp	r3, r5
10009c50:	d200      	bcs.n	10009c54 <tud_task+0x744>
10009c52:	e4ea      	b.n	1000962a <tud_task+0x11a>
10009c54:	42ab      	cmp	r3, r5
10009c56:	d9e7      	bls.n	10009c28 <tud_task+0x718>
10009c58:	4a63      	ldr	r2, [pc, #396]	; (10009de8 <tud_task+0x8d8>)
10009c5a:	006b      	lsls	r3, r5, #1
10009c5c:	6812      	ldr	r2, [r2, #0]
10009c5e:	195b      	adds	r3, r3, r5
10009c60:	4690      	mov	r8, r2
10009c62:	00db      	lsls	r3, r3, #3
10009c64:	4498      	add	r8, r3
10009c66:	4643      	mov	r3, r8
10009c68:	9205      	str	r2, [sp, #20]
10009c6a:	689b      	ldr	r3, [r3, #8]
10009c6c:	e7e1      	b.n	10009c32 <tud_task+0x722>
10009c6e:	4650      	mov	r0, sl
10009c70:	f7ff f93e 	bl	10008ef0 <dcd_edpt_close_all>
10009c74:	78bb      	ldrb	r3, [r7, #2]
10009c76:	4d59      	ldr	r5, [pc, #356]	; (10009ddc <tud_task+0x8cc>)
10009c78:	4a57      	ldr	r2, [pc, #348]	; (10009dd8 <tud_task+0x8c8>)
10009c7a:	9300      	str	r3, [sp, #0]
10009c7c:	2100      	movs	r1, #0
10009c7e:	782b      	ldrb	r3, [r5, #0]
10009c80:	2a00      	cmp	r2, #0
10009c82:	d02d      	beq.n	10009ce0 <tud_task+0x7d0>
10009c84:	4a58      	ldr	r2, [pc, #352]	; (10009de8 <tud_task+0x8d8>)
10009c86:	4690      	mov	r8, r2
10009c88:	002a      	movs	r2, r5
10009c8a:	000d      	movs	r5, r1
10009c8c:	4691      	mov	r9, r2
10009c8e:	429d      	cmp	r5, r3
10009c90:	d31d      	bcc.n	10009cce <tud_task+0x7be>
10009c92:	d000      	beq.n	10009c96 <tud_task+0x786>
10009c94:	e5a0      	b.n	100097d8 <tud_task+0x2c8>
10009c96:	4b55      	ldr	r3, [pc, #340]	; (10009dec <tud_task+0x8dc>)
10009c98:	4650      	mov	r0, sl
10009c9a:	4798      	blx	r3
10009c9c:	464b      	mov	r3, r9
10009c9e:	3501      	adds	r5, #1
10009ca0:	781b      	ldrb	r3, [r3, #0]
10009ca2:	b2ed      	uxtb	r5, r5
10009ca4:	42ab      	cmp	r3, r5
10009ca6:	d2f2      	bcs.n	10009c8e <tud_task+0x77e>
10009ca8:	2253      	movs	r2, #83	; 0x53
10009caa:	2100      	movs	r1, #0
10009cac:	0038      	movs	r0, r7
10009cae:	f7fe fb85 	bl	100083bc <__wrap_memset>
10009cb2:	2210      	movs	r2, #16
10009cb4:	21ff      	movs	r1, #255	; 0xff
10009cb6:	1cf8      	adds	r0, r7, #3
10009cb8:	f7fe fb80 	bl	100083bc <__wrap_memset>
10009cbc:	0038      	movs	r0, r7
10009cbe:	2220      	movs	r2, #32
10009cc0:	21ff      	movs	r1, #255	; 0xff
10009cc2:	3013      	adds	r0, #19
10009cc4:	f7fe fb7a 	bl	100083bc <__wrap_memset>
10009cc8:	9b00      	ldr	r3, [sp, #0]
10009cca:	70bb      	strb	r3, [r7, #2]
10009ccc:	e6b0      	b.n	10009a30 <tud_task+0x520>
10009cce:	4642      	mov	r2, r8
10009cd0:	6812      	ldr	r2, [r2, #0]
10009cd2:	006b      	lsls	r3, r5, #1
10009cd4:	4694      	mov	ip, r2
10009cd6:	195b      	adds	r3, r3, r5
10009cd8:	00db      	lsls	r3, r3, #3
10009cda:	4463      	add	r3, ip
10009cdc:	685b      	ldr	r3, [r3, #4]
10009cde:	e7db      	b.n	10009c98 <tud_task+0x788>
10009ce0:	4650      	mov	r0, sl
10009ce2:	f000 fc83 	bl	1000a5ec <cdcd_reset>
10009ce6:	782b      	ldrb	r3, [r5, #0]
10009ce8:	2b00      	cmp	r3, #0
10009cea:	d0dd      	beq.n	10009ca8 <tud_task+0x798>
10009cec:	e574      	b.n	100097d8 <tud_task+0x2c8>
10009cee:	9b02      	ldr	r3, [sp, #8]
10009cf0:	4649      	mov	r1, r9
10009cf2:	001a      	movs	r2, r3
10009cf4:	4650      	mov	r0, sl
10009cf6:	4698      	mov	r8, r3
10009cf8:	f000 fc8e 	bl	1000a618 <cdcd_open>
10009cfc:	4684      	mov	ip, r0
10009cfe:	2808      	cmp	r0, #8
10009d00:	d901      	bls.n	10009d06 <tud_task+0x7f6>
10009d02:	4540      	cmp	r0, r8
10009d04:	d907      	bls.n	10009d16 <tud_task+0x806>
10009d06:	4b35      	ldr	r3, [pc, #212]	; (10009ddc <tud_task+0x8cc>)
10009d08:	781b      	ldrb	r3, [r3, #0]
10009d0a:	2b00      	cmp	r3, #0
10009d0c:	d100      	bne.n	10009d10 <tud_task+0x800>
10009d0e:	e48c      	b.n	1000962a <tud_task+0x11a>
10009d10:	2300      	movs	r3, #0
10009d12:	689b      	ldr	r3, [r3, #8]
10009d14:	deff      	udf	#255	; 0xff
10009d16:	4b32      	ldr	r3, [pc, #200]	; (10009de0 <tud_task+0x8d0>)
10009d18:	4698      	mov	r8, r3
10009d1a:	9b00      	ldr	r3, [sp, #0]
10009d1c:	2b01      	cmp	r3, #1
10009d1e:	d048      	beq.n	10009db2 <tud_task+0x8a2>
10009d20:	9b00      	ldr	r3, [sp, #0]
10009d22:	2b00      	cmp	r3, #0
10009d24:	d010      	beq.n	10009d48 <tud_task+0x838>
10009d26:	464b      	mov	r3, r9
10009d28:	7899      	ldrb	r1, [r3, #2]
10009d2a:	2300      	movs	r3, #0
10009d2c:	e005      	b.n	10009d3a <tud_task+0x82a>
10009d2e:	70d5      	strb	r5, [r2, #3]
10009d30:	3301      	adds	r3, #1
10009d32:	9a00      	ldr	r2, [sp, #0]
10009d34:	b2db      	uxtb	r3, r3
10009d36:	4293      	cmp	r3, r2
10009d38:	d206      	bcs.n	10009d48 <tud_task+0x838>
10009d3a:	18ca      	adds	r2, r1, r3
10009d3c:	b2d2      	uxtb	r2, r2
10009d3e:	18ba      	adds	r2, r7, r2
10009d40:	78d0      	ldrb	r0, [r2, #3]
10009d42:	28ff      	cmp	r0, #255	; 0xff
10009d44:	d0f3      	beq.n	10009d2e <tud_task+0x81e>
10009d46:	e470      	b.n	1000962a <tud_task+0x11a>
10009d48:	0038      	movs	r0, r7
10009d4a:	46e0      	mov	r8, ip
10009d4c:	002b      	movs	r3, r5
10009d4e:	4649      	mov	r1, r9
10009d50:	4662      	mov	r2, ip
10009d52:	3013      	adds	r0, #19
10009d54:	f000 fe2e 	bl	1000a9b4 <tu_edpt_bind_driver>
10009d58:	4b20      	ldr	r3, [pc, #128]	; (10009ddc <tud_task+0x8cc>)
10009d5a:	44c1      	add	r9, r8
10009d5c:	781b      	ldrb	r3, [r3, #0]
10009d5e:	42ab      	cmp	r3, r5
10009d60:	d300      	bcc.n	10009d64 <tud_task+0x854>
10009d62:	e740      	b.n	10009be6 <tud_task+0x6d6>
10009d64:	e461      	b.n	1000962a <tud_task+0x11a>
10009d66:	4b22      	ldr	r3, [pc, #136]	; (10009df0 <tud_task+0x8e0>)
10009d68:	2b00      	cmp	r3, #0
10009d6a:	d100      	bne.n	10009d6e <tud_task+0x85e>
10009d6c:	e45d      	b.n	1000962a <tud_task+0x11a>
10009d6e:	e000      	b.n	10009d72 <tud_task+0x862>
10009d70:	bf00      	nop
10009d72:	0002      	movs	r2, r0
10009d74:	e6a1      	b.n	10009aba <tud_task+0x5aa>
10009d76:	f7fe fe2b 	bl	100089d0 <tud_descriptor_device_cb>
10009d7a:	2312      	movs	r3, #18
10009d7c:	0002      	movs	r2, r0
10009d7e:	a908      	add	r1, sp, #32
10009d80:	4650      	mov	r0, sl
10009d82:	f000 fa3d 	bl	1000a200 <tud_control_xfer>
10009d86:	e543      	b.n	10009810 <tud_task+0x300>
10009d88:	4b1a      	ldr	r3, [pc, #104]	; (10009df4 <tud_task+0x8e4>)
10009d8a:	2b00      	cmp	r3, #0
10009d8c:	d100      	bne.n	10009d90 <tud_task+0x880>
10009d8e:	e44c      	b.n	1000962a <tud_task+0x11a>
10009d90:	e000      	b.n	10009d94 <tud_task+0x884>
10009d92:	bf00      	nop
10009d94:	1e02      	subs	r2, r0, #0
10009d96:	d100      	bne.n	10009d9a <tud_task+0x88a>
10009d98:	e447      	b.n	1000962a <tud_task+0x11a>
10009d9a:	4650      	mov	r0, sl
10009d9c:	7813      	ldrb	r3, [r2, #0]
10009d9e:	a908      	add	r1, sp, #32
10009da0:	f000 fa2e 	bl	1000a200 <tud_control_xfer>
10009da4:	e534      	b.n	10009810 <tud_task+0x300>
10009da6:	8921      	ldrh	r1, [r4, #8]
10009da8:	f7fe fe1a 	bl	100089e0 <tud_descriptor_string_cb>
10009dac:	1e02      	subs	r2, r0, #0
10009dae:	d1f4      	bne.n	10009d9a <tud_task+0x88a>
10009db0:	e43b      	b.n	1000962a <tud_task+0x11a>
10009db2:	4642      	mov	r2, r8
10009db4:	4b0b      	ldr	r3, [pc, #44]	; (10009de4 <tud_task+0x8d4>)
10009db6:	6892      	ldr	r2, [r2, #8]
10009db8:	429a      	cmp	r2, r3
10009dba:	d1b4      	bne.n	10009d26 <tud_task+0x816>
10009dbc:	9b04      	ldr	r3, [sp, #16]
10009dbe:	9300      	str	r3, [sp, #0]
10009dc0:	e7b1      	b.n	10009d26 <tud_task+0x816>
10009dc2:	4b0d      	ldr	r3, [pc, #52]	; (10009df8 <tud_task+0x8e8>)
10009dc4:	2b00      	cmp	r3, #0
10009dc6:	d100      	bne.n	10009dca <tud_task+0x8ba>
10009dc8:	e636      	b.n	10009a38 <tud_task+0x528>
10009dca:	e000      	b.n	10009dce <tud_task+0x8be>
10009dcc:	bf00      	nop
10009dce:	e633      	b.n	10009a38 <tud_task+0x528>
10009dd0:	f7fe fe02 	bl	100089d8 <tud_descriptor_configuration_cb>
10009dd4:	0002      	movs	r2, r0
10009dd6:	e66d      	b.n	10009ab4 <tud_task+0x5a4>
10009dd8:	10008749 	.word	0x10008749
10009ddc:	20026b8a 	.word	0x20026b8a
10009de0:	10012d90 	.word	0x10012d90
10009de4:	1000a619 	.word	0x1000a619
10009de8:	200008c4 	.word	0x200008c4
10009dec:	1000a5ed 	.word	0x1000a5ed
	...

10009dfc <dcd_event_bus_signal>:
10009dfc:	b530      	push	{r4, r5, lr}
10009dfe:	b087      	sub	sp, #28
10009e00:	0005      	movs	r5, r0
10009e02:	000c      	movs	r4, r1
10009e04:	220c      	movs	r2, #12
10009e06:	2100      	movs	r1, #0
10009e08:	4668      	mov	r0, sp
10009e0a:	f7fe fad7 	bl	100083bc <__wrap_memset>
10009e0e:	466b      	mov	r3, sp
10009e10:	701d      	strb	r5, [r3, #0]
10009e12:	705c      	strb	r4, [r3, #1]
10009e14:	2c04      	cmp	r4, #4
10009e16:	d04f      	beq.n	10009eb8 <dcd_event_bus_signal+0xbc>
10009e18:	d809      	bhi.n	10009e2e <dcd_event_bus_signal+0x32>
10009e1a:	2c02      	cmp	r4, #2
10009e1c:	d034      	beq.n	10009e88 <dcd_event_bus_signal+0x8c>
10009e1e:	2c03      	cmp	r4, #3
10009e20:	d119      	bne.n	10009e56 <dcd_event_bus_signal+0x5a>
10009e22:	4b3c      	ldr	r3, [pc, #240]	; (10009f14 <dcd_event_bus_signal+0x118>)
10009e24:	781a      	ldrb	r2, [r3, #0]
10009e26:	0752      	lsls	r2, r2, #29
10009e28:	d458      	bmi.n	10009edc <dcd_event_bus_signal+0xe0>
10009e2a:	b007      	add	sp, #28
10009e2c:	bd30      	pop	{r4, r5, pc}
10009e2e:	2c05      	cmp	r4, #5
10009e30:	d111      	bne.n	10009e56 <dcd_event_bus_signal+0x5a>
10009e32:	4b38      	ldr	r3, [pc, #224]	; (10009f14 <dcd_event_bus_signal+0x118>)
10009e34:	781a      	ldrb	r2, [r3, #0]
10009e36:	07d2      	lsls	r2, r2, #31
10009e38:	d5f7      	bpl.n	10009e2a <dcd_event_bus_signal+0x2e>
10009e3a:	2104      	movs	r1, #4
10009e3c:	781a      	ldrb	r2, [r3, #0]
10009e3e:	438a      	bics	r2, r1
10009e40:	701a      	strb	r2, [r3, #0]
10009e42:	4b35      	ldr	r3, [pc, #212]	; (10009f18 <dcd_event_bus_signal+0x11c>)
10009e44:	681c      	ldr	r4, [r3, #0]
10009e46:	69e2      	ldr	r2, [r4, #28]
10009e48:	f3ef 8110 	mrs	r1, PRIMASK
10009e4c:	b672      	cpsid	i
10009e4e:	6813      	ldr	r3, [r2, #0]
10009e50:	2b00      	cmp	r3, #0
10009e52:	d109      	bne.n	10009e68 <dcd_event_bus_signal+0x6c>
10009e54:	e7fb      	b.n	10009e4e <dcd_event_bus_signal+0x52>
10009e56:	4b30      	ldr	r3, [pc, #192]	; (10009f18 <dcd_event_bus_signal+0x11c>)
10009e58:	681c      	ldr	r4, [r3, #0]
10009e5a:	69e2      	ldr	r2, [r4, #28]
10009e5c:	f3ef 8110 	mrs	r1, PRIMASK
10009e60:	b672      	cpsid	i
10009e62:	6813      	ldr	r3, [r2, #0]
10009e64:	2b00      	cmp	r3, #0
10009e66:	d0fc      	beq.n	10009e62 <dcd_event_bus_signal+0x66>
10009e68:	f3bf 8f5f 	dmb	sy
10009e6c:	6221      	str	r1, [r4, #32]
10009e6e:	4669      	mov	r1, sp
10009e70:	0020      	movs	r0, r4
10009e72:	f000 fee5 	bl	1000ac40 <tu_fifo_write>
10009e76:	69e2      	ldr	r2, [r4, #28]
10009e78:	6a23      	ldr	r3, [r4, #32]
10009e7a:	f3bf 8f5f 	dmb	sy
10009e7e:	2100      	movs	r1, #0
10009e80:	6011      	str	r1, [r2, #0]
10009e82:	f383 8810 	msr	PRIMASK, r3
10009e86:	e7d0      	b.n	10009e2a <dcd_event_bus_signal+0x2e>
10009e88:	2101      	movs	r1, #1
10009e8a:	4b22      	ldr	r3, [pc, #136]	; (10009f14 <dcd_event_bus_signal+0x118>)
10009e8c:	781a      	ldrb	r2, [r3, #0]
10009e8e:	438a      	bics	r2, r1
10009e90:	701a      	strb	r2, [r3, #0]
10009e92:	781a      	ldrb	r2, [r3, #0]
10009e94:	3103      	adds	r1, #3
10009e96:	43a2      	bics	r2, r4
10009e98:	701a      	strb	r2, [r3, #0]
10009e9a:	2200      	movs	r2, #0
10009e9c:	705a      	strb	r2, [r3, #1]
10009e9e:	781a      	ldrb	r2, [r3, #0]
10009ea0:	438a      	bics	r2, r1
10009ea2:	701a      	strb	r2, [r3, #0]
10009ea4:	4b1c      	ldr	r3, [pc, #112]	; (10009f18 <dcd_event_bus_signal+0x11c>)
10009ea6:	681c      	ldr	r4, [r3, #0]
10009ea8:	69e2      	ldr	r2, [r4, #28]
10009eaa:	f3ef 8110 	mrs	r1, PRIMASK
10009eae:	b672      	cpsid	i
10009eb0:	6813      	ldr	r3, [r2, #0]
10009eb2:	2b00      	cmp	r3, #0
10009eb4:	d1d8      	bne.n	10009e68 <dcd_event_bus_signal+0x6c>
10009eb6:	e7fb      	b.n	10009eb0 <dcd_event_bus_signal+0xb4>
10009eb8:	4b16      	ldr	r3, [pc, #88]	; (10009f14 <dcd_event_bus_signal+0x118>)
10009eba:	781a      	ldrb	r2, [r3, #0]
10009ebc:	07d2      	lsls	r2, r2, #31
10009ebe:	d5b4      	bpl.n	10009e2a <dcd_event_bus_signal+0x2e>
10009ec0:	2104      	movs	r1, #4
10009ec2:	781a      	ldrb	r2, [r3, #0]
10009ec4:	430a      	orrs	r2, r1
10009ec6:	701a      	strb	r2, [r3, #0]
10009ec8:	4b13      	ldr	r3, [pc, #76]	; (10009f18 <dcd_event_bus_signal+0x11c>)
10009eca:	681c      	ldr	r4, [r3, #0]
10009ecc:	69e2      	ldr	r2, [r4, #28]
10009ece:	f3ef 8110 	mrs	r1, PRIMASK
10009ed2:	b672      	cpsid	i
10009ed4:	6813      	ldr	r3, [r2, #0]
10009ed6:	2b00      	cmp	r3, #0
10009ed8:	d1c6      	bne.n	10009e68 <dcd_event_bus_signal+0x6c>
10009eda:	e7fb      	b.n	10009ed4 <dcd_event_bus_signal+0xd8>
10009edc:	2104      	movs	r1, #4
10009ede:	781a      	ldrb	r2, [r3, #0]
10009ee0:	a803      	add	r0, sp, #12
10009ee2:	438a      	bics	r2, r1
10009ee4:	701a      	strb	r2, [r3, #0]
10009ee6:	2100      	movs	r1, #0
10009ee8:	220c      	movs	r2, #12
10009eea:	f7fe fa67 	bl	100083bc <__wrap_memset>
10009eee:	466b      	mov	r3, sp
10009ef0:	466a      	mov	r2, sp
10009ef2:	731d      	strb	r5, [r3, #12]
10009ef4:	2305      	movs	r3, #5
10009ef6:	7353      	strb	r3, [r2, #13]
10009ef8:	4b07      	ldr	r3, [pc, #28]	; (10009f18 <dcd_event_bus_signal+0x11c>)
10009efa:	681c      	ldr	r4, [r3, #0]
10009efc:	69e2      	ldr	r2, [r4, #28]
10009efe:	f3ef 8110 	mrs	r1, PRIMASK
10009f02:	b672      	cpsid	i
10009f04:	6813      	ldr	r3, [r2, #0]
10009f06:	2b00      	cmp	r3, #0
10009f08:	d0fc      	beq.n	10009f04 <dcd_event_bus_signal+0x108>
10009f0a:	f3bf 8f5f 	dmb	sy
10009f0e:	6221      	str	r1, [r4, #32]
10009f10:	a903      	add	r1, sp, #12
10009f12:	e7ad      	b.n	10009e70 <dcd_event_bus_signal+0x74>
10009f14:	20026400 	.word	0x20026400
10009f18:	20026458 	.word	0x20026458

10009f1c <dcd_event_bus_reset>:
10009f1c:	b570      	push	{r4, r5, r6, lr}
10009f1e:	b084      	sub	sp, #16
10009f20:	ac01      	add	r4, sp, #4
10009f22:	0006      	movs	r6, r0
10009f24:	000d      	movs	r5, r1
10009f26:	220c      	movs	r2, #12
10009f28:	2100      	movs	r1, #0
10009f2a:	0020      	movs	r0, r4
10009f2c:	f7fe fa46 	bl	100083bc <__wrap_memset>
10009f30:	2301      	movs	r3, #1
10009f32:	7063      	strb	r3, [r4, #1]
10009f34:	4b0d      	ldr	r3, [pc, #52]	; (10009f6c <dcd_event_bus_reset+0x50>)
10009f36:	7125      	strb	r5, [r4, #4]
10009f38:	681d      	ldr	r5, [r3, #0]
10009f3a:	7026      	strb	r6, [r4, #0]
10009f3c:	69ea      	ldr	r2, [r5, #28]
10009f3e:	f3ef 8310 	mrs	r3, PRIMASK
10009f42:	b672      	cpsid	i
10009f44:	6811      	ldr	r1, [r2, #0]
10009f46:	2900      	cmp	r1, #0
10009f48:	d0fc      	beq.n	10009f44 <dcd_event_bus_reset+0x28>
10009f4a:	f3bf 8f5f 	dmb	sy
10009f4e:	622b      	str	r3, [r5, #32]
10009f50:	0021      	movs	r1, r4
10009f52:	0028      	movs	r0, r5
10009f54:	f000 fe74 	bl	1000ac40 <tu_fifo_write>
10009f58:	69ea      	ldr	r2, [r5, #28]
10009f5a:	6a2b      	ldr	r3, [r5, #32]
10009f5c:	f3bf 8f5f 	dmb	sy
10009f60:	2100      	movs	r1, #0
10009f62:	6011      	str	r1, [r2, #0]
10009f64:	f383 8810 	msr	PRIMASK, r3
10009f68:	b004      	add	sp, #16
10009f6a:	bd70      	pop	{r4, r5, r6, pc}
10009f6c:	20026458 	.word	0x20026458

10009f70 <dcd_event_setup_received>:
10009f70:	2300      	movs	r3, #0
10009f72:	b530      	push	{r4, r5, lr}
10009f74:	b085      	sub	sp, #20
10009f76:	ad01      	add	r5, sp, #4
10009f78:	806b      	strh	r3, [r5, #2]
10009f7a:	7028      	strb	r0, [r5, #0]
10009f7c:	3306      	adds	r3, #6
10009f7e:	2208      	movs	r2, #8
10009f80:	a802      	add	r0, sp, #8
10009f82:	706b      	strb	r3, [r5, #1]
10009f84:	f7fe fa20 	bl	100083c8 <__wrap___aeabi_memcpy>
10009f88:	4b0c      	ldr	r3, [pc, #48]	; (10009fbc <dcd_event_setup_received+0x4c>)
10009f8a:	681c      	ldr	r4, [r3, #0]
10009f8c:	69e2      	ldr	r2, [r4, #28]
10009f8e:	f3ef 8310 	mrs	r3, PRIMASK
10009f92:	b672      	cpsid	i
10009f94:	6811      	ldr	r1, [r2, #0]
10009f96:	2900      	cmp	r1, #0
10009f98:	d0fc      	beq.n	10009f94 <dcd_event_setup_received+0x24>
10009f9a:	f3bf 8f5f 	dmb	sy
10009f9e:	6223      	str	r3, [r4, #32]
10009fa0:	0029      	movs	r1, r5
10009fa2:	0020      	movs	r0, r4
10009fa4:	f000 fe4c 	bl	1000ac40 <tu_fifo_write>
10009fa8:	69e2      	ldr	r2, [r4, #28]
10009faa:	6a23      	ldr	r3, [r4, #32]
10009fac:	f3bf 8f5f 	dmb	sy
10009fb0:	2100      	movs	r1, #0
10009fb2:	6011      	str	r1, [r2, #0]
10009fb4:	f383 8810 	msr	PRIMASK, r3
10009fb8:	b005      	add	sp, #20
10009fba:	bd30      	pop	{r4, r5, pc}
10009fbc:	20026458 	.word	0x20026458

10009fc0 <dcd_event_xfer_complete>:
10009fc0:	b5f0      	push	{r4, r5, r6, r7, lr}
10009fc2:	46c6      	mov	lr, r8
10009fc4:	4680      	mov	r8, r0
10009fc6:	b500      	push	{lr}
10009fc8:	b084      	sub	sp, #16
10009fca:	ac01      	add	r4, sp, #4
10009fcc:	000f      	movs	r7, r1
10009fce:	0016      	movs	r6, r2
10009fd0:	2100      	movs	r1, #0
10009fd2:	2208      	movs	r2, #8
10009fd4:	0020      	movs	r0, r4
10009fd6:	001d      	movs	r5, r3
10009fd8:	f7fe f9f0 	bl	100083bc <__wrap_memset>
10009fdc:	4643      	mov	r3, r8
10009fde:	7023      	strb	r3, [r4, #0]
10009fe0:	2307      	movs	r3, #7
10009fe2:	7063      	strb	r3, [r4, #1]
10009fe4:	4b0f      	ldr	r3, [pc, #60]	; (1000a024 <dcd_event_xfer_complete+0x64>)
10009fe6:	7165      	strb	r5, [r4, #5]
10009fe8:	681d      	ldr	r5, [r3, #0]
10009fea:	7127      	strb	r7, [r4, #4]
10009fec:	60a6      	str	r6, [r4, #8]
10009fee:	69ea      	ldr	r2, [r5, #28]
10009ff0:	f3ef 8310 	mrs	r3, PRIMASK
10009ff4:	b672      	cpsid	i
10009ff6:	6811      	ldr	r1, [r2, #0]
10009ff8:	2900      	cmp	r1, #0
10009ffa:	d0fc      	beq.n	10009ff6 <dcd_event_xfer_complete+0x36>
10009ffc:	f3bf 8f5f 	dmb	sy
1000a000:	622b      	str	r3, [r5, #32]
1000a002:	0021      	movs	r1, r4
1000a004:	0028      	movs	r0, r5
1000a006:	f000 fe1b 	bl	1000ac40 <tu_fifo_write>
1000a00a:	69ea      	ldr	r2, [r5, #28]
1000a00c:	6a2b      	ldr	r3, [r5, #32]
1000a00e:	f3bf 8f5f 	dmb	sy
1000a012:	2100      	movs	r1, #0
1000a014:	6011      	str	r1, [r2, #0]
1000a016:	f383 8810 	msr	PRIMASK, r3
1000a01a:	b004      	add	sp, #16
1000a01c:	bc80      	pop	{r7}
1000a01e:	46b8      	mov	r8, r7
1000a020:	bdf0      	pop	{r4, r5, r6, r7, pc}
1000a022:	46c0      	nop			; (mov r8, r8)
1000a024:	20026458 	.word	0x20026458

1000a028 <usbd_open_edpt_pair>:
1000a028:	b5f0      	push	{r4, r5, r6, r7, lr}
1000a02a:	4646      	mov	r6, r8
1000a02c:	46d6      	mov	lr, sl
1000a02e:	464f      	mov	r7, r9
1000a030:	4680      	mov	r8, r0
1000a032:	b5c0      	push	{r6, r7, lr}
1000a034:	000c      	movs	r4, r1
1000a036:	0015      	movs	r5, r2
1000a038:	001e      	movs	r6, r3
1000a03a:	2a00      	cmp	r2, #0
1000a03c:	d02e      	beq.n	1000a09c <usbd_open_edpt_pair+0x74>
1000a03e:	2370      	movs	r3, #112	; 0x70
1000a040:	4699      	mov	r9, r3
1000a042:	4b18      	ldr	r3, [pc, #96]	; (1000a0a4 <usbd_open_edpt_pair+0x7c>)
1000a044:	2700      	movs	r7, #0
1000a046:	469a      	mov	sl, r3
1000a048:	7863      	ldrb	r3, [r4, #1]
1000a04a:	2b05      	cmp	r3, #5
1000a04c:	d10f      	bne.n	1000a06e <usbd_open_edpt_pair+0x46>
1000a04e:	78e1      	ldrb	r1, [r4, #3]
1000a050:	0789      	lsls	r1, r1, #30
1000a052:	0f89      	lsrs	r1, r1, #30
1000a054:	42b1      	cmp	r1, r6
1000a056:	d10a      	bne.n	1000a06e <usbd_open_edpt_pair+0x46>
1000a058:	464a      	mov	r2, r9
1000a05a:	78a3      	ldrb	r3, [r4, #2]
1000a05c:	421a      	tst	r2, r3
1000a05e:	d106      	bne.n	1000a06e <usbd_open_edpt_pair+0x46>
1000a060:	4653      	mov	r3, sl
1000a062:	0020      	movs	r0, r4
1000a064:	7899      	ldrb	r1, [r3, #2]
1000a066:	f000 fc69 	bl	1000a93c <tu_edpt_validate>
1000a06a:	2800      	cmp	r0, #0
1000a06c:	d105      	bne.n	1000a07a <usbd_open_edpt_pair+0x52>
1000a06e:	2000      	movs	r0, #0
1000a070:	bce0      	pop	{r5, r6, r7}
1000a072:	46ba      	mov	sl, r7
1000a074:	46b1      	mov	r9, r6
1000a076:	46a8      	mov	r8, r5
1000a078:	bdf0      	pop	{r4, r5, r6, r7, pc}
1000a07a:	0021      	movs	r1, r4
1000a07c:	4640      	mov	r0, r8
1000a07e:	f7fe febf 	bl	10008e00 <dcd_edpt_open>
1000a082:	2800      	cmp	r0, #0
1000a084:	d0f3      	beq.n	1000a06e <usbd_open_edpt_pair+0x46>
1000a086:	78a3      	ldrb	r3, [r4, #2]
1000a088:	09da      	lsrs	r2, r3, #7
1000a08a:	2a01      	cmp	r2, #1
1000a08c:	d008      	beq.n	1000a0a0 <usbd_open_edpt_pair+0x78>
1000a08e:	9a08      	ldr	r2, [sp, #32]
1000a090:	7013      	strb	r3, [r2, #0]
1000a092:	7823      	ldrb	r3, [r4, #0]
1000a094:	3701      	adds	r7, #1
1000a096:	18e4      	adds	r4, r4, r3
1000a098:	42af      	cmp	r7, r5
1000a09a:	dbd5      	blt.n	1000a048 <usbd_open_edpt_pair+0x20>
1000a09c:	2001      	movs	r0, #1
1000a09e:	e7e7      	b.n	1000a070 <usbd_open_edpt_pair+0x48>
1000a0a0:	9a09      	ldr	r2, [sp, #36]	; 0x24
1000a0a2:	e7f5      	b.n	1000a090 <usbd_open_edpt_pair+0x68>
1000a0a4:	20026400 	.word	0x20026400

1000a0a8 <usbd_edpt_open>:
1000a0a8:	2270      	movs	r2, #112	; 0x70
1000a0aa:	b570      	push	{r4, r5, r6, lr}
1000a0ac:	788b      	ldrb	r3, [r1, #2]
1000a0ae:	0005      	movs	r5, r0
1000a0b0:	000c      	movs	r4, r1
1000a0b2:	421a      	tst	r2, r3
1000a0b4:	d001      	beq.n	1000a0ba <usbd_edpt_open+0x12>
1000a0b6:	2000      	movs	r0, #0
1000a0b8:	bd70      	pop	{r4, r5, r6, pc}
1000a0ba:	4b06      	ldr	r3, [pc, #24]	; (1000a0d4 <usbd_edpt_open+0x2c>)
1000a0bc:	0020      	movs	r0, r4
1000a0be:	7899      	ldrb	r1, [r3, #2]
1000a0c0:	f000 fc3c 	bl	1000a93c <tu_edpt_validate>
1000a0c4:	2800      	cmp	r0, #0
1000a0c6:	d0f6      	beq.n	1000a0b6 <usbd_edpt_open+0xe>
1000a0c8:	0021      	movs	r1, r4
1000a0ca:	0028      	movs	r0, r5
1000a0cc:	f7fe fe98 	bl	10008e00 <dcd_edpt_open>
1000a0d0:	e7f2      	b.n	1000a0b8 <usbd_edpt_open+0x10>
1000a0d2:	46c0      	nop			; (mov r8, r8)
1000a0d4:	20026400 	.word	0x20026400

1000a0d8 <usbd_edpt_claim>:
1000a0d8:	b570      	push	{r4, r5, r6, lr}
1000a0da:	247f      	movs	r4, #127	; 0x7f
1000a0dc:	400c      	ands	r4, r1
1000a0de:	0063      	lsls	r3, r4, #1
1000a0e0:	4c14      	ldr	r4, [pc, #80]	; (1000a134 <usbd_edpt_claim+0x5c>)
1000a0e2:	09c9      	lsrs	r1, r1, #7
1000a0e4:	18e4      	adds	r4, r4, r3
1000a0e6:	1864      	adds	r4, r4, r1
1000a0e8:	3430      	adds	r4, #48	; 0x30
1000a0ea:	78e3      	ldrb	r3, [r4, #3]
1000a0ec:	07db      	lsls	r3, r3, #31
1000a0ee:	0fdd      	lsrs	r5, r3, #31
1000a0f0:	2b00      	cmp	r3, #0
1000a0f2:	d118      	bne.n	1000a126 <usbd_edpt_claim+0x4e>
1000a0f4:	78e3      	ldrb	r3, [r4, #3]
1000a0f6:	075b      	lsls	r3, r3, #29
1000a0f8:	d501      	bpl.n	1000a0fe <usbd_edpt_claim+0x26>
1000a0fa:	0028      	movs	r0, r5
1000a0fc:	bd70      	pop	{r4, r5, r6, pc}
1000a0fe:	2101      	movs	r1, #1
1000a100:	4e0d      	ldr	r6, [pc, #52]	; (1000a138 <usbd_edpt_claim+0x60>)
1000a102:	4249      	negs	r1, r1
1000a104:	6830      	ldr	r0, [r6, #0]
1000a106:	f001 f88b 	bl	1000b220 <__mutex_enter_timeout_ms_veneer>
1000a10a:	78e3      	ldrb	r3, [r4, #3]
1000a10c:	07db      	lsls	r3, r3, #31
1000a10e:	0fdd      	lsrs	r5, r3, #31
1000a110:	2b00      	cmp	r3, #0
1000a112:	d10a      	bne.n	1000a12a <usbd_edpt_claim+0x52>
1000a114:	78e3      	ldrb	r3, [r4, #3]
1000a116:	075b      	lsls	r3, r3, #29
1000a118:	d408      	bmi.n	1000a12c <usbd_edpt_claim+0x54>
1000a11a:	2204      	movs	r2, #4
1000a11c:	78e3      	ldrb	r3, [r4, #3]
1000a11e:	2501      	movs	r5, #1
1000a120:	4313      	orrs	r3, r2
1000a122:	70e3      	strb	r3, [r4, #3]
1000a124:	e002      	b.n	1000a12c <usbd_edpt_claim+0x54>
1000a126:	2500      	movs	r5, #0
1000a128:	e7e7      	b.n	1000a0fa <usbd_edpt_claim+0x22>
1000a12a:	2500      	movs	r5, #0
1000a12c:	6830      	ldr	r0, [r6, #0]
1000a12e:	f001 f857 	bl	1000b1e0 <__mutex_exit_veneer>
1000a132:	e7e2      	b.n	1000a0fa <usbd_edpt_claim+0x22>
1000a134:	20026400 	.word	0x20026400
1000a138:	20026454 	.word	0x20026454

1000a13c <usbd_edpt_release>:
1000a13c:	b570      	push	{r4, r5, r6, lr}
1000a13e:	000c      	movs	r4, r1
1000a140:	2101      	movs	r1, #1
1000a142:	4d0f      	ldr	r5, [pc, #60]	; (1000a180 <usbd_edpt_release+0x44>)
1000a144:	4249      	negs	r1, r1
1000a146:	6828      	ldr	r0, [r5, #0]
1000a148:	f001 f86a 	bl	1000b220 <__mutex_enter_timeout_ms_veneer>
1000a14c:	217f      	movs	r1, #127	; 0x7f
1000a14e:	4021      	ands	r1, r4
1000a150:	004b      	lsls	r3, r1, #1
1000a152:	490c      	ldr	r1, [pc, #48]	; (1000a184 <usbd_edpt_release+0x48>)
1000a154:	09e4      	lsrs	r4, r4, #7
1000a156:	18c9      	adds	r1, r1, r3
1000a158:	1909      	adds	r1, r1, r4
1000a15a:	3130      	adds	r1, #48	; 0x30
1000a15c:	78cb      	ldrb	r3, [r1, #3]
1000a15e:	2400      	movs	r4, #0
1000a160:	07db      	lsls	r3, r3, #31
1000a162:	d408      	bmi.n	1000a176 <usbd_edpt_release+0x3a>
1000a164:	78cb      	ldrb	r3, [r1, #3]
1000a166:	075b      	lsls	r3, r3, #29
1000a168:	0fdc      	lsrs	r4, r3, #31
1000a16a:	2b00      	cmp	r3, #0
1000a16c:	da03      	bge.n	1000a176 <usbd_edpt_release+0x3a>
1000a16e:	2204      	movs	r2, #4
1000a170:	78cb      	ldrb	r3, [r1, #3]
1000a172:	4393      	bics	r3, r2
1000a174:	70cb      	strb	r3, [r1, #3]
1000a176:	6828      	ldr	r0, [r5, #0]
1000a178:	f001 f832 	bl	1000b1e0 <__mutex_exit_veneer>
1000a17c:	0020      	movs	r0, r4
1000a17e:	bd70      	pop	{r4, r5, r6, pc}
1000a180:	20026454 	.word	0x20026454
1000a184:	20026400 	.word	0x20026400

1000a188 <usbd_edpt_xfer>:
1000a188:	b570      	push	{r4, r5, r6, lr}
1000a18a:	257f      	movs	r5, #127	; 0x7f
1000a18c:	4c0f      	ldr	r4, [pc, #60]	; (1000a1cc <usbd_edpt_xfer+0x44>)
1000a18e:	400d      	ands	r5, r1
1000a190:	006d      	lsls	r5, r5, #1
1000a192:	1964      	adds	r4, r4, r5
1000a194:	0006      	movs	r6, r0
1000a196:	09c8      	lsrs	r0, r1, #7
1000a198:	1824      	adds	r4, r4, r0
1000a19a:	3430      	adds	r4, #48	; 0x30
1000a19c:	78e5      	ldrb	r5, [r4, #3]
1000a19e:	2000      	movs	r0, #0
1000a1a0:	07ed      	lsls	r5, r5, #31
1000a1a2:	d500      	bpl.n	1000a1a6 <usbd_edpt_xfer+0x1e>
1000a1a4:	bd70      	pop	{r4, r5, r6, pc}
1000a1a6:	2501      	movs	r5, #1
1000a1a8:	78e0      	ldrb	r0, [r4, #3]
1000a1aa:	4328      	orrs	r0, r5
1000a1ac:	70e0      	strb	r0, [r4, #3]
1000a1ae:	0030      	movs	r0, r6
1000a1b0:	f7fe fefc 	bl	10008fac <dcd_edpt_xfer>
1000a1b4:	2800      	cmp	r0, #0
1000a1b6:	d1f5      	bne.n	1000a1a4 <usbd_edpt_xfer+0x1c>
1000a1b8:	2201      	movs	r2, #1
1000a1ba:	78e3      	ldrb	r3, [r4, #3]
1000a1bc:	4393      	bics	r3, r2
1000a1be:	70e3      	strb	r3, [r4, #3]
1000a1c0:	78e3      	ldrb	r3, [r4, #3]
1000a1c2:	3203      	adds	r2, #3
1000a1c4:	4393      	bics	r3, r2
1000a1c6:	70e3      	strb	r3, [r4, #3]
1000a1c8:	e7ec      	b.n	1000a1a4 <usbd_edpt_xfer+0x1c>
1000a1ca:	46c0      	nop			; (mov r8, r8)
1000a1cc:	20026400 	.word	0x20026400

1000a1d0 <tud_control_status>:
1000a1d0:	b570      	push	{r4, r5, r6, lr}
1000a1d2:	4e0a      	ldr	r6, [pc, #40]	; (1000a1fc <tud_control_status+0x2c>)
1000a1d4:	0005      	movs	r5, r0
1000a1d6:	0030      	movs	r0, r6
1000a1d8:	2208      	movs	r2, #8
1000a1da:	000c      	movs	r4, r1
1000a1dc:	f7fe f8f4 	bl	100083c8 <__wrap___aeabi_memcpy>
1000a1e0:	2300      	movs	r3, #0
1000a1e2:	217f      	movs	r1, #127	; 0x7f
1000a1e4:	60f3      	str	r3, [r6, #12]
1000a1e6:	7822      	ldrb	r2, [r4, #0]
1000a1e8:	60b3      	str	r3, [r6, #8]
1000a1ea:	4291      	cmp	r1, r2
1000a1ec:	415b      	adcs	r3, r3
1000a1ee:	0028      	movs	r0, r5
1000a1f0:	01d9      	lsls	r1, r3, #7
1000a1f2:	2200      	movs	r2, #0
1000a1f4:	2300      	movs	r3, #0
1000a1f6:	f7ff ffc7 	bl	1000a188 <usbd_edpt_xfer>
1000a1fa:	bd70      	pop	{r4, r5, r6, pc}
1000a1fc:	20000ba0 	.word	0x20000ba0

1000a200 <tud_control_xfer>:
1000a200:	b5f8      	push	{r3, r4, r5, r6, r7, lr}
1000a202:	46ce      	mov	lr, r9
1000a204:	4647      	mov	r7, r8
1000a206:	4691      	mov	r9, r2
1000a208:	4e2a      	ldr	r6, [pc, #168]	; (1000a2b4 <tud_control_xfer+0xb4>)
1000a20a:	b580      	push	{r7, lr}
1000a20c:	2208      	movs	r2, #8
1000a20e:	0007      	movs	r7, r0
1000a210:	0030      	movs	r0, r6
1000a212:	000d      	movs	r5, r1
1000a214:	4698      	mov	r8, r3
1000a216:	f7fe f8d7 	bl	100083c8 <__wrap___aeabi_memcpy>
1000a21a:	464b      	mov	r3, r9
1000a21c:	60b3      	str	r3, [r6, #8]
1000a21e:	2300      	movs	r3, #0
1000a220:	81f3      	strh	r3, [r6, #14]
1000a222:	79ec      	ldrb	r4, [r5, #7]
1000a224:	79a9      	ldrb	r1, [r5, #6]
1000a226:	0224      	lsls	r4, r4, #8
1000a228:	430c      	orrs	r4, r1
1000a22a:	1c23      	adds	r3, r4, #0
1000a22c:	4544      	cmp	r4, r8
1000a22e:	d900      	bls.n	1000a232 <tud_control_xfer+0x32>
1000a230:	4643      	mov	r3, r8
1000a232:	b29a      	uxth	r2, r3
1000a234:	4690      	mov	r8, r2
1000a236:	81b3      	strh	r3, [r6, #12]
1000a238:	2c00      	cmp	r4, #0
1000a23a:	d013      	beq.n	1000a264 <tud_control_xfer+0x64>
1000a23c:	2a00      	cmp	r2, #0
1000a23e:	d01f      	beq.n	1000a280 <tud_control_xfer+0x80>
1000a240:	464b      	mov	r3, r9
1000a242:	2b00      	cmp	r3, #0
1000a244:	d034      	beq.n	1000a2b0 <tud_control_xfer+0xb0>
1000a246:	1c13      	adds	r3, r2, #0
1000a248:	2a40      	cmp	r2, #64	; 0x40
1000a24a:	d81f      	bhi.n	1000a28c <tud_control_xfer+0x8c>
1000a24c:	b29b      	uxth	r3, r3
1000a24e:	4698      	mov	r8, r3
1000a250:	7833      	ldrb	r3, [r6, #0]
1000a252:	2b7f      	cmp	r3, #127	; 0x7f
1000a254:	d820      	bhi.n	1000a298 <tud_control_xfer+0x98>
1000a256:	2100      	movs	r1, #0
1000a258:	4a17      	ldr	r2, [pc, #92]	; (1000a2b8 <tud_control_xfer+0xb8>)
1000a25a:	4643      	mov	r3, r8
1000a25c:	0038      	movs	r0, r7
1000a25e:	f7ff ff93 	bl	1000a188 <usbd_edpt_xfer>
1000a262:	e009      	b.n	1000a278 <tud_control_xfer+0x78>
1000a264:	227f      	movs	r2, #127	; 0x7f
1000a266:	782b      	ldrb	r3, [r5, #0]
1000a268:	0038      	movs	r0, r7
1000a26a:	429a      	cmp	r2, r3
1000a26c:	4164      	adcs	r4, r4
1000a26e:	2300      	movs	r3, #0
1000a270:	2200      	movs	r2, #0
1000a272:	01e1      	lsls	r1, r4, #7
1000a274:	f7ff ff88 	bl	1000a188 <usbd_edpt_xfer>
1000a278:	bcc0      	pop	{r6, r7}
1000a27a:	46b9      	mov	r9, r7
1000a27c:	46b0      	mov	r8, r6
1000a27e:	bdf8      	pop	{r3, r4, r5, r6, r7, pc}
1000a280:	7833      	ldrb	r3, [r6, #0]
1000a282:	2b7f      	cmp	r3, #127	; 0x7f
1000a284:	d911      	bls.n	1000a2aa <tud_control_xfer+0xaa>
1000a286:	2180      	movs	r1, #128	; 0x80
1000a288:	2200      	movs	r2, #0
1000a28a:	e7e6      	b.n	1000a25a <tud_control_xfer+0x5a>
1000a28c:	2340      	movs	r3, #64	; 0x40
1000a28e:	b29b      	uxth	r3, r3
1000a290:	4698      	mov	r8, r3
1000a292:	7833      	ldrb	r3, [r6, #0]
1000a294:	2b7f      	cmp	r3, #127	; 0x7f
1000a296:	d9de      	bls.n	1000a256 <tud_control_xfer+0x56>
1000a298:	4c07      	ldr	r4, [pc, #28]	; (1000a2b8 <tud_control_xfer+0xb8>)
1000a29a:	4642      	mov	r2, r8
1000a29c:	4649      	mov	r1, r9
1000a29e:	0020      	movs	r0, r4
1000a2a0:	f7fe f892 	bl	100083c8 <__wrap___aeabi_memcpy>
1000a2a4:	2180      	movs	r1, #128	; 0x80
1000a2a6:	0022      	movs	r2, r4
1000a2a8:	e7d7      	b.n	1000a25a <tud_control_xfer+0x5a>
1000a2aa:	2100      	movs	r1, #0
1000a2ac:	2200      	movs	r2, #0
1000a2ae:	e7d4      	b.n	1000a25a <tud_control_xfer+0x5a>
1000a2b0:	2000      	movs	r0, #0
1000a2b2:	e7e1      	b.n	1000a278 <tud_control_xfer+0x78>
1000a2b4:	20000ba0 	.word	0x20000ba0
1000a2b8:	200263c0 	.word	0x200263c0

1000a2bc <usbd_control_reset>:
1000a2bc:	b510      	push	{r4, lr}
1000a2be:	2214      	movs	r2, #20
1000a2c0:	2100      	movs	r1, #0
1000a2c2:	4802      	ldr	r0, [pc, #8]	; (1000a2cc <usbd_control_reset+0x10>)
1000a2c4:	f7fe f87a 	bl	100083bc <__wrap_memset>
1000a2c8:	bd10      	pop	{r4, pc}
1000a2ca:	46c0      	nop			; (mov r8, r8)
1000a2cc:	20000ba0 	.word	0x20000ba0

1000a2d0 <usbd_control_set_complete_callback>:
1000a2d0:	4b01      	ldr	r3, [pc, #4]	; (1000a2d8 <usbd_control_set_complete_callback+0x8>)
1000a2d2:	6118      	str	r0, [r3, #16]
1000a2d4:	4770      	bx	lr
1000a2d6:	46c0      	nop			; (mov r8, r8)
1000a2d8:	20000ba0 	.word	0x20000ba0

1000a2dc <usbd_control_set_request>:
1000a2dc:	b510      	push	{r4, lr}
1000a2de:	4c05      	ldr	r4, [pc, #20]	; (1000a2f4 <usbd_control_set_request+0x18>)
1000a2e0:	0001      	movs	r1, r0
1000a2e2:	2208      	movs	r2, #8
1000a2e4:	0020      	movs	r0, r4
1000a2e6:	f7fe f86f 	bl	100083c8 <__wrap___aeabi_memcpy>
1000a2ea:	2300      	movs	r3, #0
1000a2ec:	60a3      	str	r3, [r4, #8]
1000a2ee:	60e3      	str	r3, [r4, #12]
1000a2f0:	bd10      	pop	{r4, pc}
1000a2f2:	46c0      	nop			; (mov r8, r8)
1000a2f4:	20000ba0 	.word	0x20000ba0

1000a2f8 <usbd_control_xfer_cb>:
1000a2f8:	b5f8      	push	{r3, r4, r5, r6, r7, lr}
1000a2fa:	4c3b      	ldr	r4, [pc, #236]	; (1000a3e8 <usbd_control_xfer_cb+0xf0>)
1000a2fc:	001d      	movs	r5, r3
1000a2fe:	7823      	ldrb	r3, [r4, #0]
1000a300:	0006      	movs	r6, r0
1000a302:	09da      	lsrs	r2, r3, #7
1000a304:	09c9      	lsrs	r1, r1, #7
1000a306:	428a      	cmp	r2, r1
1000a308:	d013      	beq.n	1000a332 <usbd_control_xfer_cb+0x3a>
1000a30a:	2000      	movs	r0, #0
1000a30c:	2d00      	cmp	r5, #0
1000a30e:	d000      	beq.n	1000a312 <usbd_control_xfer_cb+0x1a>
1000a310:	bdf8      	pop	{r3, r4, r5, r6, r7, pc}
1000a312:	4b36      	ldr	r3, [pc, #216]	; (1000a3ec <usbd_control_xfer_cb+0xf4>)
1000a314:	2b00      	cmp	r3, #0
1000a316:	d003      	beq.n	1000a320 <usbd_control_xfer_cb+0x28>
1000a318:	0021      	movs	r1, r4
1000a31a:	0030      	movs	r0, r6
1000a31c:	f7fe fd62 	bl	10008de4 <dcd_edpt0_status_complete>
1000a320:	6923      	ldr	r3, [r4, #16]
1000a322:	2b00      	cmp	r3, #0
1000a324:	d044      	beq.n	1000a3b0 <usbd_control_xfer_cb+0xb8>
1000a326:	0022      	movs	r2, r4
1000a328:	2102      	movs	r1, #2
1000a32a:	0030      	movs	r0, r6
1000a32c:	4798      	blx	r3
1000a32e:	2001      	movs	r0, #1
1000a330:	e7ee      	b.n	1000a310 <usbd_control_xfer_cb+0x18>
1000a332:	2b7f      	cmp	r3, #127	; 0x7f
1000a334:	d806      	bhi.n	1000a344 <usbd_control_xfer_cb+0x4c>
1000a336:	68a0      	ldr	r0, [r4, #8]
1000a338:	2800      	cmp	r0, #0
1000a33a:	d037      	beq.n	1000a3ac <usbd_control_xfer_cb+0xb4>
1000a33c:	002a      	movs	r2, r5
1000a33e:	492c      	ldr	r1, [pc, #176]	; (1000a3f0 <usbd_control_xfer_cb+0xf8>)
1000a340:	f7fe f842 	bl	100083c8 <__wrap___aeabi_memcpy>
1000a344:	68a3      	ldr	r3, [r4, #8]
1000a346:	89e2      	ldrh	r2, [r4, #14]
1000a348:	1959      	adds	r1, r3, r5
1000a34a:	1952      	adds	r2, r2, r5
1000a34c:	88e3      	ldrh	r3, [r4, #6]
1000a34e:	b292      	uxth	r2, r2
1000a350:	81e2      	strh	r2, [r4, #14]
1000a352:	60a1      	str	r1, [r4, #8]
1000a354:	4293      	cmp	r3, r2
1000a356:	d014      	beq.n	1000a382 <usbd_control_xfer_cb+0x8a>
1000a358:	2d3f      	cmp	r5, #63	; 0x3f
1000a35a:	d912      	bls.n	1000a382 <usbd_control_xfer_cb+0x8a>
1000a35c:	89a5      	ldrh	r5, [r4, #12]
1000a35e:	1aa8      	subs	r0, r5, r2
1000a360:	1c07      	adds	r7, r0, #0
1000a362:	b280      	uxth	r0, r0
1000a364:	2840      	cmp	r0, #64	; 0x40
1000a366:	d82f      	bhi.n	1000a3c8 <usbd_control_xfer_cb+0xd0>
1000a368:	7823      	ldrb	r3, [r4, #0]
1000a36a:	b2bf      	uxth	r7, r7
1000a36c:	2b7f      	cmp	r3, #127	; 0x7f
1000a36e:	d82d      	bhi.n	1000a3cc <usbd_control_xfer_cb+0xd4>
1000a370:	2100      	movs	r1, #0
1000a372:	42aa      	cmp	r2, r5
1000a374:	d035      	beq.n	1000a3e2 <usbd_control_xfer_cb+0xea>
1000a376:	4a1e      	ldr	r2, [pc, #120]	; (1000a3f0 <usbd_control_xfer_cb+0xf8>)
1000a378:	003b      	movs	r3, r7
1000a37a:	0030      	movs	r0, r6
1000a37c:	f7ff ff04 	bl	1000a188 <usbd_edpt_xfer>
1000a380:	e7c6      	b.n	1000a310 <usbd_control_xfer_cb+0x18>
1000a382:	6923      	ldr	r3, [r4, #16]
1000a384:	2b00      	cmp	r3, #0
1000a386:	d005      	beq.n	1000a394 <usbd_control_xfer_cb+0x9c>
1000a388:	0022      	movs	r2, r4
1000a38a:	2101      	movs	r1, #1
1000a38c:	0030      	movs	r0, r6
1000a38e:	4798      	blx	r3
1000a390:	2800      	cmp	r0, #0
1000a392:	d00f      	beq.n	1000a3b4 <usbd_control_xfer_cb+0xbc>
1000a394:	227f      	movs	r2, #127	; 0x7f
1000a396:	2100      	movs	r1, #0
1000a398:	7823      	ldrb	r3, [r4, #0]
1000a39a:	0030      	movs	r0, r6
1000a39c:	429a      	cmp	r2, r3
1000a39e:	4149      	adcs	r1, r1
1000a3a0:	2300      	movs	r3, #0
1000a3a2:	2200      	movs	r2, #0
1000a3a4:	01c9      	lsls	r1, r1, #7
1000a3a6:	f7ff feef 	bl	1000a188 <usbd_edpt_xfer>
1000a3aa:	e7b1      	b.n	1000a310 <usbd_control_xfer_cb+0x18>
1000a3ac:	2000      	movs	r0, #0
1000a3ae:	e7af      	b.n	1000a310 <usbd_control_xfer_cb+0x18>
1000a3b0:	2001      	movs	r0, #1
1000a3b2:	e7ad      	b.n	1000a310 <usbd_control_xfer_cb+0x18>
1000a3b4:	2100      	movs	r1, #0
1000a3b6:	0030      	movs	r0, r6
1000a3b8:	f7fe fe0a 	bl	10008fd0 <dcd_edpt_stall>
1000a3bc:	0030      	movs	r0, r6
1000a3be:	2180      	movs	r1, #128	; 0x80
1000a3c0:	f7fe fe06 	bl	10008fd0 <dcd_edpt_stall>
1000a3c4:	2001      	movs	r0, #1
1000a3c6:	e7a3      	b.n	1000a310 <usbd_control_xfer_cb+0x18>
1000a3c8:	2740      	movs	r7, #64	; 0x40
1000a3ca:	e7cd      	b.n	1000a368 <usbd_control_xfer_cb+0x70>
1000a3cc:	42aa      	cmp	r2, r5
1000a3ce:	d007      	beq.n	1000a3e0 <usbd_control_xfer_cb+0xe8>
1000a3d0:	4c07      	ldr	r4, [pc, #28]	; (1000a3f0 <usbd_control_xfer_cb+0xf8>)
1000a3d2:	003a      	movs	r2, r7
1000a3d4:	0020      	movs	r0, r4
1000a3d6:	f7fd fff7 	bl	100083c8 <__wrap___aeabi_memcpy>
1000a3da:	2180      	movs	r1, #128	; 0x80
1000a3dc:	0022      	movs	r2, r4
1000a3de:	e7cb      	b.n	1000a378 <usbd_control_xfer_cb+0x80>
1000a3e0:	2180      	movs	r1, #128	; 0x80
1000a3e2:	2200      	movs	r2, #0
1000a3e4:	e7c8      	b.n	1000a378 <usbd_control_xfer_cb+0x80>
1000a3e6:	46c0      	nop			; (mov r8, r8)
1000a3e8:	20000ba0 	.word	0x20000ba0
1000a3ec:	10008de5 	.word	0x10008de5
1000a3f0:	200263c0 	.word	0x200263c0

1000a3f4 <tud_cdc_n_connected>:
1000a3f4:	b510      	push	{r4, lr}
1000a3f6:	0004      	movs	r4, r0
1000a3f8:	f7ff f808 	bl	1000940c <tud_mounted>
1000a3fc:	2800      	cmp	r0, #0
1000a3fe:	d101      	bne.n	1000a404 <tud_cdc_n_connected+0x10>
1000a400:	2000      	movs	r0, #0
1000a402:	bd10      	pop	{r4, pc}
1000a404:	f7ff f80a 	bl	1000941c <tud_suspended>
1000a408:	2800      	cmp	r0, #0
1000a40a:	d1f9      	bne.n	1000a400 <tud_cdc_n_connected+0xc>
1000a40c:	20b6      	movs	r0, #182	; 0xb6
1000a40e:	0080      	lsls	r0, r0, #2
1000a410:	4344      	muls	r4, r0
1000a412:	4803      	ldr	r0, [pc, #12]	; (1000a420 <tud_cdc_n_connected+0x2c>)
1000a414:	1900      	adds	r0, r0, r4
1000a416:	7903      	ldrb	r3, [r0, #4]
1000a418:	2001      	movs	r0, #1
1000a41a:	4018      	ands	r0, r3
1000a41c:	e7f1      	b.n	1000a402 <tud_cdc_n_connected+0xe>
1000a41e:	46c0      	nop			; (mov r8, r8)
1000a420:	200008c8 	.word	0x200008c8

1000a424 <tud_cdc_n_available>:
1000a424:	23b6      	movs	r3, #182	; 0xb6
1000a426:	009b      	lsls	r3, r3, #2
1000a428:	4358      	muls	r0, r3
1000a42a:	b510      	push	{r4, lr}
1000a42c:	4b02      	ldr	r3, [pc, #8]	; (1000a438 <tud_cdc_n_available+0x14>)
1000a42e:	3010      	adds	r0, #16
1000a430:	18c0      	adds	r0, r0, r3
1000a432:	f000 fb11 	bl	1000aa58 <tu_fifo_count>
1000a436:	bd10      	pop	{r4, pc}
1000a438:	200008c8 	.word	0x200008c8

1000a43c <tud_cdc_n_read>:
1000a43c:	b5f0      	push	{r4, r5, r6, r7, lr}
1000a43e:	25b6      	movs	r5, #182	; 0xb6
1000a440:	00ad      	lsls	r5, r5, #2
1000a442:	4345      	muls	r5, r0
1000a444:	002c      	movs	r4, r5
1000a446:	46c6      	mov	lr, r8
1000a448:	4f17      	ldr	r7, [pc, #92]	; (1000a4a8 <tud_cdc_n_read+0x6c>)
1000a44a:	3410      	adds	r4, #16
1000a44c:	19e4      	adds	r4, r4, r7
1000a44e:	b500      	push	{lr}
1000a450:	0020      	movs	r0, r4
1000a452:	b292      	uxth	r2, r2
1000a454:	f000 fb74 	bl	1000ab40 <tu_fifo_read_n>
1000a458:	0006      	movs	r6, r0
1000a45a:	0020      	movs	r0, r4
1000a45c:	f000 fb14 	bl	1000aa88 <tu_fifo_remaining>
1000a460:	283f      	cmp	r0, #63	; 0x3f
1000a462:	d803      	bhi.n	1000a46c <tud_cdc_n_read+0x30>
1000a464:	0030      	movs	r0, r6
1000a466:	bc80      	pop	{r7}
1000a468:	46b8      	mov	r8, r7
1000a46a:	bdf0      	pop	{r4, r5, r6, r7, pc}
1000a46c:	197b      	adds	r3, r7, r5
1000a46e:	2000      	movs	r0, #0
1000a470:	78d9      	ldrb	r1, [r3, #3]
1000a472:	4698      	mov	r8, r3
1000a474:	f7ff fe30 	bl	1000a0d8 <usbd_edpt_claim>
1000a478:	2800      	cmp	r0, #0
1000a47a:	d0f3      	beq.n	1000a464 <tud_cdc_n_read+0x28>
1000a47c:	0020      	movs	r0, r4
1000a47e:	f000 fb03 	bl	1000aa88 <tu_fifo_remaining>
1000a482:	283f      	cmp	r0, #63	; 0x3f
1000a484:	d90a      	bls.n	1000a49c <tud_cdc_n_read+0x60>
1000a486:	2396      	movs	r3, #150	; 0x96
1000a488:	009b      	lsls	r3, r3, #2
1000a48a:	18ea      	adds	r2, r5, r3
1000a48c:	4643      	mov	r3, r8
1000a48e:	19d2      	adds	r2, r2, r7
1000a490:	78d9      	ldrb	r1, [r3, #3]
1000a492:	2000      	movs	r0, #0
1000a494:	2340      	movs	r3, #64	; 0x40
1000a496:	f7ff fe77 	bl	1000a188 <usbd_edpt_xfer>
1000a49a:	e7e3      	b.n	1000a464 <tud_cdc_n_read+0x28>
1000a49c:	4643      	mov	r3, r8
1000a49e:	2000      	movs	r0, #0
1000a4a0:	78d9      	ldrb	r1, [r3, #3]
1000a4a2:	f7ff fe4b 	bl	1000a13c <usbd_edpt_release>
1000a4a6:	e7dd      	b.n	1000a464 <tud_cdc_n_read+0x28>
1000a4a8:	200008c8 	.word	0x200008c8

1000a4ac <tud_cdc_n_write_flush>:
1000a4ac:	b5f8      	push	{r3, r4, r5, r6, r7, lr}
1000a4ae:	0004      	movs	r4, r0
1000a4b0:	f7fe ffac 	bl	1000940c <tud_mounted>
1000a4b4:	2800      	cmp	r0, #0
1000a4b6:	d101      	bne.n	1000a4bc <tud_cdc_n_write_flush+0x10>
1000a4b8:	2000      	movs	r0, #0
1000a4ba:	bdf8      	pop	{r3, r4, r5, r6, r7, pc}
1000a4bc:	f7fe ffae 	bl	1000941c <tud_suspended>
1000a4c0:	2800      	cmp	r0, #0
1000a4c2:	d1f9      	bne.n	1000a4b8 <tud_cdc_n_write_flush+0xc>
1000a4c4:	20b6      	movs	r0, #182	; 0xb6
1000a4c6:	0080      	lsls	r0, r0, #2
1000a4c8:	4344      	muls	r4, r0
1000a4ca:	0025      	movs	r5, r4
1000a4cc:	4e14      	ldr	r6, [pc, #80]	; (1000a520 <tud_cdc_n_write_flush+0x74>)
1000a4ce:	352c      	adds	r5, #44	; 0x2c
1000a4d0:	19ad      	adds	r5, r5, r6
1000a4d2:	0028      	movs	r0, r5
1000a4d4:	f000 fac0 	bl	1000aa58 <tu_fifo_count>
1000a4d8:	2800      	cmp	r0, #0
1000a4da:	d0ed      	beq.n	1000a4b8 <tud_cdc_n_write_flush+0xc>
1000a4dc:	1937      	adds	r7, r6, r4
1000a4de:	2000      	movs	r0, #0
1000a4e0:	78b9      	ldrb	r1, [r7, #2]
1000a4e2:	f7ff fdf9 	bl	1000a0d8 <usbd_edpt_claim>
1000a4e6:	2800      	cmp	r0, #0
1000a4e8:	d0e6      	beq.n	1000a4b8 <tud_cdc_n_write_flush+0xc>
1000a4ea:	23a6      	movs	r3, #166	; 0xa6
1000a4ec:	009b      	lsls	r3, r3, #2
1000a4ee:	469c      	mov	ip, r3
1000a4f0:	4464      	add	r4, ip
1000a4f2:	19a4      	adds	r4, r4, r6
1000a4f4:	0021      	movs	r1, r4
1000a4f6:	0028      	movs	r0, r5
1000a4f8:	2240      	movs	r2, #64	; 0x40
1000a4fa:	f000 fb21 	bl	1000ab40 <tu_fifo_read_n>
1000a4fe:	78b9      	ldrb	r1, [r7, #2]
1000a500:	1e05      	subs	r5, r0, #0
1000a502:	d008      	beq.n	1000a516 <tud_cdc_n_write_flush+0x6a>
1000a504:	0003      	movs	r3, r0
1000a506:	0022      	movs	r2, r4
1000a508:	2000      	movs	r0, #0
1000a50a:	f7ff fe3d 	bl	1000a188 <usbd_edpt_xfer>
1000a50e:	2800      	cmp	r0, #0
1000a510:	d0d2      	beq.n	1000a4b8 <tud_cdc_n_write_flush+0xc>
1000a512:	0028      	movs	r0, r5
1000a514:	e7d1      	b.n	1000a4ba <tud_cdc_n_write_flush+0xe>
1000a516:	2000      	movs	r0, #0
1000a518:	f7ff fe10 	bl	1000a13c <usbd_edpt_release>
1000a51c:	e7cc      	b.n	1000a4b8 <tud_cdc_n_write_flush+0xc>
1000a51e:	46c0      	nop			; (mov r8, r8)
1000a520:	200008c8 	.word	0x200008c8

1000a524 <tud_cdc_n_write>:
1000a524:	b570      	push	{r4, r5, r6, lr}
1000a526:	24b6      	movs	r4, #182	; 0xb6
1000a528:	00a4      	lsls	r4, r4, #2
1000a52a:	4344      	muls	r4, r0
1000a52c:	4b09      	ldr	r3, [pc, #36]	; (1000a554 <tud_cdc_n_write+0x30>)
1000a52e:	342c      	adds	r4, #44	; 0x2c
1000a530:	18e4      	adds	r4, r4, r3
1000a532:	0005      	movs	r5, r0
1000a534:	b292      	uxth	r2, r2
1000a536:	0020      	movs	r0, r4
1000a538:	f000 fbc0 	bl	1000acbc <tu_fifo_write_n>
1000a53c:	0006      	movs	r6, r0
1000a53e:	0020      	movs	r0, r4
1000a540:	f000 fa8a 	bl	1000aa58 <tu_fifo_count>
1000a544:	283f      	cmp	r0, #63	; 0x3f
1000a546:	d801      	bhi.n	1000a54c <tud_cdc_n_write+0x28>
1000a548:	0030      	movs	r0, r6
1000a54a:	bd70      	pop	{r4, r5, r6, pc}
1000a54c:	0028      	movs	r0, r5
1000a54e:	f7ff ffad 	bl	1000a4ac <tud_cdc_n_write_flush>
1000a552:	e7f9      	b.n	1000a548 <tud_cdc_n_write+0x24>
1000a554:	200008c8 	.word	0x200008c8

1000a558 <tud_cdc_n_write_available>:
1000a558:	23b6      	movs	r3, #182	; 0xb6
1000a55a:	009b      	lsls	r3, r3, #2
1000a55c:	4358      	muls	r0, r3
1000a55e:	b510      	push	{r4, lr}
1000a560:	4b02      	ldr	r3, [pc, #8]	; (1000a56c <tud_cdc_n_write_available+0x14>)
1000a562:	302c      	adds	r0, #44	; 0x2c
1000a564:	18c0      	adds	r0, r0, r3
1000a566:	f000 fa8f 	bl	1000aa88 <tu_fifo_remaining>
1000a56a:	bd10      	pop	{r4, pc}
1000a56c:	200008c8 	.word	0x200008c8

1000a570 <cdcd_init>:
1000a570:	22b6      	movs	r2, #182	; 0xb6
1000a572:	b5f0      	push	{r4, r5, r6, r7, lr}
1000a574:	4c1b      	ldr	r4, [pc, #108]	; (1000a5e4 <cdcd_init+0x74>)
1000a576:	b083      	sub	sp, #12
1000a578:	2100      	movs	r1, #0
1000a57a:	0020      	movs	r0, r4
1000a57c:	0092      	lsls	r2, r2, #2
1000a57e:	f7fd ff1d 	bl	100083bc <__wrap_memset>
1000a582:	23ff      	movs	r3, #255	; 0xff
1000a584:	7163      	strb	r3, [r4, #5]
1000a586:	4b18      	ldr	r3, [pc, #96]	; (1000a5e8 <cdcd_init+0x78>)
1000a588:	2680      	movs	r6, #128	; 0x80
1000a58a:	2500      	movs	r5, #0
1000a58c:	80e3      	strh	r3, [r4, #6]
1000a58e:	2701      	movs	r7, #1
1000a590:	2308      	movs	r3, #8
1000a592:	0021      	movs	r1, r4
1000a594:	0020      	movs	r0, r4
1000a596:	0076      	lsls	r6, r6, #1
1000a598:	7323      	strb	r3, [r4, #12]
1000a59a:	0032      	movs	r2, r6
1000a59c:	8127      	strh	r7, [r4, #8]
1000a59e:	3148      	adds	r1, #72	; 0x48
1000a5a0:	9500      	str	r5, [sp, #0]
1000a5a2:	3b07      	subs	r3, #7
1000a5a4:	3010      	adds	r0, #16
1000a5a6:	f000 fa1b 	bl	1000a9e0 <tu_fifo_config>
1000a5aa:	0021      	movs	r1, r4
1000a5ac:	0020      	movs	r0, r4
1000a5ae:	3149      	adds	r1, #73	; 0x49
1000a5b0:	0032      	movs	r2, r6
1000a5b2:	31ff      	adds	r1, #255	; 0xff
1000a5b4:	2301      	movs	r3, #1
1000a5b6:	9700      	str	r7, [sp, #0]
1000a5b8:	302c      	adds	r0, #44	; 0x2c
1000a5ba:	f000 fa11 	bl	1000a9e0 <tu_fifo_config>
1000a5be:	2392      	movs	r3, #146	; 0x92
1000a5c0:	009b      	lsls	r3, r3, #2
1000a5c2:	18e6      	adds	r6, r4, r3
1000a5c4:	0030      	movs	r0, r6
1000a5c6:	f7fb f8e3 	bl	10005790 <mutex_init>
1000a5ca:	2394      	movs	r3, #148	; 0x94
1000a5cc:	009b      	lsls	r3, r3, #2
1000a5ce:	62a6      	str	r6, [r4, #40]	; 0x28
1000a5d0:	18e6      	adds	r6, r4, r3
1000a5d2:	0030      	movs	r0, r6
1000a5d4:	6265      	str	r5, [r4, #36]	; 0x24
1000a5d6:	f7fb f8db 	bl	10005790 <mutex_init>
1000a5da:	6426      	str	r6, [r4, #64]	; 0x40
1000a5dc:	6465      	str	r5, [r4, #68]	; 0x44
1000a5de:	b003      	add	sp, #12
1000a5e0:	bdf0      	pop	{r4, r5, r6, r7, pc}
1000a5e2:	46c0      	nop			; (mov r8, r8)
1000a5e4:	200008c8 	.word	0x200008c8
1000a5e8:	ffffc200 	.word	0xffffc200

1000a5ec <cdcd_reset>:
1000a5ec:	b510      	push	{r4, lr}
1000a5ee:	4c09      	ldr	r4, [pc, #36]	; (1000a614 <cdcd_reset+0x28>)
1000a5f0:	2205      	movs	r2, #5
1000a5f2:	2100      	movs	r1, #0
1000a5f4:	0020      	movs	r0, r4
1000a5f6:	f7fd fee1 	bl	100083bc <__wrap_memset>
1000a5fa:	0020      	movs	r0, r4
1000a5fc:	342c      	adds	r4, #44	; 0x2c
1000a5fe:	3010      	adds	r0, #16
1000a600:	f000 fbdc 	bl	1000adbc <tu_fifo_clear>
1000a604:	0020      	movs	r0, r4
1000a606:	f000 fbd9 	bl	1000adbc <tu_fifo_clear>
1000a60a:	2101      	movs	r1, #1
1000a60c:	0020      	movs	r0, r4
1000a60e:	f000 fbfb 	bl	1000ae08 <tu_fifo_set_overwritable>
1000a612:	bd10      	pop	{r4, pc}
1000a614:	200008c8 	.word	0x200008c8

1000a618 <cdcd_open>:
1000a618:	b5f0      	push	{r4, r5, r6, r7, lr}
1000a61a:	794b      	ldrb	r3, [r1, #5]
1000a61c:	0006      	movs	r6, r0
1000a61e:	b083      	sub	sp, #12
1000a620:	2b02      	cmp	r3, #2
1000a622:	d102      	bne.n	1000a62a <cdcd_open+0x12>
1000a624:	798b      	ldrb	r3, [r1, #6]
1000a626:	2b02      	cmp	r3, #2
1000a628:	d003      	beq.n	1000a632 <cdcd_open+0x1a>
1000a62a:	2500      	movs	r5, #0
1000a62c:	0028      	movs	r0, r5
1000a62e:	b003      	add	sp, #12
1000a630:	bdf0      	pop	{r4, r5, r6, r7, pc}
1000a632:	4f2f      	ldr	r7, [pc, #188]	; (1000a6f0 <cdcd_open+0xd8>)
1000a634:	78bb      	ldrb	r3, [r7, #2]
1000a636:	2b00      	cmp	r3, #0
1000a638:	d1f7      	bne.n	1000a62a <cdcd_open+0x12>
1000a63a:	788b      	ldrb	r3, [r1, #2]
1000a63c:	2509      	movs	r5, #9
1000a63e:	703b      	strb	r3, [r7, #0]
1000a640:	780c      	ldrb	r4, [r1, #0]
1000a642:	190c      	adds	r4, r1, r4
1000a644:	7863      	ldrb	r3, [r4, #1]
1000a646:	2b24      	cmp	r3, #36	; 0x24
1000a648:	d10b      	bne.n	1000a662 <cdcd_open+0x4a>
1000a64a:	2a08      	cmp	r2, #8
1000a64c:	d802      	bhi.n	1000a654 <cdcd_open+0x3c>
1000a64e:	e00f      	b.n	1000a670 <cdcd_open+0x58>
1000a650:	42aa      	cmp	r2, r5
1000a652:	d30d      	bcc.n	1000a670 <cdcd_open+0x58>
1000a654:	7823      	ldrb	r3, [r4, #0]
1000a656:	18e4      	adds	r4, r4, r3
1000a658:	18ed      	adds	r5, r5, r3
1000a65a:	7863      	ldrb	r3, [r4, #1]
1000a65c:	b2ad      	uxth	r5, r5
1000a65e:	2b24      	cmp	r3, #36	; 0x24
1000a660:	d0f6      	beq.n	1000a650 <cdcd_open+0x38>
1000a662:	2b05      	cmp	r3, #5
1000a664:	d020      	beq.n	1000a6a8 <cdcd_open+0x90>
1000a666:	2b04      	cmp	r3, #4
1000a668:	d102      	bne.n	1000a670 <cdcd_open+0x58>
1000a66a:	7963      	ldrb	r3, [r4, #5]
1000a66c:	2b0a      	cmp	r3, #10
1000a66e:	d02e      	beq.n	1000a6ce <cdcd_open+0xb6>
1000a670:	4c20      	ldr	r4, [pc, #128]	; (1000a6f4 <cdcd_open+0xdc>)
1000a672:	0020      	movs	r0, r4
1000a674:	f000 fa08 	bl	1000aa88 <tu_fifo_remaining>
1000a678:	283f      	cmp	r0, #63	; 0x3f
1000a67a:	d9d7      	bls.n	1000a62c <cdcd_open+0x14>
1000a67c:	0026      	movs	r6, r4
1000a67e:	3e10      	subs	r6, #16
1000a680:	2000      	movs	r0, #0
1000a682:	78f1      	ldrb	r1, [r6, #3]
1000a684:	f7ff fd28 	bl	1000a0d8 <usbd_edpt_claim>
1000a688:	2800      	cmp	r0, #0
1000a68a:	d0cf      	beq.n	1000a62c <cdcd_open+0x14>
1000a68c:	0020      	movs	r0, r4
1000a68e:	f000 f9fb 	bl	1000aa88 <tu_fifo_remaining>
1000a692:	283f      	cmp	r0, #63	; 0x3f
1000a694:	d916      	bls.n	1000a6c4 <cdcd_open+0xac>
1000a696:	2392      	movs	r3, #146	; 0x92
1000a698:	009b      	lsls	r3, r3, #2
1000a69a:	18e2      	adds	r2, r4, r3
1000a69c:	78f1      	ldrb	r1, [r6, #3]
1000a69e:	2340      	movs	r3, #64	; 0x40
1000a6a0:	2000      	movs	r0, #0
1000a6a2:	f7ff fd71 	bl	1000a188 <usbd_edpt_xfer>
1000a6a6:	e7c1      	b.n	1000a62c <cdcd_open+0x14>
1000a6a8:	0021      	movs	r1, r4
1000a6aa:	0030      	movs	r0, r6
1000a6ac:	f7ff fcfc 	bl	1000a0a8 <usbd_edpt_open>
1000a6b0:	2800      	cmp	r0, #0
1000a6b2:	d0ba      	beq.n	1000a62a <cdcd_open+0x12>
1000a6b4:	78a3      	ldrb	r3, [r4, #2]
1000a6b6:	707b      	strb	r3, [r7, #1]
1000a6b8:	7823      	ldrb	r3, [r4, #0]
1000a6ba:	18ed      	adds	r5, r5, r3
1000a6bc:	18e4      	adds	r4, r4, r3
1000a6be:	7863      	ldrb	r3, [r4, #1]
1000a6c0:	b2ad      	uxth	r5, r5
1000a6c2:	e7d0      	b.n	1000a666 <cdcd_open+0x4e>
1000a6c4:	78f1      	ldrb	r1, [r6, #3]
1000a6c6:	2000      	movs	r0, #0
1000a6c8:	f7ff fd38 	bl	1000a13c <usbd_edpt_release>
1000a6cc:	e7ae      	b.n	1000a62c <cdcd_open+0x14>
1000a6ce:	4b0a      	ldr	r3, [pc, #40]	; (1000a6f8 <cdcd_open+0xe0>)
1000a6d0:	7827      	ldrb	r7, [r4, #0]
1000a6d2:	9301      	str	r3, [sp, #4]
1000a6d4:	3301      	adds	r3, #1
1000a6d6:	9300      	str	r3, [sp, #0]
1000a6d8:	2202      	movs	r2, #2
1000a6da:	2302      	movs	r3, #2
1000a6dc:	0030      	movs	r0, r6
1000a6de:	19e1      	adds	r1, r4, r7
1000a6e0:	f7ff fca2 	bl	1000a028 <usbd_open_edpt_pair>
1000a6e4:	2800      	cmp	r0, #0
1000a6e6:	d0a0      	beq.n	1000a62a <cdcd_open+0x12>
1000a6e8:	350e      	adds	r5, #14
1000a6ea:	19ed      	adds	r5, r5, r7
1000a6ec:	b2ad      	uxth	r5, r5
1000a6ee:	e7bf      	b.n	1000a670 <cdcd_open+0x58>
1000a6f0:	200008c8 	.word	0x200008c8
1000a6f4:	200008d8 	.word	0x200008d8
1000a6f8:	200008ca 	.word	0x200008ca

1000a6fc <cdcd_control_xfer_cb>:
1000a6fc:	b5f8      	push	{r3, r4, r5, r6, r7, lr}
1000a6fe:	2360      	movs	r3, #96	; 0x60
1000a700:	0014      	movs	r4, r2
1000a702:	7812      	ldrb	r2, [r2, #0]
1000a704:	0005      	movs	r5, r0
1000a706:	4013      	ands	r3, r2
1000a708:	2000      	movs	r0, #0
1000a70a:	2b20      	cmp	r3, #32
1000a70c:	d112      	bne.n	1000a734 <cdcd_control_xfer_cb+0x38>
1000a70e:	4a2f      	ldr	r2, [pc, #188]	; (1000a7cc <cdcd_control_xfer_cb+0xd0>)
1000a710:	7963      	ldrb	r3, [r4, #5]
1000a712:	7927      	ldrb	r7, [r4, #4]
1000a714:	7816      	ldrb	r6, [r2, #0]
1000a716:	021b      	lsls	r3, r3, #8
1000a718:	433b      	orrs	r3, r7
1000a71a:	429e      	cmp	r6, r3
1000a71c:	d10a      	bne.n	1000a734 <cdcd_control_xfer_cb+0x38>
1000a71e:	7863      	ldrb	r3, [r4, #1]
1000a720:	2b22      	cmp	r3, #34	; 0x22
1000a722:	d027      	beq.n	1000a774 <cdcd_control_xfer_cb+0x78>
1000a724:	d807      	bhi.n	1000a736 <cdcd_control_xfer_cb+0x3a>
1000a726:	2b20      	cmp	r3, #32
1000a728:	d017      	beq.n	1000a75a <cdcd_control_xfer_cb+0x5e>
1000a72a:	2b21      	cmp	r3, #33	; 0x21
1000a72c:	d102      	bne.n	1000a734 <cdcd_control_xfer_cb+0x38>
1000a72e:	2900      	cmp	r1, #0
1000a730:	d03d      	beq.n	1000a7ae <cdcd_control_xfer_cb+0xb2>
1000a732:	2001      	movs	r0, #1
1000a734:	bdf8      	pop	{r3, r4, r5, r6, r7, pc}
1000a736:	2b23      	cmp	r3, #35	; 0x23
1000a738:	d1fc      	bne.n	1000a734 <cdcd_control_xfer_cb+0x38>
1000a73a:	2900      	cmp	r1, #0
1000a73c:	d03f      	beq.n	1000a7be <cdcd_control_xfer_cb+0xc2>
1000a73e:	2902      	cmp	r1, #2
1000a740:	d1f7      	bne.n	1000a732 <cdcd_control_xfer_cb+0x36>
1000a742:	4b23      	ldr	r3, [pc, #140]	; (1000a7d0 <cdcd_control_xfer_cb+0xd4>)
1000a744:	2b00      	cmp	r3, #0
1000a746:	d0f4      	beq.n	1000a732 <cdcd_control_xfer_cb+0x36>
1000a748:	78e1      	ldrb	r1, [r4, #3]
1000a74a:	78a3      	ldrb	r3, [r4, #2]
1000a74c:	0209      	lsls	r1, r1, #8
1000a74e:	2000      	movs	r0, #0
1000a750:	4319      	orrs	r1, r3
1000a752:	e000      	b.n	1000a756 <cdcd_control_xfer_cb+0x5a>
1000a754:	bf00      	nop
1000a756:	2001      	movs	r0, #1
1000a758:	e7ec      	b.n	1000a734 <cdcd_control_xfer_cb+0x38>
1000a75a:	2900      	cmp	r1, #0
1000a75c:	d027      	beq.n	1000a7ae <cdcd_control_xfer_cb+0xb2>
1000a75e:	2902      	cmp	r1, #2
1000a760:	d1e7      	bne.n	1000a732 <cdcd_control_xfer_cb+0x36>
1000a762:	4b1c      	ldr	r3, [pc, #112]	; (1000a7d4 <cdcd_control_xfer_cb+0xd8>)
1000a764:	2b00      	cmp	r3, #0
1000a766:	d0e4      	beq.n	1000a732 <cdcd_control_xfer_cb+0x36>
1000a768:	2000      	movs	r0, #0
1000a76a:	1d91      	adds	r1, r2, #6
1000a76c:	f7fd fff2 	bl	10008754 <tud_cdc_line_coding_cb>
1000a770:	2001      	movs	r0, #1
1000a772:	e7df      	b.n	1000a734 <cdcd_control_xfer_cb+0x38>
1000a774:	2900      	cmp	r1, #0
1000a776:	d022      	beq.n	1000a7be <cdcd_control_xfer_cb+0xc2>
1000a778:	2902      	cmp	r1, #2
1000a77a:	d1da      	bne.n	1000a732 <cdcd_control_xfer_cb+0x36>
1000a77c:	2501      	movs	r5, #1
1000a77e:	002e      	movs	r6, r5
1000a780:	78a3      	ldrb	r3, [r4, #2]
1000a782:	78e4      	ldrb	r4, [r4, #3]
1000a784:	3901      	subs	r1, #1
1000a786:	0224      	lsls	r4, r4, #8
1000a788:	431c      	orrs	r4, r3
1000a78a:	7114      	strb	r4, [r2, #4]
1000a78c:	4026      	ands	r6, r4
1000a78e:	322c      	adds	r2, #44	; 0x2c
1000a790:	0010      	movs	r0, r2
1000a792:	4071      	eors	r1, r6
1000a794:	f000 fb38 	bl	1000ae08 <tu_fifo_set_overwritable>
1000a798:	4b0f      	ldr	r3, [pc, #60]	; (1000a7d8 <cdcd_control_xfer_cb+0xdc>)
1000a79a:	2b00      	cmp	r3, #0
1000a79c:	d0c9      	beq.n	1000a732 <cdcd_control_xfer_cb+0x36>
1000a79e:	0862      	lsrs	r2, r4, #1
1000a7a0:	2000      	movs	r0, #0
1000a7a2:	0031      	movs	r1, r6
1000a7a4:	402a      	ands	r2, r5
1000a7a6:	e000      	b.n	1000a7aa <cdcd_control_xfer_cb+0xae>
1000a7a8:	bf00      	nop
1000a7aa:	2001      	movs	r0, #1
1000a7ac:	e7c2      	b.n	1000a734 <cdcd_control_xfer_cb+0x38>
1000a7ae:	2307      	movs	r3, #7
1000a7b0:	0021      	movs	r1, r4
1000a7b2:	0028      	movs	r0, r5
1000a7b4:	4a09      	ldr	r2, [pc, #36]	; (1000a7dc <cdcd_control_xfer_cb+0xe0>)
1000a7b6:	f7ff fd23 	bl	1000a200 <tud_control_xfer>
1000a7ba:	2001      	movs	r0, #1
1000a7bc:	e7ba      	b.n	1000a734 <cdcd_control_xfer_cb+0x38>
1000a7be:	0021      	movs	r1, r4
1000a7c0:	0028      	movs	r0, r5
1000a7c2:	f7ff fd05 	bl	1000a1d0 <tud_control_status>
1000a7c6:	2001      	movs	r0, #1
1000a7c8:	e7b4      	b.n	1000a734 <cdcd_control_xfer_cb+0x38>
1000a7ca:	46c0      	nop			; (mov r8, r8)
1000a7cc:	200008c8 	.word	0x200008c8
1000a7d0:	00000000 	.word	0x00000000
1000a7d4:	10008755 	.word	0x10008755
1000a7d8:	00000000 	.word	0x00000000
1000a7dc:	200008ce 	.word	0x200008ce

1000a7e0 <cdcd_xfer_cb>:
1000a7e0:	b5f8      	push	{r3, r4, r5, r6, r7, lr}
1000a7e2:	4657      	mov	r7, sl
1000a7e4:	464e      	mov	r6, r9
1000a7e6:	4645      	mov	r5, r8
1000a7e8:	46de      	mov	lr, fp
1000a7ea:	b5e0      	push	{r5, r6, r7, lr}
1000a7ec:	4f49      	ldr	r7, [pc, #292]	; (1000a914 <cdcd_xfer_cb+0x134>)
1000a7ee:	4680      	mov	r8, r0
1000a7f0:	78fa      	ldrb	r2, [r7, #3]
1000a7f2:	000c      	movs	r4, r1
1000a7f4:	001e      	movs	r6, r3
1000a7f6:	428a      	cmp	r2, r1
1000a7f8:	d164      	bne.n	1000a8c4 <cdcd_xfer_cb+0xe4>
1000a7fa:	b29a      	uxth	r2, r3
1000a7fc:	2396      	movs	r3, #150	; 0x96
1000a7fe:	009b      	lsls	r3, r3, #2
1000a800:	18fd      	adds	r5, r7, r3
1000a802:	2310      	movs	r3, #16
1000a804:	469b      	mov	fp, r3
1000a806:	44bb      	add	fp, r7
1000a808:	0029      	movs	r1, r5
1000a80a:	4658      	mov	r0, fp
1000a80c:	f000 fa56 	bl	1000acbc <tu_fifo_write_n>
1000a810:	4b41      	ldr	r3, [pc, #260]	; (1000a918 <cdcd_xfer_cb+0x138>)
1000a812:	46d9      	mov	r9, fp
1000a814:	2b00      	cmp	r3, #0
1000a816:	d018      	beq.n	1000a84a <cdcd_xfer_cb+0x6a>
1000a818:	797b      	ldrb	r3, [r7, #5]
1000a81a:	46d9      	mov	r9, fp
1000a81c:	2bff      	cmp	r3, #255	; 0xff
1000a81e:	d014      	beq.n	1000a84a <cdcd_xfer_cb+0x6a>
1000a820:	2e00      	cmp	r6, #0
1000a822:	d012      	beq.n	1000a84a <cdcd_xfer_cb+0x6a>
1000a824:	19aa      	adds	r2, r5, r6
1000a826:	4692      	mov	sl, r2
1000a828:	e003      	b.n	1000a832 <cdcd_xfer_cb+0x52>
1000a82a:	3501      	adds	r5, #1
1000a82c:	4555      	cmp	r5, sl
1000a82e:	d00c      	beq.n	1000a84a <cdcd_xfer_cb+0x6a>
1000a830:	797b      	ldrb	r3, [r7, #5]
1000a832:	782a      	ldrb	r2, [r5, #0]
1000a834:	429a      	cmp	r2, r3
1000a836:	d1f8      	bne.n	1000a82a <cdcd_xfer_cb+0x4a>
1000a838:	4648      	mov	r0, r9
1000a83a:	f000 f91d 	bl	1000aa78 <tu_fifo_empty>
1000a83e:	2800      	cmp	r0, #0
1000a840:	d1f3      	bne.n	1000a82a <cdcd_xfer_cb+0x4a>
1000a842:	7979      	ldrb	r1, [r7, #5]
1000a844:	e000      	b.n	1000a848 <cdcd_xfer_cb+0x68>
1000a846:	bf00      	nop
1000a848:	e7ef      	b.n	1000a82a <cdcd_xfer_cb+0x4a>
1000a84a:	4b34      	ldr	r3, [pc, #208]	; (1000a91c <cdcd_xfer_cb+0x13c>)
1000a84c:	2b00      	cmp	r3, #0
1000a84e:	d004      	beq.n	1000a85a <cdcd_xfer_cb+0x7a>
1000a850:	4648      	mov	r0, r9
1000a852:	f000 f911 	bl	1000aa78 <tu_fifo_empty>
1000a856:	2800      	cmp	r0, #0
1000a858:	d052      	beq.n	1000a900 <cdcd_xfer_cb+0x120>
1000a85a:	4648      	mov	r0, r9
1000a85c:	f000 f914 	bl	1000aa88 <tu_fifo_remaining>
1000a860:	283f      	cmp	r0, #63	; 0x3f
1000a862:	d834      	bhi.n	1000a8ce <cdcd_xfer_cb+0xee>
1000a864:	464a      	mov	r2, r9
1000a866:	3a10      	subs	r2, #16
1000a868:	7893      	ldrb	r3, [r2, #2]
1000a86a:	42a3      	cmp	r3, r4
1000a86c:	d007      	beq.n	1000a87e <cdcd_xfer_cb+0x9e>
1000a86e:	2401      	movs	r4, #1
1000a870:	0020      	movs	r0, r4
1000a872:	bcf0      	pop	{r4, r5, r6, r7}
1000a874:	46bb      	mov	fp, r7
1000a876:	46b2      	mov	sl, r6
1000a878:	46a9      	mov	r9, r5
1000a87a:	46a0      	mov	r8, r4
1000a87c:	bdf8      	pop	{r3, r4, r5, r6, r7, pc}
1000a87e:	4b28      	ldr	r3, [pc, #160]	; (1000a920 <cdcd_xfer_cb+0x140>)
1000a880:	2b00      	cmp	r3, #0
1000a882:	d002      	beq.n	1000a88a <cdcd_xfer_cb+0xaa>
1000a884:	2000      	movs	r0, #0
1000a886:	e000      	b.n	1000a88a <cdcd_xfer_cb+0xaa>
1000a888:	bf00      	nop
1000a88a:	2000      	movs	r0, #0
1000a88c:	f7ff fe0e 	bl	1000a4ac <tud_cdc_n_write_flush>
1000a890:	2800      	cmp	r0, #0
1000a892:	d1ec      	bne.n	1000a86e <cdcd_xfer_cb+0x8e>
1000a894:	4d23      	ldr	r5, [pc, #140]	; (1000a924 <cdcd_xfer_cb+0x144>)
1000a896:	0028      	movs	r0, r5
1000a898:	f000 f8de 	bl	1000aa58 <tu_fifo_count>
1000a89c:	2800      	cmp	r0, #0
1000a89e:	d1e6      	bne.n	1000a86e <cdcd_xfer_cb+0x8e>
1000a8a0:	2e00      	cmp	r6, #0
1000a8a2:	d0e4      	beq.n	1000a86e <cdcd_xfer_cb+0x8e>
1000a8a4:	06b3      	lsls	r3, r6, #26
1000a8a6:	d1e2      	bne.n	1000a86e <cdcd_xfer_cb+0x8e>
1000a8a8:	3d2c      	subs	r5, #44	; 0x2c
1000a8aa:	4640      	mov	r0, r8
1000a8ac:	78a9      	ldrb	r1, [r5, #2]
1000a8ae:	f7ff fc13 	bl	1000a0d8 <usbd_edpt_claim>
1000a8b2:	1e04      	subs	r4, r0, #0
1000a8b4:	d0db      	beq.n	1000a86e <cdcd_xfer_cb+0x8e>
1000a8b6:	2300      	movs	r3, #0
1000a8b8:	2200      	movs	r2, #0
1000a8ba:	4640      	mov	r0, r8
1000a8bc:	78a9      	ldrb	r1, [r5, #2]
1000a8be:	f7ff fc63 	bl	1000a188 <usbd_edpt_xfer>
1000a8c2:	e7d5      	b.n	1000a870 <cdcd_xfer_cb+0x90>
1000a8c4:	78bb      	ldrb	r3, [r7, #2]
1000a8c6:	428b      	cmp	r3, r1
1000a8c8:	d0d9      	beq.n	1000a87e <cdcd_xfer_cb+0x9e>
1000a8ca:	2400      	movs	r4, #0
1000a8cc:	e7d0      	b.n	1000a870 <cdcd_xfer_cb+0x90>
1000a8ce:	464d      	mov	r5, r9
1000a8d0:	3d10      	subs	r5, #16
1000a8d2:	2000      	movs	r0, #0
1000a8d4:	78e9      	ldrb	r1, [r5, #3]
1000a8d6:	f7ff fbff 	bl	1000a0d8 <usbd_edpt_claim>
1000a8da:	2800      	cmp	r0, #0
1000a8dc:	d101      	bne.n	1000a8e2 <cdcd_xfer_cb+0x102>
1000a8de:	78ab      	ldrb	r3, [r5, #2]
1000a8e0:	e7c3      	b.n	1000a86a <cdcd_xfer_cb+0x8a>
1000a8e2:	4648      	mov	r0, r9
1000a8e4:	f000 f8d0 	bl	1000aa88 <tu_fifo_remaining>
1000a8e8:	283f      	cmp	r0, #63	; 0x3f
1000a8ea:	d90c      	bls.n	1000a906 <cdcd_xfer_cb+0x126>
1000a8ec:	2292      	movs	r2, #146	; 0x92
1000a8ee:	0092      	lsls	r2, r2, #2
1000a8f0:	2340      	movs	r3, #64	; 0x40
1000a8f2:	2000      	movs	r0, #0
1000a8f4:	78e9      	ldrb	r1, [r5, #3]
1000a8f6:	444a      	add	r2, r9
1000a8f8:	f7ff fc46 	bl	1000a188 <usbd_edpt_xfer>
1000a8fc:	78ab      	ldrb	r3, [r5, #2]
1000a8fe:	e7b4      	b.n	1000a86a <cdcd_xfer_cb+0x8a>
1000a900:	e000      	b.n	1000a904 <cdcd_xfer_cb+0x124>
1000a902:	bf00      	nop
1000a904:	e7a9      	b.n	1000a85a <cdcd_xfer_cb+0x7a>
1000a906:	2000      	movs	r0, #0
1000a908:	78e9      	ldrb	r1, [r5, #3]
1000a90a:	f7ff fc17 	bl	1000a13c <usbd_edpt_release>
1000a90e:	78ab      	ldrb	r3, [r5, #2]
1000a910:	e7ab      	b.n	1000a86a <cdcd_xfer_cb+0x8a>
1000a912:	46c0      	nop			; (mov r8, r8)
1000a914:	200008c8 	.word	0x200008c8
	...
1000a924:	200008f4 	.word	0x200008f4

1000a928 <tusb_init>:
1000a928:	b510      	push	{r4, lr}
1000a92a:	2000      	movs	r0, #0
1000a92c:	f7fe fd84 	bl	10009438 <tud_init>
1000a930:	bd10      	pop	{r4, pc}
1000a932:	46c0      	nop			; (mov r8, r8)

1000a934 <tusb_inited>:
1000a934:	b510      	push	{r4, lr}
1000a936:	f7fe fd79 	bl	1000942c <tud_inited>
1000a93a:	bd10      	pop	{r4, pc}

1000a93c <tu_edpt_validate>:
1000a93c:	2207      	movs	r2, #7
1000a93e:	b510      	push	{r4, lr}
1000a940:	7944      	ldrb	r4, [r0, #5]
1000a942:	7903      	ldrb	r3, [r0, #4]
1000a944:	4022      	ands	r2, r4
1000a946:	0212      	lsls	r2, r2, #8
1000a948:	431a      	orrs	r2, r3
1000a94a:	78c3      	ldrb	r3, [r0, #3]
1000a94c:	079b      	lsls	r3, r3, #30
1000a94e:	0f9b      	lsrs	r3, r3, #30
1000a950:	2b02      	cmp	r3, #2
1000a952:	d005      	beq.n	1000a960 <tu_edpt_validate+0x24>
1000a954:	2b03      	cmp	r3, #3
1000a956:	d015      	beq.n	1000a984 <tu_edpt_validate+0x48>
1000a958:	2000      	movs	r0, #0
1000a95a:	2b01      	cmp	r3, #1
1000a95c:	d008      	beq.n	1000a970 <tu_edpt_validate+0x34>
1000a95e:	bd10      	pop	{r4, pc}
1000a960:	2902      	cmp	r1, #2
1000a962:	d01c      	beq.n	1000a99e <tu_edpt_validate+0x62>
1000a964:	2000      	movs	r0, #0
1000a966:	2340      	movs	r3, #64	; 0x40
1000a968:	4293      	cmp	r3, r2
1000a96a:	4140      	adcs	r0, r0
1000a96c:	b2c0      	uxtb	r0, r0
1000a96e:	e7f6      	b.n	1000a95e <tu_edpt_validate+0x22>
1000a970:	3902      	subs	r1, #2
1000a972:	424b      	negs	r3, r1
1000a974:	4159      	adcs	r1, r3
1000a976:	4b0d      	ldr	r3, [pc, #52]	; (1000a9ac <tu_edpt_validate+0x70>)
1000a978:	469c      	mov	ip, r3
1000a97a:	4461      	add	r1, ip
1000a97c:	4291      	cmp	r1, r2
1000a97e:	4140      	adcs	r0, r0
1000a980:	b2c0      	uxtb	r0, r0
1000a982:	e7ec      	b.n	1000a95e <tu_edpt_validate+0x22>
1000a984:	3902      	subs	r1, #2
1000a986:	424b      	negs	r3, r1
1000a988:	4159      	adcs	r1, r3
1000a98a:	23f0      	movs	r3, #240	; 0xf0
1000a98c:	2000      	movs	r0, #0
1000a98e:	4249      	negs	r1, r1
1000a990:	009b      	lsls	r3, r3, #2
1000a992:	4019      	ands	r1, r3
1000a994:	3140      	adds	r1, #64	; 0x40
1000a996:	4291      	cmp	r1, r2
1000a998:	4140      	adcs	r0, r0
1000a99a:	b2c0      	uxtb	r0, r0
1000a99c:	e7df      	b.n	1000a95e <tu_edpt_validate+0x22>
1000a99e:	4b04      	ldr	r3, [pc, #16]	; (1000a9b0 <tu_edpt_validate+0x74>)
1000a9a0:	469c      	mov	ip, r3
1000a9a2:	4462      	add	r2, ip
1000a9a4:	4253      	negs	r3, r2
1000a9a6:	415a      	adcs	r2, r3
1000a9a8:	b2d0      	uxtb	r0, r2
1000a9aa:	e7d8      	b.n	1000a95e <tu_edpt_validate+0x22>
1000a9ac:	000003ff 	.word	0x000003ff
1000a9b0:	fffffe00 	.word	0xfffffe00

1000a9b4 <tu_edpt_bind_driver>:
1000a9b4:	b5f0      	push	{r4, r5, r6, r7, lr}
1000a9b6:	2a00      	cmp	r2, #0
1000a9b8:	d011      	beq.n	1000a9de <tu_edpt_bind_driver+0x2a>
1000a9ba:	2400      	movs	r4, #0
1000a9bc:	277f      	movs	r7, #127	; 0x7f
1000a9be:	784d      	ldrb	r5, [r1, #1]
1000a9c0:	2d05      	cmp	r5, #5
1000a9c2:	d106      	bne.n	1000a9d2 <tu_edpt_bind_driver+0x1e>
1000a9c4:	003d      	movs	r5, r7
1000a9c6:	788e      	ldrb	r6, [r1, #2]
1000a9c8:	4035      	ands	r5, r6
1000a9ca:	006d      	lsls	r5, r5, #1
1000a9cc:	09f6      	lsrs	r6, r6, #7
1000a9ce:	1945      	adds	r5, r0, r5
1000a9d0:	55ab      	strb	r3, [r5, r6]
1000a9d2:	780d      	ldrb	r5, [r1, #0]
1000a9d4:	1964      	adds	r4, r4, r5
1000a9d6:	b2a4      	uxth	r4, r4
1000a9d8:	1949      	adds	r1, r1, r5
1000a9da:	42a2      	cmp	r2, r4
1000a9dc:	d8ef      	bhi.n	1000a9be <tu_edpt_bind_driver+0xa>
1000a9de:	bdf0      	pop	{r4, r5, r6, r7, pc}

1000a9e0 <tu_fifo_config>:
1000a9e0:	b5f0      	push	{r4, r5, r6, r7, lr}
1000a9e2:	46c6      	mov	lr, r8
1000a9e4:	b500      	push	{lr}
1000a9e6:	0015      	movs	r5, r2
1000a9e8:	aa06      	add	r2, sp, #24
1000a9ea:	001e      	movs	r6, r3
1000a9ec:	7813      	ldrb	r3, [r2, #0]
1000a9ee:	2280      	movs	r2, #128	; 0x80
1000a9f0:	0004      	movs	r4, r0
1000a9f2:	000f      	movs	r7, r1
1000a9f4:	4698      	mov	r8, r3
1000a9f6:	0212      	lsls	r2, r2, #8
1000a9f8:	4295      	cmp	r5, r2
1000a9fa:	d82a      	bhi.n	1000aa52 <tu_fifo_config+0x72>
1000a9fc:	6940      	ldr	r0, [r0, #20]
1000a9fe:	2800      	cmp	r0, #0
1000aa00:	d003      	beq.n	1000aa0a <tu_fifo_config+0x2a>
1000aa02:	2101      	movs	r1, #1
1000aa04:	4249      	negs	r1, r1
1000aa06:	f000 fc0b 	bl	1000b220 <__mutex_enter_timeout_ms_veneer>
1000aa0a:	69a0      	ldr	r0, [r4, #24]
1000aa0c:	2800      	cmp	r0, #0
1000aa0e:	d003      	beq.n	1000aa18 <tu_fifo_config+0x38>
1000aa10:	2101      	movs	r1, #1
1000aa12:	4249      	negs	r1, r1
1000aa14:	f000 fc04 	bl	1000b220 <__mutex_enter_timeout_ms_veneer>
1000aa18:	4643      	mov	r3, r8
1000aa1a:	80a5      	strh	r5, [r4, #4]
1000aa1c:	006d      	lsls	r5, r5, #1
1000aa1e:	b2ad      	uxth	r5, r5
1000aa20:	7223      	strb	r3, [r4, #8]
1000aa22:	1e6b      	subs	r3, r5, #1
1000aa24:	81a3      	strh	r3, [r4, #12]
1000aa26:	2300      	movs	r3, #0
1000aa28:	6960      	ldr	r0, [r4, #20]
1000aa2a:	426d      	negs	r5, r5
1000aa2c:	81e3      	strh	r3, [r4, #14]
1000aa2e:	6027      	str	r7, [r4, #0]
1000aa30:	80e6      	strh	r6, [r4, #6]
1000aa32:	8165      	strh	r5, [r4, #10]
1000aa34:	8223      	strh	r3, [r4, #16]
1000aa36:	2800      	cmp	r0, #0
1000aa38:	d001      	beq.n	1000aa3e <tu_fifo_config+0x5e>
1000aa3a:	f000 fbd1 	bl	1000b1e0 <__mutex_exit_veneer>
1000aa3e:	69a0      	ldr	r0, [r4, #24]
1000aa40:	2401      	movs	r4, #1
1000aa42:	2800      	cmp	r0, #0
1000aa44:	d001      	beq.n	1000aa4a <tu_fifo_config+0x6a>
1000aa46:	f000 fbcb 	bl	1000b1e0 <__mutex_exit_veneer>
1000aa4a:	0020      	movs	r0, r4
1000aa4c:	bc80      	pop	{r7}
1000aa4e:	46b8      	mov	r8, r7
1000aa50:	bdf0      	pop	{r4, r5, r6, r7, pc}
1000aa52:	2400      	movs	r4, #0
1000aa54:	e7f9      	b.n	1000aa4a <tu_fifo_config+0x6a>
1000aa56:	46c0      	nop			; (mov r8, r8)

1000aa58 <tu_fifo_count>:
1000aa58:	89c1      	ldrh	r1, [r0, #14]
1000aa5a:	8a02      	ldrh	r2, [r0, #16]
1000aa5c:	1a8b      	subs	r3, r1, r2
1000aa5e:	b29b      	uxth	r3, r3
1000aa60:	4291      	cmp	r1, r2
1000aa62:	d202      	bcs.n	1000aa6a <tu_fifo_count+0x12>
1000aa64:	8942      	ldrh	r2, [r0, #10]
1000aa66:	1a9b      	subs	r3, r3, r2
1000aa68:	b29b      	uxth	r3, r3
1000aa6a:	8882      	ldrh	r2, [r0, #4]
1000aa6c:	1c10      	adds	r0, r2, #0
1000aa6e:	429a      	cmp	r2, r3
1000aa70:	d900      	bls.n	1000aa74 <tu_fifo_count+0x1c>
1000aa72:	1c18      	adds	r0, r3, #0
1000aa74:	b280      	uxth	r0, r0
1000aa76:	4770      	bx	lr

1000aa78 <tu_fifo_empty>:
1000aa78:	0003      	movs	r3, r0
1000aa7a:	89c0      	ldrh	r0, [r0, #14]
1000aa7c:	8a1b      	ldrh	r3, [r3, #16]
1000aa7e:	1ac0      	subs	r0, r0, r3
1000aa80:	4243      	negs	r3, r0
1000aa82:	4158      	adcs	r0, r3
1000aa84:	b2c0      	uxtb	r0, r0
1000aa86:	4770      	bx	lr

1000aa88 <tu_fifo_remaining>:
1000aa88:	b510      	push	{r4, lr}
1000aa8a:	89c4      	ldrh	r4, [r0, #14]
1000aa8c:	8a01      	ldrh	r1, [r0, #16]
1000aa8e:	8883      	ldrh	r3, [r0, #4]
1000aa90:	1a62      	subs	r2, r4, r1
1000aa92:	b292      	uxth	r2, r2
1000aa94:	428c      	cmp	r4, r1
1000aa96:	d202      	bcs.n	1000aa9e <tu_fifo_remaining+0x16>
1000aa98:	8940      	ldrh	r0, [r0, #10]
1000aa9a:	1a12      	subs	r2, r2, r0
1000aa9c:	b292      	uxth	r2, r2
1000aa9e:	1a98      	subs	r0, r3, r2
1000aaa0:	b280      	uxth	r0, r0
1000aaa2:	bd10      	pop	{r4, pc}

1000aaa4 <tu_fifo_read>:
1000aaa4:	b570      	push	{r4, r5, r6, lr}
1000aaa6:	0004      	movs	r4, r0
1000aaa8:	6980      	ldr	r0, [r0, #24]
1000aaaa:	000e      	movs	r6, r1
1000aaac:	2800      	cmp	r0, #0
1000aaae:	d003      	beq.n	1000aab8 <tu_fifo_read+0x14>
1000aab0:	2101      	movs	r1, #1
1000aab2:	4249      	negs	r1, r1
1000aab4:	f000 fbb4 	bl	1000b220 <__mutex_enter_timeout_ms_veneer>
1000aab8:	89e1      	ldrh	r1, [r4, #14]
1000aaba:	8a22      	ldrh	r2, [r4, #16]
1000aabc:	b288      	uxth	r0, r1
1000aabe:	1a8d      	subs	r5, r1, r2
1000aac0:	b293      	uxth	r3, r2
1000aac2:	b2ad      	uxth	r5, r5
1000aac4:	4291      	cmp	r1, r2
1000aac6:	d202      	bcs.n	1000aace <tu_fifo_read+0x2a>
1000aac8:	8962      	ldrh	r2, [r4, #10]
1000aaca:	1aad      	subs	r5, r5, r2
1000aacc:	b2ad      	uxth	r5, r5
1000aace:	88a2      	ldrh	r2, [r4, #4]
1000aad0:	42aa      	cmp	r2, r5
1000aad2:	d207      	bcs.n	1000aae4 <tu_fifo_read+0x40>
1000aad4:	4290      	cmp	r0, r2
1000aad6:	d225      	bcs.n	1000ab24 <tu_fifo_read+0x80>
1000aad8:	8961      	ldrh	r1, [r4, #10]
1000aada:	1851      	adds	r1, r2, r1
1000aadc:	1a41      	subs	r1, r0, r1
1000aade:	b289      	uxth	r1, r1
1000aae0:	0015      	movs	r5, r2
1000aae2:	8221      	strh	r1, [r4, #16]
1000aae4:	2d00      	cmp	r5, #0
1000aae6:	d102      	bne.n	1000aaee <tu_fifo_read+0x4a>
1000aae8:	e022      	b.n	1000ab30 <tu_fifo_read+0x8c>
1000aaea:	1a9b      	subs	r3, r3, r2
1000aaec:	b29b      	uxth	r3, r3
1000aaee:	429a      	cmp	r2, r3
1000aaf0:	d9fb      	bls.n	1000aaea <tu_fifo_read+0x46>
1000aaf2:	88e2      	ldrh	r2, [r4, #6]
1000aaf4:	6821      	ldr	r1, [r4, #0]
1000aaf6:	4353      	muls	r3, r2
1000aaf8:	0030      	movs	r0, r6
1000aafa:	18c9      	adds	r1, r1, r3
1000aafc:	f7fd fc64 	bl	100083c8 <__wrap___aeabi_memcpy>
1000ab00:	8a22      	ldrh	r2, [r4, #16]
1000ab02:	2501      	movs	r5, #1
1000ab04:	1c53      	adds	r3, r2, #1
1000ab06:	b29b      	uxth	r3, r3
1000ab08:	429a      	cmp	r2, r3
1000ab0a:	d914      	bls.n	1000ab36 <tu_fifo_read+0x92>
1000ab0c:	2300      	movs	r3, #0
1000ab0e:	8962      	ldrh	r2, [r4, #10]
1000ab10:	189b      	adds	r3, r3, r2
1000ab12:	b29b      	uxth	r3, r3
1000ab14:	69a0      	ldr	r0, [r4, #24]
1000ab16:	8223      	strh	r3, [r4, #16]
1000ab18:	2800      	cmp	r0, #0
1000ab1a:	d001      	beq.n	1000ab20 <tu_fifo_read+0x7c>
1000ab1c:	f000 fb60 	bl	1000b1e0 <__mutex_exit_veneer>
1000ab20:	0028      	movs	r0, r5
1000ab22:	bd70      	pop	{r4, r5, r6, pc}
1000ab24:	1a81      	subs	r1, r0, r2
1000ab26:	89a5      	ldrh	r5, [r4, #12]
1000ab28:	b289      	uxth	r1, r1
1000ab2a:	428d      	cmp	r5, r1
1000ab2c:	d2d8      	bcs.n	1000aae0 <tu_fifo_read+0x3c>
1000ab2e:	e7d3      	b.n	1000aad8 <tu_fifo_read+0x34>
1000ab30:	2500      	movs	r5, #0
1000ab32:	8a23      	ldrh	r3, [r4, #16]
1000ab34:	b29b      	uxth	r3, r3
1000ab36:	89a2      	ldrh	r2, [r4, #12]
1000ab38:	429a      	cmp	r2, r3
1000ab3a:	d2eb      	bcs.n	1000ab14 <tu_fifo_read+0x70>
1000ab3c:	e7e7      	b.n	1000ab0e <tu_fifo_read+0x6a>
1000ab3e:	46c0      	nop			; (mov r8, r8)

1000ab40 <tu_fifo_read_n>:
1000ab40:	b5f0      	push	{r4, r5, r6, r7, lr}
1000ab42:	464f      	mov	r7, r9
1000ab44:	4646      	mov	r6, r8
1000ab46:	46d6      	mov	lr, sl
1000ab48:	0005      	movs	r5, r0
1000ab4a:	6980      	ldr	r0, [r0, #24]
1000ab4c:	4688      	mov	r8, r1
1000ab4e:	4691      	mov	r9, r2
1000ab50:	b5c0      	push	{r6, r7, lr}
1000ab52:	2800      	cmp	r0, #0
1000ab54:	d003      	beq.n	1000ab5e <tu_fifo_read_n+0x1e>
1000ab56:	2101      	movs	r1, #1
1000ab58:	4249      	negs	r1, r1
1000ab5a:	f000 fb61 	bl	1000b220 <__mutex_enter_timeout_ms_veneer>
1000ab5e:	89ea      	ldrh	r2, [r5, #14]
1000ab60:	8a2b      	ldrh	r3, [r5, #16]
1000ab62:	b291      	uxth	r1, r2
1000ab64:	1ad6      	subs	r6, r2, r3
1000ab66:	b29c      	uxth	r4, r3
1000ab68:	b2b6      	uxth	r6, r6
1000ab6a:	429a      	cmp	r2, r3
1000ab6c:	d202      	bcs.n	1000ab74 <tu_fifo_read_n+0x34>
1000ab6e:	896b      	ldrh	r3, [r5, #10]
1000ab70:	1af6      	subs	r6, r6, r3
1000ab72:	b2b6      	uxth	r6, r6
1000ab74:	88af      	ldrh	r7, [r5, #4]
1000ab76:	42b7      	cmp	r7, r6
1000ab78:	d209      	bcs.n	1000ab8e <tu_fifo_read_n+0x4e>
1000ab7a:	42b9      	cmp	r1, r7
1000ab7c:	d254      	bcs.n	1000ac28 <tu_fifo_read_n+0xe8>
1000ab7e:	896b      	ldrh	r3, [r5, #10]
1000ab80:	18fb      	adds	r3, r7, r3
1000ab82:	1acb      	subs	r3, r1, r3
1000ab84:	b29b      	uxth	r3, r3
1000ab86:	003e      	movs	r6, r7
1000ab88:	822b      	strh	r3, [r5, #16]
1000ab8a:	8a2c      	ldrh	r4, [r5, #16]
1000ab8c:	b2a4      	uxth	r4, r4
1000ab8e:	2e00      	cmp	r6, #0
1000ab90:	d050      	beq.n	1000ac34 <tu_fifo_read_n+0xf4>
1000ab92:	464b      	mov	r3, r9
1000ab94:	45b1      	cmp	r9, r6
1000ab96:	d845      	bhi.n	1000ac24 <tu_fifo_read_n+0xe4>
1000ab98:	b29e      	uxth	r6, r3
1000ab9a:	42a7      	cmp	r7, r4
1000ab9c:	d803      	bhi.n	1000aba6 <tu_fifo_read_n+0x66>
1000ab9e:	1be4      	subs	r4, r4, r7
1000aba0:	b2a4      	uxth	r4, r4
1000aba2:	42a7      	cmp	r7, r4
1000aba4:	d9fb      	bls.n	1000ab9e <tu_fifo_read_n+0x5e>
1000aba6:	88eb      	ldrh	r3, [r5, #6]
1000aba8:	1b38      	subs	r0, r7, r4
1000abaa:	0019      	movs	r1, r3
1000abac:	4699      	mov	r9, r3
1000abae:	682b      	ldr	r3, [r5, #0]
1000abb0:	4361      	muls	r1, r4
1000abb2:	469c      	mov	ip, r3
1000abb4:	b280      	uxth	r0, r0
1000abb6:	4461      	add	r1, ip
1000abb8:	4286      	cmp	r6, r0
1000abba:	d925      	bls.n	1000ac08 <tu_fifo_read_n+0xc8>
1000abbc:	464b      	mov	r3, r9
1000abbe:	4358      	muls	r0, r3
1000abc0:	b283      	uxth	r3, r0
1000abc2:	001a      	movs	r2, r3
1000abc4:	4640      	mov	r0, r8
1000abc6:	469a      	mov	sl, r3
1000abc8:	f7fd fbfe 	bl	100083c8 <__wrap___aeabi_memcpy>
1000abcc:	464b      	mov	r3, r9
1000abce:	4640      	mov	r0, r8
1000abd0:	1bf7      	subs	r7, r6, r7
1000abd2:	19e4      	adds	r4, r4, r7
1000abd4:	435c      	muls	r4, r3
1000abd6:	6829      	ldr	r1, [r5, #0]
1000abd8:	b2a2      	uxth	r2, r4
1000abda:	4450      	add	r0, sl
1000abdc:	f7fd fbf4 	bl	100083c8 <__wrap___aeabi_memcpy>
1000abe0:	8a2a      	ldrh	r2, [r5, #16]
1000abe2:	1993      	adds	r3, r2, r6
1000abe4:	b29b      	uxth	r3, r3
1000abe6:	429a      	cmp	r2, r3
1000abe8:	d918      	bls.n	1000ac1c <tu_fifo_read_n+0xdc>
1000abea:	896a      	ldrh	r2, [r5, #10]
1000abec:	189b      	adds	r3, r3, r2
1000abee:	b29b      	uxth	r3, r3
1000abf0:	69a8      	ldr	r0, [r5, #24]
1000abf2:	822b      	strh	r3, [r5, #16]
1000abf4:	2800      	cmp	r0, #0
1000abf6:	d001      	beq.n	1000abfc <tu_fifo_read_n+0xbc>
1000abf8:	f000 faf2 	bl	1000b1e0 <__mutex_exit_veneer>
1000abfc:	0030      	movs	r0, r6
1000abfe:	bce0      	pop	{r5, r6, r7}
1000ac00:	46ba      	mov	sl, r7
1000ac02:	46b1      	mov	r9, r6
1000ac04:	46a8      	mov	r8, r5
1000ac06:	bdf0      	pop	{r4, r5, r6, r7, pc}
1000ac08:	464a      	mov	r2, r9
1000ac0a:	4640      	mov	r0, r8
1000ac0c:	4372      	muls	r2, r6
1000ac0e:	f7fd fbdb 	bl	100083c8 <__wrap___aeabi_memcpy>
1000ac12:	8a2a      	ldrh	r2, [r5, #16]
1000ac14:	1993      	adds	r3, r2, r6
1000ac16:	b29b      	uxth	r3, r3
1000ac18:	429a      	cmp	r2, r3
1000ac1a:	d8e6      	bhi.n	1000abea <tu_fifo_read_n+0xaa>
1000ac1c:	89aa      	ldrh	r2, [r5, #12]
1000ac1e:	429a      	cmp	r2, r3
1000ac20:	d2e6      	bcs.n	1000abf0 <tu_fifo_read_n+0xb0>
1000ac22:	e7e2      	b.n	1000abea <tu_fifo_read_n+0xaa>
1000ac24:	1c33      	adds	r3, r6, #0
1000ac26:	e7b7      	b.n	1000ab98 <tu_fifo_read_n+0x58>
1000ac28:	1bcb      	subs	r3, r1, r7
1000ac2a:	89aa      	ldrh	r2, [r5, #12]
1000ac2c:	b29b      	uxth	r3, r3
1000ac2e:	429a      	cmp	r2, r3
1000ac30:	d2a9      	bcs.n	1000ab86 <tu_fifo_read_n+0x46>
1000ac32:	e7a4      	b.n	1000ab7e <tu_fifo_read_n+0x3e>
1000ac34:	8a2b      	ldrh	r3, [r5, #16]
1000ac36:	89aa      	ldrh	r2, [r5, #12]
1000ac38:	b29b      	uxth	r3, r3
1000ac3a:	429a      	cmp	r2, r3
1000ac3c:	d2d8      	bcs.n	1000abf0 <tu_fifo_read_n+0xb0>
1000ac3e:	e7d4      	b.n	1000abea <tu_fifo_read_n+0xaa>

1000ac40 <tu_fifo_write>:
1000ac40:	b5f8      	push	{r3, r4, r5, r6, r7, lr}
1000ac42:	0004      	movs	r4, r0
1000ac44:	6940      	ldr	r0, [r0, #20]
1000ac46:	000e      	movs	r6, r1
1000ac48:	2800      	cmp	r0, #0
1000ac4a:	d003      	beq.n	1000ac54 <tu_fifo_write+0x14>
1000ac4c:	2101      	movs	r1, #1
1000ac4e:	4249      	negs	r1, r1
1000ac50:	f000 fae6 	bl	1000b220 <__mutex_enter_timeout_ms_veneer>
1000ac54:	89e2      	ldrh	r2, [r4, #14]
1000ac56:	8a21      	ldrh	r1, [r4, #16]
1000ac58:	b295      	uxth	r5, r2
1000ac5a:	1a53      	subs	r3, r2, r1
1000ac5c:	b29b      	uxth	r3, r3
1000ac5e:	4291      	cmp	r1, r2
1000ac60:	d902      	bls.n	1000ac68 <tu_fifo_write+0x28>
1000ac62:	8962      	ldrh	r2, [r4, #10]
1000ac64:	1a9b      	subs	r3, r3, r2
1000ac66:	b29b      	uxth	r3, r3
1000ac68:	88a2      	ldrh	r2, [r4, #4]
1000ac6a:	429a      	cmp	r2, r3
1000ac6c:	d021      	beq.n	1000acb2 <tu_fifo_write+0x72>
1000ac6e:	002b      	movs	r3, r5
1000ac70:	4295      	cmp	r5, r2
1000ac72:	d303      	bcc.n	1000ac7c <tu_fifo_write+0x3c>
1000ac74:	1a9b      	subs	r3, r3, r2
1000ac76:	b29b      	uxth	r3, r3
1000ac78:	429a      	cmp	r2, r3
1000ac7a:	d9fb      	bls.n	1000ac74 <tu_fifo_write+0x34>
1000ac7c:	88e2      	ldrh	r2, [r4, #6]
1000ac7e:	6821      	ldr	r1, [r4, #0]
1000ac80:	4353      	muls	r3, r2
1000ac82:	18c8      	adds	r0, r1, r3
1000ac84:	0031      	movs	r1, r6
1000ac86:	f7fd fb9f 	bl	100083c8 <__wrap___aeabi_memcpy>
1000ac8a:	1c6b      	adds	r3, r5, #1
1000ac8c:	b29b      	uxth	r3, r3
1000ac8e:	429d      	cmp	r5, r3
1000ac90:	d90b      	bls.n	1000acaa <tu_fifo_write+0x6a>
1000ac92:	8962      	ldrh	r2, [r4, #10]
1000ac94:	189b      	adds	r3, r3, r2
1000ac96:	b29b      	uxth	r3, r3
1000ac98:	6960      	ldr	r0, [r4, #20]
1000ac9a:	2701      	movs	r7, #1
1000ac9c:	81e3      	strh	r3, [r4, #14]
1000ac9e:	2800      	cmp	r0, #0
1000aca0:	d001      	beq.n	1000aca6 <tu_fifo_write+0x66>
1000aca2:	f000 fa9d 	bl	1000b1e0 <__mutex_exit_veneer>
1000aca6:	0038      	movs	r0, r7
1000aca8:	bdf8      	pop	{r3, r4, r5, r6, r7, pc}
1000acaa:	89a2      	ldrh	r2, [r4, #12]
1000acac:	429a      	cmp	r2, r3
1000acae:	d2f3      	bcs.n	1000ac98 <tu_fifo_write+0x58>
1000acb0:	e7ef      	b.n	1000ac92 <tu_fifo_write+0x52>
1000acb2:	7a27      	ldrb	r7, [r4, #8]
1000acb4:	2f00      	cmp	r7, #0
1000acb6:	d1da      	bne.n	1000ac6e <tu_fifo_write+0x2e>
1000acb8:	e7f5      	b.n	1000aca6 <tu_fifo_write+0x66>
1000acba:	46c0      	nop			; (mov r8, r8)

1000acbc <tu_fifo_write_n>:
1000acbc:	b5f8      	push	{r3, r4, r5, r6, r7, lr}
1000acbe:	4645      	mov	r5, r8
1000acc0:	464e      	mov	r6, r9
1000acc2:	46de      	mov	lr, fp
1000acc4:	4657      	mov	r7, sl
1000acc6:	4688      	mov	r8, r1
1000acc8:	b5e0      	push	{r5, r6, r7, lr}
1000acca:	0005      	movs	r5, r0
1000accc:	1e16      	subs	r6, r2, #0
1000acce:	d05a      	beq.n	1000ad86 <tu_fifo_write_n+0xca>
1000acd0:	6940      	ldr	r0, [r0, #20]
1000acd2:	2800      	cmp	r0, #0
1000acd4:	d003      	beq.n	1000acde <tu_fifo_write_n+0x22>
1000acd6:	2101      	movs	r1, #1
1000acd8:	4249      	negs	r1, r1
1000acda:	f000 faa1 	bl	1000b220 <__mutex_enter_timeout_ms_veneer>
1000acde:	89ef      	ldrh	r7, [r5, #14]
1000ace0:	7a2b      	ldrb	r3, [r5, #8]
1000ace2:	8a29      	ldrh	r1, [r5, #16]
1000ace4:	b2bf      	uxth	r7, r7
1000ace6:	b289      	uxth	r1, r1
1000ace8:	2b00      	cmp	r3, #0
1000acea:	d13b      	bne.n	1000ad64 <tu_fifo_write_n+0xa8>
1000acec:	1a7a      	subs	r2, r7, r1
1000acee:	88ab      	ldrh	r3, [r5, #4]
1000acf0:	b292      	uxth	r2, r2
1000acf2:	428f      	cmp	r7, r1
1000acf4:	d202      	bcs.n	1000acfc <tu_fifo_write_n+0x40>
1000acf6:	8969      	ldrh	r1, [r5, #10]
1000acf8:	1a52      	subs	r2, r2, r1
1000acfa:	b292      	uxth	r2, r2
1000acfc:	1a9a      	subs	r2, r3, r2
1000acfe:	1c11      	adds	r1, r2, #0
1000ad00:	b292      	uxth	r2, r2
1000ad02:	42b2      	cmp	r2, r6
1000ad04:	d853      	bhi.n	1000adae <tu_fifo_write_n+0xf2>
1000ad06:	88ea      	ldrh	r2, [r5, #6]
1000ad08:	b28e      	uxth	r6, r1
1000ad0a:	4692      	mov	sl, r2
1000ad0c:	1af2      	subs	r2, r6, r3
1000ad0e:	b292      	uxth	r2, r2
1000ad10:	4691      	mov	r9, r2
1000ad12:	003c      	movs	r4, r7
1000ad14:	429f      	cmp	r7, r3
1000ad16:	d303      	bcc.n	1000ad20 <tu_fifo_write_n+0x64>
1000ad18:	1ae4      	subs	r4, r4, r3
1000ad1a:	b2a4      	uxth	r4, r4
1000ad1c:	429c      	cmp	r4, r3
1000ad1e:	d2fb      	bcs.n	1000ad18 <tu_fifo_write_n+0x5c>
1000ad20:	4650      	mov	r0, sl
1000ad22:	682a      	ldr	r2, [r5, #0]
1000ad24:	4360      	muls	r0, r4
1000ad26:	4694      	mov	ip, r2
1000ad28:	1b1b      	subs	r3, r3, r4
1000ad2a:	b29b      	uxth	r3, r3
1000ad2c:	4652      	mov	r2, sl
1000ad2e:	4460      	add	r0, ip
1000ad30:	429e      	cmp	r6, r3
1000ad32:	d82a      	bhi.n	1000ad8a <tu_fifo_write_n+0xce>
1000ad34:	4641      	mov	r1, r8
1000ad36:	4372      	muls	r2, r6
1000ad38:	f7fd fb46 	bl	100083c8 <__wrap___aeabi_memcpy>
1000ad3c:	19f3      	adds	r3, r6, r7
1000ad3e:	b29b      	uxth	r3, r3
1000ad40:	429f      	cmp	r7, r3
1000ad42:	d81c      	bhi.n	1000ad7e <tu_fifo_write_n+0xc2>
1000ad44:	89aa      	ldrh	r2, [r5, #12]
1000ad46:	429a      	cmp	r2, r3
1000ad48:	d319      	bcc.n	1000ad7e <tu_fifo_write_n+0xc2>
1000ad4a:	6968      	ldr	r0, [r5, #20]
1000ad4c:	81eb      	strh	r3, [r5, #14]
1000ad4e:	2800      	cmp	r0, #0
1000ad50:	d001      	beq.n	1000ad56 <tu_fifo_write_n+0x9a>
1000ad52:	f000 fa45 	bl	1000b1e0 <__mutex_exit_veneer>
1000ad56:	0030      	movs	r0, r6
1000ad58:	bcf0      	pop	{r4, r5, r6, r7}
1000ad5a:	46bb      	mov	fp, r7
1000ad5c:	46b2      	mov	sl, r6
1000ad5e:	46a9      	mov	r9, r5
1000ad60:	46a0      	mov	r8, r4
1000ad62:	bdf8      	pop	{r3, r4, r5, r6, r7, pc}
1000ad64:	88ea      	ldrh	r2, [r5, #6]
1000ad66:	88ab      	ldrh	r3, [r5, #4]
1000ad68:	4692      	mov	sl, r2
1000ad6a:	429e      	cmp	r6, r3
1000ad6c:	d321      	bcc.n	1000adb2 <tu_fifo_write_n+0xf6>
1000ad6e:	1af6      	subs	r6, r6, r3
1000ad70:	4356      	muls	r6, r2
1000ad72:	2200      	movs	r2, #0
1000ad74:	44b0      	add	r8, r6
1000ad76:	000f      	movs	r7, r1
1000ad78:	001e      	movs	r6, r3
1000ad7a:	4691      	mov	r9, r2
1000ad7c:	e7c9      	b.n	1000ad12 <tu_fifo_write_n+0x56>
1000ad7e:	896a      	ldrh	r2, [r5, #10]
1000ad80:	189b      	adds	r3, r3, r2
1000ad82:	b29b      	uxth	r3, r3
1000ad84:	e7e1      	b.n	1000ad4a <tu_fifo_write_n+0x8e>
1000ad86:	2600      	movs	r6, #0
1000ad88:	e7e5      	b.n	1000ad56 <tu_fifo_write_n+0x9a>
1000ad8a:	4353      	muls	r3, r2
1000ad8c:	b29b      	uxth	r3, r3
1000ad8e:	001a      	movs	r2, r3
1000ad90:	4641      	mov	r1, r8
1000ad92:	469b      	mov	fp, r3
1000ad94:	f7fd fb18 	bl	100083c8 <__wrap___aeabi_memcpy>
1000ad98:	0022      	movs	r2, r4
1000ad9a:	4653      	mov	r3, sl
1000ad9c:	4641      	mov	r1, r8
1000ad9e:	444a      	add	r2, r9
1000ada0:	435a      	muls	r2, r3
1000ada2:	6828      	ldr	r0, [r5, #0]
1000ada4:	b292      	uxth	r2, r2
1000ada6:	4459      	add	r1, fp
1000ada8:	f7fd fb0e 	bl	100083c8 <__wrap___aeabi_memcpy>
1000adac:	e7c6      	b.n	1000ad3c <tu_fifo_write_n+0x80>
1000adae:	1c31      	adds	r1, r6, #0
1000adb0:	e7a9      	b.n	1000ad06 <tu_fifo_write_n+0x4a>
1000adb2:	1af2      	subs	r2, r6, r3
1000adb4:	b292      	uxth	r2, r2
1000adb6:	4691      	mov	r9, r2
1000adb8:	e7ab      	b.n	1000ad12 <tu_fifo_write_n+0x56>
1000adba:	46c0      	nop			; (mov r8, r8)

1000adbc <tu_fifo_clear>:
1000adbc:	b510      	push	{r4, lr}
1000adbe:	0004      	movs	r4, r0
1000adc0:	6940      	ldr	r0, [r0, #20]
1000adc2:	2800      	cmp	r0, #0
1000adc4:	d003      	beq.n	1000adce <tu_fifo_clear+0x12>
1000adc6:	2101      	movs	r1, #1
1000adc8:	4249      	negs	r1, r1
1000adca:	f000 fa29 	bl	1000b220 <__mutex_enter_timeout_ms_veneer>
1000adce:	69a0      	ldr	r0, [r4, #24]
1000add0:	2800      	cmp	r0, #0
1000add2:	d003      	beq.n	1000addc <tu_fifo_clear+0x20>
1000add4:	2101      	movs	r1, #1
1000add6:	4249      	negs	r1, r1
1000add8:	f000 fa22 	bl	1000b220 <__mutex_enter_timeout_ms_veneer>
1000addc:	2300      	movs	r3, #0
1000adde:	81e3      	strh	r3, [r4, #14]
1000ade0:	8223      	strh	r3, [r4, #16]
1000ade2:	88a3      	ldrh	r3, [r4, #4]
1000ade4:	6960      	ldr	r0, [r4, #20]
1000ade6:	005b      	lsls	r3, r3, #1
1000ade8:	b29b      	uxth	r3, r3
1000adea:	1e5a      	subs	r2, r3, #1
1000adec:	425b      	negs	r3, r3
1000adee:	81a2      	strh	r2, [r4, #12]
1000adf0:	8163      	strh	r3, [r4, #10]
1000adf2:	2800      	cmp	r0, #0
1000adf4:	d001      	beq.n	1000adfa <tu_fifo_clear+0x3e>
1000adf6:	f000 f9f3 	bl	1000b1e0 <__mutex_exit_veneer>
1000adfa:	69a0      	ldr	r0, [r4, #24]
1000adfc:	2800      	cmp	r0, #0
1000adfe:	d001      	beq.n	1000ae04 <tu_fifo_clear+0x48>
1000ae00:	f000 f9ee 	bl	1000b1e0 <__mutex_exit_veneer>
1000ae04:	2001      	movs	r0, #1
1000ae06:	bd10      	pop	{r4, pc}

1000ae08 <tu_fifo_set_overwritable>:
1000ae08:	b570      	push	{r4, r5, r6, lr}
1000ae0a:	0004      	movs	r4, r0
1000ae0c:	6940      	ldr	r0, [r0, #20]
1000ae0e:	000d      	movs	r5, r1
1000ae10:	2800      	cmp	r0, #0
1000ae12:	d003      	beq.n	1000ae1c <tu_fifo_set_overwritable+0x14>
1000ae14:	2101      	movs	r1, #1
1000ae16:	4249      	negs	r1, r1
1000ae18:	f000 fa02 	bl	1000b220 <__mutex_enter_timeout_ms_veneer>
1000ae1c:	69a0      	ldr	r0, [r4, #24]
1000ae1e:	2800      	cmp	r0, #0
1000ae20:	d003      	beq.n	1000ae2a <tu_fifo_set_overwritable+0x22>
1000ae22:	2101      	movs	r1, #1
1000ae24:	4249      	negs	r1, r1
1000ae26:	f000 f9fb 	bl	1000b220 <__mutex_enter_timeout_ms_veneer>
1000ae2a:	6960      	ldr	r0, [r4, #20]
1000ae2c:	7225      	strb	r5, [r4, #8]
1000ae2e:	2800      	cmp	r0, #0
1000ae30:	d001      	beq.n	1000ae36 <tu_fifo_set_overwritable+0x2e>
1000ae32:	f000 f9d5 	bl	1000b1e0 <__mutex_exit_veneer>
1000ae36:	69a0      	ldr	r0, [r4, #24]
1000ae38:	2800      	cmp	r0, #0
1000ae3a:	d001      	beq.n	1000ae40 <tu_fifo_set_overwritable+0x38>
1000ae3c:	f000 f9d0 	bl	1000b1e0 <__mutex_exit_veneer>
1000ae40:	2001      	movs	r0, #1
1000ae42:	bd70      	pop	{r4, r5, r6, pc}

1000ae44 <_retrieve_unique_id_on_boot>:
1000ae44:	b510      	push	{r4, lr}
1000ae46:	4802      	ldr	r0, [pc, #8]	; (1000ae50 <_retrieve_unique_id_on_boot+0xc>)
1000ae48:	f000 f8d8 	bl	1000affc <flash_get_unique_id>
1000ae4c:	bd10      	pop	{r4, pc}
1000ae4e:	46c0      	nop			; (mov r8, r8)
1000ae50:	20026b40 	.word	0x20026b40

1000ae54 <pico_get_unique_board_id_string>:
1000ae54:	b530      	push	{r4, r5, lr}
1000ae56:	1e4b      	subs	r3, r1, #1
1000ae58:	2901      	cmp	r1, #1
1000ae5a:	d100      	bne.n	1000ae5e <pico_get_unique_board_id_string+0xa>
1000ae5c:	e0a7      	b.n	1000afae <pico_get_unique_board_id_string+0x15a>
1000ae5e:	4a66      	ldr	r2, [pc, #408]	; (1000aff8 <pico_get_unique_board_id_string+0x1a4>)
1000ae60:	7811      	ldrb	r1, [r2, #0]
1000ae62:	110d      	asrs	r5, r1, #4
1000ae64:	002c      	movs	r4, r5
1000ae66:	3430      	adds	r4, #48	; 0x30
1000ae68:	299f      	cmp	r1, #159	; 0x9f
1000ae6a:	d900      	bls.n	1000ae6e <pico_get_unique_board_id_string+0x1a>
1000ae6c:	e0a2      	b.n	1000afb4 <pico_get_unique_board_id_string+0x160>
1000ae6e:	7004      	strb	r4, [r0, #0]
1000ae70:	2b01      	cmp	r3, #1
1000ae72:	d100      	bne.n	1000ae76 <pico_get_unique_board_id_string+0x22>
1000ae74:	e0be      	b.n	1000aff4 <pico_get_unique_board_id_string+0x1a0>
1000ae76:	210f      	movs	r1, #15
1000ae78:	7814      	ldrb	r4, [r2, #0]
1000ae7a:	4021      	ands	r1, r4
1000ae7c:	000c      	movs	r4, r1
1000ae7e:	3430      	adds	r4, #48	; 0x30
1000ae80:	2909      	cmp	r1, #9
1000ae82:	dd00      	ble.n	1000ae86 <pico_get_unique_board_id_string+0x32>
1000ae84:	e098      	b.n	1000afb8 <pico_get_unique_board_id_string+0x164>
1000ae86:	7044      	strb	r4, [r0, #1]
1000ae88:	2b02      	cmp	r3, #2
1000ae8a:	d100      	bne.n	1000ae8e <pico_get_unique_board_id_string+0x3a>
1000ae8c:	e0b2      	b.n	1000aff4 <pico_get_unique_board_id_string+0x1a0>
1000ae8e:	7854      	ldrb	r4, [r2, #1]
1000ae90:	1125      	asrs	r5, r4, #4
1000ae92:	0029      	movs	r1, r5
1000ae94:	3130      	adds	r1, #48	; 0x30
1000ae96:	2c9f      	cmp	r4, #159	; 0x9f
1000ae98:	d900      	bls.n	1000ae9c <pico_get_unique_board_id_string+0x48>
1000ae9a:	e090      	b.n	1000afbe <pico_get_unique_board_id_string+0x16a>
1000ae9c:	7081      	strb	r1, [r0, #2]
1000ae9e:	2b03      	cmp	r3, #3
1000aea0:	d100      	bne.n	1000aea4 <pico_get_unique_board_id_string+0x50>
1000aea2:	e0a7      	b.n	1000aff4 <pico_get_unique_board_id_string+0x1a0>
1000aea4:	210f      	movs	r1, #15
1000aea6:	4021      	ands	r1, r4
1000aea8:	000c      	movs	r4, r1
1000aeaa:	3430      	adds	r4, #48	; 0x30
1000aeac:	2909      	cmp	r1, #9
1000aeae:	dd00      	ble.n	1000aeb2 <pico_get_unique_board_id_string+0x5e>
1000aeb0:	e087      	b.n	1000afc2 <pico_get_unique_board_id_string+0x16e>
1000aeb2:	70c4      	strb	r4, [r0, #3]
1000aeb4:	2b04      	cmp	r3, #4
1000aeb6:	d100      	bne.n	1000aeba <pico_get_unique_board_id_string+0x66>
1000aeb8:	e09c      	b.n	1000aff4 <pico_get_unique_board_id_string+0x1a0>
1000aeba:	7894      	ldrb	r4, [r2, #2]
1000aebc:	1125      	asrs	r5, r4, #4
1000aebe:	0029      	movs	r1, r5
1000aec0:	3130      	adds	r1, #48	; 0x30
1000aec2:	2c9f      	cmp	r4, #159	; 0x9f
1000aec4:	d900      	bls.n	1000aec8 <pico_get_unique_board_id_string+0x74>
1000aec6:	e07f      	b.n	1000afc8 <pico_get_unique_board_id_string+0x174>
1000aec8:	7101      	strb	r1, [r0, #4]
1000aeca:	2b05      	cmp	r3, #5
1000aecc:	d100      	bne.n	1000aed0 <pico_get_unique_board_id_string+0x7c>
1000aece:	e091      	b.n	1000aff4 <pico_get_unique_board_id_string+0x1a0>
1000aed0:	210f      	movs	r1, #15
1000aed2:	4021      	ands	r1, r4
1000aed4:	000c      	movs	r4, r1
1000aed6:	3430      	adds	r4, #48	; 0x30
1000aed8:	2909      	cmp	r1, #9
1000aeda:	dd00      	ble.n	1000aede <pico_get_unique_board_id_string+0x8a>
1000aedc:	e076      	b.n	1000afcc <pico_get_unique_board_id_string+0x178>
1000aede:	7144      	strb	r4, [r0, #5]
1000aee0:	2b06      	cmp	r3, #6
1000aee2:	d100      	bne.n	1000aee6 <pico_get_unique_board_id_string+0x92>
1000aee4:	e086      	b.n	1000aff4 <pico_get_unique_board_id_string+0x1a0>
1000aee6:	78d4      	ldrb	r4, [r2, #3]
1000aee8:	1125      	asrs	r5, r4, #4
1000aeea:	0029      	movs	r1, r5
1000aeec:	3130      	adds	r1, #48	; 0x30
1000aeee:	2c9f      	cmp	r4, #159	; 0x9f
1000aef0:	d900      	bls.n	1000aef4 <pico_get_unique_board_id_string+0xa0>
1000aef2:	e06e      	b.n	1000afd2 <pico_get_unique_board_id_string+0x17e>
1000aef4:	7181      	strb	r1, [r0, #6]
1000aef6:	2b07      	cmp	r3, #7
1000aef8:	d100      	bne.n	1000aefc <pico_get_unique_board_id_string+0xa8>
1000aefa:	e07b      	b.n	1000aff4 <pico_get_unique_board_id_string+0x1a0>
1000aefc:	210f      	movs	r1, #15
1000aefe:	4021      	ands	r1, r4
1000af00:	000c      	movs	r4, r1
1000af02:	3430      	adds	r4, #48	; 0x30
1000af04:	2909      	cmp	r1, #9
1000af06:	dc66      	bgt.n	1000afd6 <pico_get_unique_board_id_string+0x182>
1000af08:	71c4      	strb	r4, [r0, #7]
1000af0a:	2b08      	cmp	r3, #8
1000af0c:	d100      	bne.n	1000af10 <pico_get_unique_board_id_string+0xbc>
1000af0e:	e071      	b.n	1000aff4 <pico_get_unique_board_id_string+0x1a0>
1000af10:	7914      	ldrb	r4, [r2, #4]
1000af12:	1125      	asrs	r5, r4, #4
1000af14:	0029      	movs	r1, r5
1000af16:	3130      	adds	r1, #48	; 0x30
1000af18:	2c9f      	cmp	r4, #159	; 0x9f
1000af1a:	d85f      	bhi.n	1000afdc <pico_get_unique_board_id_string+0x188>
1000af1c:	7201      	strb	r1, [r0, #8]
1000af1e:	2b09      	cmp	r3, #9
1000af20:	d068      	beq.n	1000aff4 <pico_get_unique_board_id_string+0x1a0>
1000af22:	210f      	movs	r1, #15
1000af24:	4021      	ands	r1, r4
1000af26:	000c      	movs	r4, r1
1000af28:	3430      	adds	r4, #48	; 0x30
1000af2a:	2909      	cmp	r1, #9
1000af2c:	dc58      	bgt.n	1000afe0 <pico_get_unique_board_id_string+0x18c>
1000af2e:	7244      	strb	r4, [r0, #9]
1000af30:	2b0a      	cmp	r3, #10
1000af32:	d05f      	beq.n	1000aff4 <pico_get_unique_board_id_string+0x1a0>
1000af34:	7954      	ldrb	r4, [r2, #5]
1000af36:	1125      	asrs	r5, r4, #4
1000af38:	0029      	movs	r1, r5
1000af3a:	3130      	adds	r1, #48	; 0x30
1000af3c:	2c9f      	cmp	r4, #159	; 0x9f
1000af3e:	d852      	bhi.n	1000afe6 <pico_get_unique_board_id_string+0x192>
1000af40:	7281      	strb	r1, [r0, #10]
1000af42:	2b0b      	cmp	r3, #11
1000af44:	d056      	beq.n	1000aff4 <pico_get_unique_board_id_string+0x1a0>
1000af46:	210f      	movs	r1, #15
1000af48:	4021      	ands	r1, r4
1000af4a:	000c      	movs	r4, r1
1000af4c:	3430      	adds	r4, #48	; 0x30
1000af4e:	2909      	cmp	r1, #9
1000af50:	dc4b      	bgt.n	1000afea <pico_get_unique_board_id_string+0x196>
1000af52:	72c4      	strb	r4, [r0, #11]
1000af54:	2b0c      	cmp	r3, #12
1000af56:	d04d      	beq.n	1000aff4 <pico_get_unique_board_id_string+0x1a0>
1000af58:	7994      	ldrb	r4, [r2, #6]
1000af5a:	1125      	asrs	r5, r4, #4
1000af5c:	0029      	movs	r1, r5
1000af5e:	3130      	adds	r1, #48	; 0x30
1000af60:	2c9f      	cmp	r4, #159	; 0x9f
1000af62:	d900      	bls.n	1000af66 <pico_get_unique_board_id_string+0x112>
1000af64:	3107      	adds	r1, #7
1000af66:	7301      	strb	r1, [r0, #12]
1000af68:	2b0d      	cmp	r3, #13
1000af6a:	d043      	beq.n	1000aff4 <pico_get_unique_board_id_string+0x1a0>
1000af6c:	210f      	movs	r1, #15
1000af6e:	4021      	ands	r1, r4
1000af70:	000c      	movs	r4, r1
1000af72:	3430      	adds	r4, #48	; 0x30
1000af74:	2909      	cmp	r1, #9
1000af76:	dd01      	ble.n	1000af7c <pico_get_unique_board_id_string+0x128>
1000af78:	3137      	adds	r1, #55	; 0x37
1000af7a:	000c      	movs	r4, r1
1000af7c:	7344      	strb	r4, [r0, #13]
1000af7e:	2b0e      	cmp	r3, #14
1000af80:	d038      	beq.n	1000aff4 <pico_get_unique_board_id_string+0x1a0>
1000af82:	79d1      	ldrb	r1, [r2, #7]
1000af84:	110c      	asrs	r4, r1, #4
1000af86:	0022      	movs	r2, r4
1000af88:	3230      	adds	r2, #48	; 0x30
1000af8a:	299f      	cmp	r1, #159	; 0x9f
1000af8c:	d900      	bls.n	1000af90 <pico_get_unique_board_id_string+0x13c>
1000af8e:	3207      	adds	r2, #7
1000af90:	7382      	strb	r2, [r0, #14]
1000af92:	2b0f      	cmp	r3, #15
1000af94:	d02e      	beq.n	1000aff4 <pico_get_unique_board_id_string+0x1a0>
1000af96:	220f      	movs	r2, #15
1000af98:	400a      	ands	r2, r1
1000af9a:	0011      	movs	r1, r2
1000af9c:	3137      	adds	r1, #55	; 0x37
1000af9e:	2a09      	cmp	r2, #9
1000afa0:	dc01      	bgt.n	1000afa6 <pico_get_unique_board_id_string+0x152>
1000afa2:	3230      	adds	r2, #48	; 0x30
1000afa4:	0011      	movs	r1, r2
1000afa6:	73c1      	strb	r1, [r0, #15]
1000afa8:	2b10      	cmp	r3, #16
1000afaa:	d023      	beq.n	1000aff4 <pico_get_unique_board_id_string+0x1a0>
1000afac:	3010      	adds	r0, #16
1000afae:	2300      	movs	r3, #0
1000afb0:	7003      	strb	r3, [r0, #0]
1000afb2:	bd30      	pop	{r4, r5, pc}
1000afb4:	3407      	adds	r4, #7
1000afb6:	e75a      	b.n	1000ae6e <pico_get_unique_board_id_string+0x1a>
1000afb8:	3137      	adds	r1, #55	; 0x37
1000afba:	000c      	movs	r4, r1
1000afbc:	e763      	b.n	1000ae86 <pico_get_unique_board_id_string+0x32>
1000afbe:	3107      	adds	r1, #7
1000afc0:	e76c      	b.n	1000ae9c <pico_get_unique_board_id_string+0x48>
1000afc2:	3137      	adds	r1, #55	; 0x37
1000afc4:	000c      	movs	r4, r1
1000afc6:	e774      	b.n	1000aeb2 <pico_get_unique_board_id_string+0x5e>
1000afc8:	3107      	adds	r1, #7
1000afca:	e77d      	b.n	1000aec8 <pico_get_unique_board_id_string+0x74>
1000afcc:	3137      	adds	r1, #55	; 0x37
1000afce:	000c      	movs	r4, r1
1000afd0:	e785      	b.n	1000aede <pico_get_unique_board_id_string+0x8a>
1000afd2:	3107      	adds	r1, #7
1000afd4:	e78e      	b.n	1000aef4 <pico_get_unique_board_id_string+0xa0>
1000afd6:	3137      	adds	r1, #55	; 0x37
1000afd8:	000c      	movs	r4, r1
1000afda:	e795      	b.n	1000af08 <pico_get_unique_board_id_string+0xb4>
1000afdc:	3107      	adds	r1, #7
1000afde:	e79d      	b.n	1000af1c <pico_get_unique_board_id_string+0xc8>
1000afe0:	3137      	adds	r1, #55	; 0x37
1000afe2:	000c      	movs	r4, r1
1000afe4:	e7a3      	b.n	1000af2e <pico_get_unique_board_id_string+0xda>
1000afe6:	3107      	adds	r1, #7
1000afe8:	e7aa      	b.n	1000af40 <pico_get_unique_board_id_string+0xec>
1000afea:	3137      	adds	r1, #55	; 0x37
1000afec:	000c      	movs	r4, r1
1000afee:	72c4      	strb	r4, [r0, #11]
1000aff0:	2b0c      	cmp	r3, #12
1000aff2:	d1b1      	bne.n	1000af58 <pico_get_unique_board_id_string+0x104>
1000aff4:	18c0      	adds	r0, r0, r3
1000aff6:	e7da      	b.n	1000afae <pico_get_unique_board_id_string+0x15a>
1000aff8:	20026b40 	.word	0x20026b40

1000affc <flash_get_unique_id>:
1000affc:	b530      	push	{r4, r5, lr}
1000affe:	2500      	movs	r5, #0
1000b000:	b089      	sub	sp, #36	; 0x24
1000b002:	0004      	movs	r4, r0
1000b004:	2209      	movs	r2, #9
1000b006:	2100      	movs	r1, #0
1000b008:	a801      	add	r0, sp, #4
1000b00a:	9500      	str	r5, [sp, #0]
1000b00c:	f7fd f9d6 	bl	100083bc <__wrap_memset>
1000b010:	2209      	movs	r2, #9
1000b012:	2100      	movs	r1, #0
1000b014:	a805      	add	r0, sp, #20
1000b016:	9504      	str	r5, [sp, #16]
1000b018:	f7fd f9d0 	bl	100083bc <__wrap_memset>
1000b01c:	234b      	movs	r3, #75	; 0x4b
1000b01e:	466a      	mov	r2, sp
1000b020:	4668      	mov	r0, sp
1000b022:	7013      	strb	r3, [r2, #0]
1000b024:	a904      	add	r1, sp, #16
1000b026:	220d      	movs	r2, #13
1000b028:	f000 f8d2 	bl	1000b1d0 <__flash_do_cmd_veneer>
1000b02c:	2115      	movs	r1, #21
1000b02e:	2208      	movs	r2, #8
1000b030:	0020      	movs	r0, r4
1000b032:	4469      	add	r1, sp
1000b034:	f7fd f9c8 	bl	100083c8 <__wrap___aeabi_memcpy>
1000b038:	b009      	add	sp, #36	; 0x24
1000b03a:	bd30      	pop	{r4, r5, pc}

1000b03c <adc_init>:
1000b03c:	2301      	movs	r3, #1
1000b03e:	2101      	movs	r1, #1
1000b040:	4a08      	ldr	r2, [pc, #32]	; (1000b064 <adc_init+0x28>)
1000b042:	6013      	str	r3, [r2, #0]
1000b044:	4a08      	ldr	r2, [pc, #32]	; (1000b068 <adc_init+0x2c>)
1000b046:	6013      	str	r3, [r2, #0]
1000b048:	4a08      	ldr	r2, [pc, #32]	; (1000b06c <adc_init+0x30>)
1000b04a:	0008      	movs	r0, r1
1000b04c:	6893      	ldr	r3, [r2, #8]
1000b04e:	4398      	bics	r0, r3
1000b050:	d1fb      	bne.n	1000b04a <adc_init+0xe>
1000b052:	4a07      	ldr	r2, [pc, #28]	; (1000b070 <adc_init+0x34>)
1000b054:	6011      	str	r1, [r2, #0]
1000b056:	2180      	movs	r1, #128	; 0x80
1000b058:	0049      	lsls	r1, r1, #1
1000b05a:	6813      	ldr	r3, [r2, #0]
1000b05c:	420b      	tst	r3, r1
1000b05e:	d0fc      	beq.n	1000b05a <adc_init+0x1e>
1000b060:	4770      	bx	lr
1000b062:	46c0      	nop			; (mov r8, r8)
1000b064:	4000e000 	.word	0x4000e000
1000b068:	4000f000 	.word	0x4000f000
1000b06c:	4000c000 	.word	0x4000c000
1000b070:	4004c000 	.word	0x4004c000

1000b074 <spi_init>:
1000b074:	b5f8      	push	{r3, r4, r5, r6, r7, lr}
1000b076:	4657      	mov	r7, sl
1000b078:	4682      	mov	sl, r0
1000b07a:	4b38      	ldr	r3, [pc, #224]	; (1000b15c <spi_init+0xe8>)
1000b07c:	4645      	mov	r5, r8
1000b07e:	4453      	add	r3, sl
1000b080:	425a      	negs	r2, r3
1000b082:	4153      	adcs	r3, r2
1000b084:	2280      	movs	r2, #128	; 0x80
1000b086:	0292      	lsls	r2, r2, #10
1000b088:	4694      	mov	ip, r2
1000b08a:	46de      	mov	lr, fp
1000b08c:	464e      	mov	r6, r9
1000b08e:	425b      	negs	r3, r3
1000b090:	0c1b      	lsrs	r3, r3, #16
1000b092:	4a33      	ldr	r2, [pc, #204]	; (1000b160 <spi_init+0xec>)
1000b094:	041b      	lsls	r3, r3, #16
1000b096:	4463      	add	r3, ip
1000b098:	b5e0      	push	{r5, r6, r7, lr}
1000b09a:	6013      	str	r3, [r2, #0]
1000b09c:	4a31      	ldr	r2, [pc, #196]	; (1000b164 <spi_init+0xf0>)
1000b09e:	000d      	movs	r5, r1
1000b0a0:	4931      	ldr	r1, [pc, #196]	; (1000b168 <spi_init+0xf4>)
1000b0a2:	6013      	str	r3, [r2, #0]
1000b0a4:	0018      	movs	r0, r3
1000b0a6:	688a      	ldr	r2, [r1, #8]
1000b0a8:	4390      	bics	r0, r2
1000b0aa:	4681      	mov	r9, r0
1000b0ac:	d1fa      	bne.n	1000b0a4 <spi_init+0x30>
1000b0ae:	2006      	movs	r0, #6
1000b0b0:	f7fa fd90 	bl	10005bd4 <clock_get_hz>
1000b0b4:	4680      	mov	r8, r0
1000b0b6:	2080      	movs	r0, #128	; 0x80
1000b0b8:	2102      	movs	r1, #2
1000b0ba:	0def      	lsrs	r7, r5, #23
1000b0bc:	026e      	lsls	r6, r5, #9
1000b0be:	0dab      	lsrs	r3, r5, #22
1000b0c0:	02aa      	lsls	r2, r5, #10
1000b0c2:	0040      	lsls	r0, r0, #1
1000b0c4:	e005      	b.n	1000b0d2 <spi_init+0x5e>
1000b0c6:	4590      	cmp	r8, r2
1000b0c8:	d307      	bcc.n	1000b0da <spi_init+0x66>
1000b0ca:	1992      	adds	r2, r2, r6
1000b0cc:	417b      	adcs	r3, r7
1000b0ce:	4281      	cmp	r1, r0
1000b0d0:	d03f      	beq.n	1000b152 <spi_init+0xde>
1000b0d2:	000c      	movs	r4, r1
1000b0d4:	3102      	adds	r1, #2
1000b0d6:	2b00      	cmp	r3, #0
1000b0d8:	d0f5      	beq.n	1000b0c6 <spi_init+0x52>
1000b0da:	2680      	movs	r6, #128	; 0x80
1000b0dc:	0227      	lsls	r7, r4, #8
1000b0de:	1b3f      	subs	r7, r7, r4
1000b0e0:	0076      	lsls	r6, r6, #1
1000b0e2:	e002      	b.n	1000b0ea <spi_init+0x76>
1000b0e4:	1b3f      	subs	r7, r7, r4
1000b0e6:	2e01      	cmp	r6, #1
1000b0e8:	d035      	beq.n	1000b156 <spi_init+0xe2>
1000b0ea:	0039      	movs	r1, r7
1000b0ec:	4640      	mov	r0, r8
1000b0ee:	46b3      	mov	fp, r6
1000b0f0:	3e01      	subs	r6, #1
1000b0f2:	f7fc f98d 	bl	10007410 <__wrap___aeabi_uidiv>
1000b0f6:	4285      	cmp	r5, r0
1000b0f8:	d2f4      	bcs.n	1000b0e4 <spi_init+0x70>
1000b0fa:	4659      	mov	r1, fp
1000b0fc:	0233      	lsls	r3, r6, #8
1000b0fe:	4699      	mov	r9, r3
1000b100:	4361      	muls	r1, r4
1000b102:	4653      	mov	r3, sl
1000b104:	464a      	mov	r2, r9
1000b106:	611c      	str	r4, [r3, #16]
1000b108:	681b      	ldr	r3, [r3, #0]
1000b10a:	4650      	mov	r0, sl
1000b10c:	4053      	eors	r3, r2
1000b10e:	22ff      	movs	r2, #255	; 0xff
1000b110:	0212      	lsls	r2, r2, #8
1000b112:	4013      	ands	r3, r2
1000b114:	2280      	movs	r2, #128	; 0x80
1000b116:	0152      	lsls	r2, r2, #5
1000b118:	4302      	orrs	r2, r0
1000b11a:	6013      	str	r3, [r2, #0]
1000b11c:	6803      	ldr	r3, [r0, #0]
1000b11e:	2007      	movs	r0, #7
1000b120:	4058      	eors	r0, r3
1000b122:	23cf      	movs	r3, #207	; 0xcf
1000b124:	4003      	ands	r3, r0
1000b126:	6013      	str	r3, [r2, #0]
1000b128:	4652      	mov	r2, sl
1000b12a:	2380      	movs	r3, #128	; 0x80
1000b12c:	2003      	movs	r0, #3
1000b12e:	019b      	lsls	r3, r3, #6
1000b130:	3224      	adds	r2, #36	; 0x24
1000b132:	431a      	orrs	r2, r3
1000b134:	6010      	str	r0, [r2, #0]
1000b136:	4652      	mov	r2, sl
1000b138:	1d10      	adds	r0, r2, #4
1000b13a:	4318      	orrs	r0, r3
1000b13c:	2302      	movs	r3, #2
1000b13e:	6003      	str	r3, [r0, #0]
1000b140:	4640      	mov	r0, r8
1000b142:	f7fc f965 	bl	10007410 <__wrap___aeabi_uidiv>
1000b146:	bcf0      	pop	{r4, r5, r6, r7}
1000b148:	46bb      	mov	fp, r7
1000b14a:	46b2      	mov	sl, r6
1000b14c:	46a9      	mov	r9, r5
1000b14e:	46a0      	mov	r8, r4
1000b150:	bdf8      	pop	{r3, r4, r5, r6, r7, pc}
1000b152:	000c      	movs	r4, r1
1000b154:	e7c1      	b.n	1000b0da <spi_init+0x66>
1000b156:	0021      	movs	r1, r4
1000b158:	e7d3      	b.n	1000b102 <spi_init+0x8e>
1000b15a:	46c0      	nop			; (mov r8, r8)
1000b15c:	bffc4000 	.word	0xbffc4000
1000b160:	4000e000 	.word	0x4000e000
1000b164:	4000f000 	.word	0x4000f000
1000b168:	4000c000 	.word	0x4000c000

1000b16c <strlen>:
1000b16c:	b510      	push	{r4, lr}
1000b16e:	0783      	lsls	r3, r0, #30
1000b170:	d00a      	beq.n	1000b188 <strlen+0x1c>
1000b172:	0003      	movs	r3, r0
1000b174:	2103      	movs	r1, #3
1000b176:	e002      	b.n	1000b17e <strlen+0x12>
1000b178:	3301      	adds	r3, #1
1000b17a:	420b      	tst	r3, r1
1000b17c:	d005      	beq.n	1000b18a <strlen+0x1e>
1000b17e:	781a      	ldrb	r2, [r3, #0]
1000b180:	2a00      	cmp	r2, #0
1000b182:	d1f9      	bne.n	1000b178 <strlen+0xc>
1000b184:	1a18      	subs	r0, r3, r0
1000b186:	bd10      	pop	{r4, pc}
1000b188:	0003      	movs	r3, r0
1000b18a:	6819      	ldr	r1, [r3, #0]
1000b18c:	4a0c      	ldr	r2, [pc, #48]	; (1000b1c0 <strlen+0x54>)
1000b18e:	4c0d      	ldr	r4, [pc, #52]	; (1000b1c4 <strlen+0x58>)
1000b190:	188a      	adds	r2, r1, r2
1000b192:	438a      	bics	r2, r1
1000b194:	4222      	tst	r2, r4
1000b196:	d10f      	bne.n	1000b1b8 <strlen+0x4c>
1000b198:	6859      	ldr	r1, [r3, #4]
1000b19a:	4a09      	ldr	r2, [pc, #36]	; (1000b1c0 <strlen+0x54>)
1000b19c:	3304      	adds	r3, #4
1000b19e:	188a      	adds	r2, r1, r2
1000b1a0:	438a      	bics	r2, r1
1000b1a2:	4222      	tst	r2, r4
1000b1a4:	d108      	bne.n	1000b1b8 <strlen+0x4c>
1000b1a6:	6859      	ldr	r1, [r3, #4]
1000b1a8:	4a05      	ldr	r2, [pc, #20]	; (1000b1c0 <strlen+0x54>)
1000b1aa:	3304      	adds	r3, #4
1000b1ac:	188a      	adds	r2, r1, r2
1000b1ae:	438a      	bics	r2, r1
1000b1b0:	4222      	tst	r2, r4
1000b1b2:	d0f1      	beq.n	1000b198 <strlen+0x2c>
1000b1b4:	e000      	b.n	1000b1b8 <strlen+0x4c>
1000b1b6:	3301      	adds	r3, #1
1000b1b8:	781a      	ldrb	r2, [r3, #0]
1000b1ba:	2a00      	cmp	r2, #0
1000b1bc:	d1fb      	bne.n	1000b1b6 <strlen+0x4a>
1000b1be:	e7e1      	b.n	1000b184 <strlen+0x18>
1000b1c0:	fefefeff 	.word	0xfefefeff
1000b1c4:	80808080 	.word	0x80808080

1000b1c8 <_fini>:
1000b1c8:	b5f8      	push	{r3, r4, r5, r6, r7, lr}
1000b1ca:	46c0      	nop			; (mov r8, r8)
1000b1cc:	0000      	movs	r0, r0
	...

1000b1d0 <__flash_do_cmd_veneer>:
1000b1d0:	b401      	push	{r0}
1000b1d2:	4802      	ldr	r0, [pc, #8]	; (1000b1dc <__flash_do_cmd_veneer+0xc>)
1000b1d4:	4684      	mov	ip, r0
1000b1d6:	bc01      	pop	{r0}
1000b1d8:	4760      	bx	ip
1000b1da:	bf00      	nop
1000b1dc:	2000028d 	.word	0x2000028d

1000b1e0 <__mutex_exit_veneer>:
1000b1e0:	b401      	push	{r0}
1000b1e2:	4802      	ldr	r0, [pc, #8]	; (1000b1ec <__mutex_exit_veneer+0xc>)
1000b1e4:	4684      	mov	ip, r0
1000b1e6:	bc01      	pop	{r0}
1000b1e8:	4760      	bx	ip
1000b1ea:	bf00      	nop
1000b1ec:	200001ed 	.word	0x200001ed

1000b1f0 <____aeabi_ldiv0_veneer>:
1000b1f0:	b401      	push	{r0}
1000b1f2:	4802      	ldr	r0, [pc, #8]	; (1000b1fc <____aeabi_ldiv0_veneer+0xc>)
1000b1f4:	4684      	mov	ip, r0
1000b1f6:	bc01      	pop	{r0}
1000b1f8:	4760      	bx	ip
1000b1fa:	bf00      	nop
1000b1fc:	2000039d 	.word	0x2000039d

1000b200 <____aeabi_idiv0_veneer>:
1000b200:	b401      	push	{r0}
1000b202:	4802      	ldr	r0, [pc, #8]	; (1000b20c <____aeabi_idiv0_veneer+0xc>)
1000b204:	4684      	mov	ip, r0
1000b206:	bc01      	pop	{r0}
1000b208:	4760      	bx	ip
1000b20a:	bf00      	nop
1000b20c:	2000039d 	.word	0x2000039d

1000b210 <__mutex_try_enter_veneer>:
1000b210:	b401      	push	{r0}
1000b212:	4802      	ldr	r0, [pc, #8]	; (1000b21c <__mutex_try_enter_veneer+0xc>)
1000b214:	4684      	mov	ip, r0
1000b216:	bc01      	pop	{r0}
1000b218:	4760      	bx	ip
1000b21a:	bf00      	nop
1000b21c:	20000109 	.word	0x20000109

1000b220 <__mutex_enter_timeout_ms_veneer>:
1000b220:	b401      	push	{r0}
1000b222:	4802      	ldr	r0, [pc, #8]	; (1000b22c <__mutex_enter_timeout_ms_veneer+0xc>)
1000b224:	4684      	mov	ip, r0
1000b226:	bc01      	pop	{r0}
1000b228:	4760      	bx	ip
1000b22a:	bf00      	nop
1000b22c:	2000014d 	.word	0x2000014d

1000b230 <__spi_write_blocking_veneer>:
1000b230:	b401      	push	{r0}
1000b232:	4802      	ldr	r0, [pc, #8]	; (1000b23c <__spi_write_blocking_veneer+0xc>)
1000b234:	4684      	mov	ip, r0
1000b236:	bc01      	pop	{r0}
1000b238:	4760      	bx	ip
1000b23a:	bf00      	nop
1000b23c:	20000351 	.word	0x20000351

1000b240 <__mutex_enter_blocking_veneer>:
1000b240:	b401      	push	{r0}
1000b242:	4802      	ldr	r0, [pc, #8]	; (1000b24c <__mutex_enter_blocking_veneer+0xc>)
1000b244:	4684      	mov	ip, r0
1000b246:	bc01      	pop	{r0}
1000b248:	4760      	bx	ip
1000b24a:	bf00      	nop
1000b24c:	200000c1 	.word	0x200000c1

1000b250 <__memmove_veneer>:
1000b250:	b401      	push	{r0}
1000b252:	4802      	ldr	r0, [pc, #8]	; (1000b25c <__memmove_veneer+0xc>)
1000b254:	4684      	mov	ip, r0
1000b256:	bc01      	pop	{r0}
1000b258:	4760      	bx	ip
1000b25a:	bf00      	nop
1000b25c:	200003a1 	.word	0x200003a1

Disassembly of section .data:

200000c0 <mutex_enter_blocking>:
200000c0:	23d0      	movs	r3, #208	; 0xd0
200000c2:	b530      	push	{r4, r5, lr}
200000c4:	2500      	movs	r5, #0
200000c6:	061b      	lsls	r3, r3, #24
200000c8:	2400      	movs	r4, #0
200000ca:	575d      	ldrsb	r5, [r3, r5]
200000cc:	e006      	b.n	200000dc <mutex_enter_blocking+0x1c>
200000ce:	6803      	ldr	r3, [r0, #0]
200000d0:	f3bf 8f5f 	dmb	sy
200000d4:	601c      	str	r4, [r3, #0]
200000d6:	f381 8810 	msr	PRIMASK, r1
200000da:	bf20      	wfe
200000dc:	6802      	ldr	r2, [r0, #0]
200000de:	f3ef 8110 	mrs	r1, PRIMASK
200000e2:	b672      	cpsid	i
200000e4:	6813      	ldr	r3, [r2, #0]
200000e6:	2b00      	cmp	r3, #0
200000e8:	d0fc      	beq.n	200000e4 <mutex_enter_blocking+0x24>
200000ea:	f3bf 8f5f 	dmb	sy
200000ee:	7903      	ldrb	r3, [r0, #4]
200000f0:	2b7f      	cmp	r3, #127	; 0x7f
200000f2:	d9ec      	bls.n	200000ce <mutex_enter_blocking+0xe>
200000f4:	7105      	strb	r5, [r0, #4]
200000f6:	6803      	ldr	r3, [r0, #0]
200000f8:	f3bf 8f5f 	dmb	sy
200000fc:	2200      	movs	r2, #0
200000fe:	601a      	str	r2, [r3, #0]
20000100:	f381 8810 	msr	PRIMASK, r1
20000104:	bd30      	pop	{r4, r5, pc}
20000106:	46c0      	nop			; (mov r8, r8)

20000108 <mutex_try_enter>:
20000108:	0003      	movs	r3, r0
2000010a:	6800      	ldr	r0, [r0, #0]
2000010c:	f3ef 8c10 	mrs	ip, PRIMASK
20000110:	b672      	cpsid	i
20000112:	6802      	ldr	r2, [r0, #0]
20000114:	2a00      	cmp	r2, #0
20000116:	d0fc      	beq.n	20000112 <mutex_try_enter+0xa>
20000118:	f3bf 8f5f 	dmb	sy
2000011c:	2204      	movs	r2, #4
2000011e:	569a      	ldrsb	r2, [r3, r2]
20000120:	2a00      	cmp	r2, #0
20000122:	db0b      	blt.n	2000013c <mutex_try_enter+0x34>
20000124:	2900      	cmp	r1, #0
20000126:	d00f      	beq.n	20000148 <mutex_try_enter+0x40>
20000128:	2000      	movs	r0, #0
2000012a:	600a      	str	r2, [r1, #0]
2000012c:	681b      	ldr	r3, [r3, #0]
2000012e:	f3bf 8f5f 	dmb	sy
20000132:	2200      	movs	r2, #0
20000134:	601a      	str	r2, [r3, #0]
20000136:	f38c 8810 	msr	PRIMASK, ip
2000013a:	4770      	bx	lr
2000013c:	22d0      	movs	r2, #208	; 0xd0
2000013e:	0612      	lsls	r2, r2, #24
20000140:	6812      	ldr	r2, [r2, #0]
20000142:	2001      	movs	r0, #1
20000144:	711a      	strb	r2, [r3, #4]
20000146:	e7f1      	b.n	2000012c <mutex_try_enter+0x24>
20000148:	2000      	movs	r0, #0
2000014a:	e7ef      	b.n	2000012c <mutex_try_enter+0x24>

2000014c <mutex_enter_timeout_ms>:
2000014c:	b5f0      	push	{r4, r5, r6, r7, lr}
2000014e:	46c6      	mov	lr, r8
20000150:	b500      	push	{lr}
20000152:	b082      	sub	sp, #8
20000154:	000c      	movs	r4, r1
20000156:	0007      	movs	r7, r0
20000158:	f000 f982 	bl	20000460 <__time_us_64_veneer>
2000015c:	22fa      	movs	r2, #250	; 0xfa
2000015e:	2300      	movs	r3, #0
20000160:	9000      	str	r0, [sp, #0]
20000162:	9101      	str	r1, [sp, #4]
20000164:	0020      	movs	r0, r4
20000166:	0092      	lsls	r2, r2, #2
20000168:	2100      	movs	r1, #0
2000016a:	f000 f981 	bl	20000470 <____wrap___aeabi_lmul_veneer>
2000016e:	9a00      	ldr	r2, [sp, #0]
20000170:	9b01      	ldr	r3, [sp, #4]
20000172:	0014      	movs	r4, r2
20000174:	001d      	movs	r5, r3
20000176:	1824      	adds	r4, r4, r0
20000178:	414d      	adcs	r5, r1
2000017a:	42ab      	cmp	r3, r5
2000017c:	d82f      	bhi.n	200001de <mutex_enter_timeout_ms+0x92>
2000017e:	d02b      	beq.n	200001d8 <mutex_enter_timeout_ms+0x8c>
20000180:	23d0      	movs	r3, #208	; 0xd0
20000182:	061b      	lsls	r3, r3, #24
20000184:	681b      	ldr	r3, [r3, #0]
20000186:	2600      	movs	r6, #0
20000188:	4698      	mov	r8, r3
2000018a:	e00b      	b.n	200001a4 <mutex_enter_timeout_ms+0x58>
2000018c:	683b      	ldr	r3, [r7, #0]
2000018e:	f3bf 8f5f 	dmb	sy
20000192:	601e      	str	r6, [r3, #0]
20000194:	f381 8810 	msr	PRIMASK, r1
20000198:	0020      	movs	r0, r4
2000019a:	0029      	movs	r1, r5
2000019c:	f000 f958 	bl	20000450 <__best_effort_wfe_or_timeout_veneer>
200001a0:	2800      	cmp	r0, #0
200001a2:	d120      	bne.n	200001e6 <mutex_enter_timeout_ms+0x9a>
200001a4:	683a      	ldr	r2, [r7, #0]
200001a6:	f3ef 8110 	mrs	r1, PRIMASK
200001aa:	b672      	cpsid	i
200001ac:	6813      	ldr	r3, [r2, #0]
200001ae:	2b00      	cmp	r3, #0
200001b0:	d0fc      	beq.n	200001ac <mutex_enter_timeout_ms+0x60>
200001b2:	f3bf 8f5f 	dmb	sy
200001b6:	793b      	ldrb	r3, [r7, #4]
200001b8:	2b7f      	cmp	r3, #127	; 0x7f
200001ba:	d9e7      	bls.n	2000018c <mutex_enter_timeout_ms+0x40>
200001bc:	4643      	mov	r3, r8
200001be:	713b      	strb	r3, [r7, #4]
200001c0:	683b      	ldr	r3, [r7, #0]
200001c2:	f3bf 8f5f 	dmb	sy
200001c6:	2200      	movs	r2, #0
200001c8:	601a      	str	r2, [r3, #0]
200001ca:	f381 8810 	msr	PRIMASK, r1
200001ce:	2001      	movs	r0, #1
200001d0:	b002      	add	sp, #8
200001d2:	bc80      	pop	{r7}
200001d4:	46b8      	mov	r8, r7
200001d6:	bdf0      	pop	{r4, r5, r6, r7, pc}
200001d8:	9b00      	ldr	r3, [sp, #0]
200001da:	42a3      	cmp	r3, r4
200001dc:	d9d0      	bls.n	20000180 <mutex_enter_timeout_ms+0x34>
200001de:	2401      	movs	r4, #1
200001e0:	4264      	negs	r4, r4
200001e2:	17e5      	asrs	r5, r4, #31
200001e4:	e7cc      	b.n	20000180 <mutex_enter_timeout_ms+0x34>
200001e6:	2000      	movs	r0, #0
200001e8:	e7f2      	b.n	200001d0 <mutex_enter_timeout_ms+0x84>
200001ea:	46c0      	nop			; (mov r8, r8)

200001ec <mutex_exit>:
200001ec:	6802      	ldr	r2, [r0, #0]
200001ee:	f3ef 8110 	mrs	r1, PRIMASK
200001f2:	b672      	cpsid	i
200001f4:	6813      	ldr	r3, [r2, #0]
200001f6:	2b00      	cmp	r3, #0
200001f8:	d0fc      	beq.n	200001f4 <mutex_exit+0x8>
200001fa:	f3bf 8f5f 	dmb	sy
200001fe:	23ff      	movs	r3, #255	; 0xff
20000200:	7103      	strb	r3, [r0, #4]
20000202:	6803      	ldr	r3, [r0, #0]
20000204:	f3bf 8f5f 	dmb	sy
20000208:	2200      	movs	r2, #0
2000020a:	601a      	str	r2, [r3, #0]
2000020c:	f381 8810 	msr	PRIMASK, r1
20000210:	bf40      	sev
20000212:	4770      	bx	lr

20000214 <flash_init_boot2_copyout>:
20000214:	4808      	ldr	r0, [pc, #32]	; (20000238 <flash_init_boot2_copyout+0x24>)
20000216:	b510      	push	{r4, lr}
20000218:	7803      	ldrb	r3, [r0, #0]
2000021a:	2b00      	cmp	r3, #0
2000021c:	d10a      	bne.n	20000234 <flash_init_boot2_copyout+0x20>
2000021e:	2380      	movs	r3, #128	; 0x80
20000220:	4906      	ldr	r1, [pc, #24]	; (2000023c <flash_init_boot2_copyout+0x28>)
20000222:	4a07      	ldr	r2, [pc, #28]	; (20000240 <flash_init_boot2_copyout+0x2c>)
20000224:	055b      	lsls	r3, r3, #21
20000226:	681c      	ldr	r4, [r3, #0]
20000228:	50cc      	str	r4, [r1, r3]
2000022a:	3304      	adds	r3, #4
2000022c:	4293      	cmp	r3, r2
2000022e:	d1fa      	bne.n	20000226 <flash_init_boot2_copyout+0x12>
20000230:	2301      	movs	r3, #1
20000232:	7003      	strb	r3, [r0, #0]
20000234:	bd10      	pop	{r4, pc}
20000236:	46c0      	nop			; (mov r8, r8)
20000238:	20026b8c 	.word	0x20026b8c
2000023c:	1002652c 	.word	0x1002652c
20000240:	10000100 	.word	0x10000100

20000244 <flash_enable_xip_via_boot2>:
20000244:	b510      	push	{r4, lr}
20000246:	4b02      	ldr	r3, [pc, #8]	; (20000250 <flash_enable_xip_via_boot2+0xc>)
20000248:	3301      	adds	r3, #1
2000024a:	4798      	blx	r3
2000024c:	bd10      	pop	{r4, pc}
2000024e:	46c0      	nop			; (mov r8, r8)
20000250:	2002652c 	.word	0x2002652c

20000254 <flash_cs_force.constprop.0>:
20000254:	4b03      	ldr	r3, [pc, #12]	; (20000264 <flash_cs_force.constprop.0+0x10>)
20000256:	681a      	ldr	r2, [r3, #0]
20000258:	23c0      	movs	r3, #192	; 0xc0
2000025a:	009b      	lsls	r3, r3, #2
2000025c:	4393      	bics	r3, r2
2000025e:	4a02      	ldr	r2, [pc, #8]	; (20000268 <flash_cs_force.constprop.0+0x14>)
20000260:	6013      	str	r3, [r2, #0]
20000262:	4770      	bx	lr
20000264:	4001800c 	.word	0x4001800c
20000268:	4001900c 	.word	0x4001900c

2000026c <flash_cs_force.constprop.1>:
2000026c:	4b05      	ldr	r3, [pc, #20]	; (20000284 <flash_cs_force.constprop.1+0x18>)
2000026e:	681a      	ldr	r2, [r3, #0]
20000270:	2380      	movs	r3, #128	; 0x80
20000272:	009b      	lsls	r3, r3, #2
20000274:	4053      	eors	r3, r2
20000276:	22c0      	movs	r2, #192	; 0xc0
20000278:	0092      	lsls	r2, r2, #2
2000027a:	4013      	ands	r3, r2
2000027c:	4a02      	ldr	r2, [pc, #8]	; (20000288 <flash_cs_force.constprop.1+0x1c>)
2000027e:	6013      	str	r3, [r2, #0]
20000280:	4770      	bx	lr
20000282:	46c0      	nop			; (mov r8, r8)
20000284:	4001800c 	.word	0x4001800c
20000288:	4001900c 	.word	0x4001900c

2000028c <flash_do_cmd>:
2000028c:	2314      	movs	r3, #20
2000028e:	b5f0      	push	{r4, r5, r6, r7, lr}
20000290:	46d6      	mov	lr, sl
20000292:	464f      	mov	r7, r9
20000294:	4646      	mov	r6, r8
20000296:	469a      	mov	sl, r3
20000298:	4681      	mov	r9, r0
2000029a:	8818      	ldrh	r0, [r3, #0]
2000029c:	3304      	adds	r3, #4
2000029e:	b5c0      	push	{r6, r7, lr}
200002a0:	4698      	mov	r8, r3
200002a2:	000e      	movs	r6, r1
200002a4:	881b      	ldrh	r3, [r3, #0]
200002a6:	4927      	ldr	r1, [pc, #156]	; (20000344 <flash_do_cmd+0xb8>)
200002a8:	0014      	movs	r4, r2
200002aa:	4798      	blx	r3
200002ac:	4653      	mov	r3, sl
200002ae:	0007      	movs	r7, r0
200002b0:	8818      	ldrh	r0, [r3, #0]
200002b2:	4643      	mov	r3, r8
200002b4:	4924      	ldr	r1, [pc, #144]	; (20000348 <flash_do_cmd+0xbc>)
200002b6:	881b      	ldrh	r3, [r3, #0]
200002b8:	4798      	blx	r3
200002ba:	4653      	mov	r3, sl
200002bc:	0005      	movs	r5, r0
200002be:	8818      	ldrh	r0, [r3, #0]
200002c0:	4643      	mov	r3, r8
200002c2:	4922      	ldr	r1, [pc, #136]	; (2000034c <flash_do_cmd+0xc0>)
200002c4:	881b      	ldrh	r3, [r3, #0]
200002c6:	4798      	blx	r3
200002c8:	4680      	mov	r8, r0
200002ca:	f7ff ffa3 	bl	20000214 <flash_init_boot2_copyout>
200002ce:	47b8      	blx	r7
200002d0:	47a8      	blx	r5
200002d2:	f7ff ffcb 	bl	2000026c <flash_cs_force.constprop.1>
200002d6:	2c00      	cmp	r4, #0
200002d8:	d01b      	beq.n	20000312 <flash_do_cmd+0x86>
200002da:	21c0      	movs	r1, #192	; 0xc0
200002dc:	0022      	movs	r2, r4
200002de:	2708      	movs	r7, #8
200002e0:	2002      	movs	r0, #2
200002e2:	0549      	lsls	r1, r1, #21
200002e4:	003d      	movs	r5, r7
200002e6:	6a8b      	ldr	r3, [r1, #40]	; 0x28
200002e8:	401d      	ands	r5, r3
200002ea:	4218      	tst	r0, r3
200002ec:	d00b      	beq.n	20000306 <flash_do_cmd+0x7a>
200002ee:	2c00      	cmp	r4, #0
200002f0:	d009      	beq.n	20000306 <flash_do_cmd+0x7a>
200002f2:	1b13      	subs	r3, r2, r4
200002f4:	2b0d      	cmp	r3, #13
200002f6:	d81f      	bhi.n	20000338 <flash_do_cmd+0xac>
200002f8:	464b      	mov	r3, r9
200002fa:	781b      	ldrb	r3, [r3, #0]
200002fc:	3c01      	subs	r4, #1
200002fe:	660b      	str	r3, [r1, #96]	; 0x60
20000300:	2301      	movs	r3, #1
20000302:	469c      	mov	ip, r3
20000304:	44e1      	add	r9, ip
20000306:	0023      	movs	r3, r4
20000308:	2d00      	cmp	r5, #0
2000030a:	d10c      	bne.n	20000326 <flash_do_cmd+0x9a>
2000030c:	4313      	orrs	r3, r2
2000030e:	2b00      	cmp	r3, #0
20000310:	d1e8      	bne.n	200002e4 <flash_do_cmd+0x58>
20000312:	f7ff ff9f 	bl	20000254 <flash_cs_force.constprop.0>
20000316:	47c0      	blx	r8
20000318:	f7ff ff94 	bl	20000244 <flash_enable_xip_via_boot2>
2000031c:	bce0      	pop	{r5, r6, r7}
2000031e:	46ba      	mov	sl, r7
20000320:	46b1      	mov	r9, r6
20000322:	46a8      	mov	r8, r5
20000324:	bdf0      	pop	{r4, r5, r6, r7, pc}
20000326:	2a00      	cmp	r2, #0
20000328:	d0f1      	beq.n	2000030e <flash_do_cmd+0x82>
2000032a:	6e0b      	ldr	r3, [r1, #96]	; 0x60
2000032c:	3a01      	subs	r2, #1
2000032e:	7033      	strb	r3, [r6, #0]
20000330:	0013      	movs	r3, r2
20000332:	3601      	adds	r6, #1
20000334:	4323      	orrs	r3, r4
20000336:	e7ea      	b.n	2000030e <flash_do_cmd+0x82>
20000338:	2d00      	cmp	r5, #0
2000033a:	d0d3      	beq.n	200002e4 <flash_do_cmd+0x58>
2000033c:	2a00      	cmp	r2, #0
2000033e:	d0d1      	beq.n	200002e4 <flash_do_cmd+0x58>
20000340:	e7f3      	b.n	2000032a <flash_do_cmd+0x9e>
20000342:	46c0      	nop			; (mov r8, r8)
20000344:	00004649 	.word	0x00004649
20000348:	00005845 	.word	0x00005845
2000034c:	00004346 	.word	0x00004346

20000350 <spi_write_blocking>:
20000350:	b530      	push	{r4, r5, lr}
20000352:	0004      	movs	r4, r0
20000354:	1e10      	subs	r0, r2, #0
20000356:	d00a      	beq.n	2000036e <spi_write_blocking+0x1e>
20000358:	000a      	movs	r2, r1
2000035a:	180d      	adds	r5, r1, r0
2000035c:	2102      	movs	r1, #2
2000035e:	68e3      	ldr	r3, [r4, #12]
20000360:	4219      	tst	r1, r3
20000362:	d0fc      	beq.n	2000035e <spi_write_blocking+0xe>
20000364:	7813      	ldrb	r3, [r2, #0]
20000366:	3201      	adds	r2, #1
20000368:	60a3      	str	r3, [r4, #8]
2000036a:	4295      	cmp	r5, r2
2000036c:	d1f7      	bne.n	2000035e <spi_write_blocking+0xe>
2000036e:	68e3      	ldr	r3, [r4, #12]
20000370:	075b      	lsls	r3, r3, #29
20000372:	d504      	bpl.n	2000037e <spi_write_blocking+0x2e>
20000374:	2104      	movs	r1, #4
20000376:	68a3      	ldr	r3, [r4, #8]
20000378:	68e3      	ldr	r3, [r4, #12]
2000037a:	4219      	tst	r1, r3
2000037c:	d1fb      	bne.n	20000376 <spi_write_blocking+0x26>
2000037e:	2110      	movs	r1, #16
20000380:	68e3      	ldr	r3, [r4, #12]
20000382:	4219      	tst	r1, r3
20000384:	d1fc      	bne.n	20000380 <spi_write_blocking+0x30>
20000386:	68e3      	ldr	r3, [r4, #12]
20000388:	075b      	lsls	r3, r3, #29
2000038a:	d504      	bpl.n	20000396 <spi_write_blocking+0x46>
2000038c:	2104      	movs	r1, #4
2000038e:	68a3      	ldr	r3, [r4, #8]
20000390:	68e3      	ldr	r3, [r4, #12]
20000392:	4219      	tst	r1, r3
20000394:	d1fb      	bne.n	2000038e <spi_write_blocking+0x3e>
20000396:	2301      	movs	r3, #1
20000398:	6223      	str	r3, [r4, #32]
2000039a:	bd30      	pop	{r4, r5, pc}

2000039c <__aeabi_idiv0>:
2000039c:	4770      	bx	lr
2000039e:	46c0      	nop			; (mov r8, r8)

200003a0 <memmove>:
200003a0:	b5f0      	push	{r4, r5, r6, r7, lr}
200003a2:	4288      	cmp	r0, r1
200003a4:	d90a      	bls.n	200003bc <memmove+0x1c>
200003a6:	188b      	adds	r3, r1, r2
200003a8:	4298      	cmp	r0, r3
200003aa:	d207      	bcs.n	200003bc <memmove+0x1c>
200003ac:	1e53      	subs	r3, r2, #1
200003ae:	2a00      	cmp	r2, #0
200003b0:	d003      	beq.n	200003ba <memmove+0x1a>
200003b2:	5cca      	ldrb	r2, [r1, r3]
200003b4:	54c2      	strb	r2, [r0, r3]
200003b6:	3b01      	subs	r3, #1
200003b8:	d2fb      	bcs.n	200003b2 <memmove+0x12>
200003ba:	bdf0      	pop	{r4, r5, r6, r7, pc}
200003bc:	2a0f      	cmp	r2, #15
200003be:	d80b      	bhi.n	200003d8 <memmove+0x38>
200003c0:	0005      	movs	r5, r0
200003c2:	1e56      	subs	r6, r2, #1
200003c4:	2a00      	cmp	r2, #0
200003c6:	d0f8      	beq.n	200003ba <memmove+0x1a>
200003c8:	2300      	movs	r3, #0
200003ca:	5ccc      	ldrb	r4, [r1, r3]
200003cc:	001a      	movs	r2, r3
200003ce:	54ec      	strb	r4, [r5, r3]
200003d0:	3301      	adds	r3, #1
200003d2:	4296      	cmp	r6, r2
200003d4:	d1f9      	bne.n	200003ca <memmove+0x2a>
200003d6:	e7f0      	b.n	200003ba <memmove+0x1a>
200003d8:	2703      	movs	r7, #3
200003da:	000d      	movs	r5, r1
200003dc:	003e      	movs	r6, r7
200003de:	4305      	orrs	r5, r0
200003e0:	000c      	movs	r4, r1
200003e2:	0003      	movs	r3, r0
200003e4:	402e      	ands	r6, r5
200003e6:	422f      	tst	r7, r5
200003e8:	d12b      	bne.n	20000442 <memmove+0xa2>
200003ea:	0015      	movs	r5, r2
200003ec:	3d10      	subs	r5, #16
200003ee:	092d      	lsrs	r5, r5, #4
200003f0:	46ac      	mov	ip, r5
200003f2:	012f      	lsls	r7, r5, #4
200003f4:	183f      	adds	r7, r7, r0
200003f6:	6825      	ldr	r5, [r4, #0]
200003f8:	601d      	str	r5, [r3, #0]
200003fa:	6865      	ldr	r5, [r4, #4]
200003fc:	605d      	str	r5, [r3, #4]
200003fe:	68a5      	ldr	r5, [r4, #8]
20000400:	609d      	str	r5, [r3, #8]
20000402:	68e5      	ldr	r5, [r4, #12]
20000404:	3410      	adds	r4, #16
20000406:	60dd      	str	r5, [r3, #12]
20000408:	001d      	movs	r5, r3
2000040a:	3310      	adds	r3, #16
2000040c:	42bd      	cmp	r5, r7
2000040e:	d1f2      	bne.n	200003f6 <memmove+0x56>
20000410:	4665      	mov	r5, ip
20000412:	230f      	movs	r3, #15
20000414:	240c      	movs	r4, #12
20000416:	3501      	adds	r5, #1
20000418:	012d      	lsls	r5, r5, #4
2000041a:	1949      	adds	r1, r1, r5
2000041c:	4013      	ands	r3, r2
2000041e:	1945      	adds	r5, r0, r5
20000420:	4214      	tst	r4, r2
20000422:	d011      	beq.n	20000448 <memmove+0xa8>
20000424:	598c      	ldr	r4, [r1, r6]
20000426:	51ac      	str	r4, [r5, r6]
20000428:	3604      	adds	r6, #4
2000042a:	1b9c      	subs	r4, r3, r6
2000042c:	2c03      	cmp	r4, #3
2000042e:	d8f9      	bhi.n	20000424 <memmove+0x84>
20000430:	3b04      	subs	r3, #4
20000432:	089b      	lsrs	r3, r3, #2
20000434:	3301      	adds	r3, #1
20000436:	009b      	lsls	r3, r3, #2
20000438:	18ed      	adds	r5, r5, r3
2000043a:	18c9      	adds	r1, r1, r3
2000043c:	2303      	movs	r3, #3
2000043e:	401a      	ands	r2, r3
20000440:	e7bf      	b.n	200003c2 <memmove+0x22>
20000442:	0005      	movs	r5, r0
20000444:	1e56      	subs	r6, r2, #1
20000446:	e7bf      	b.n	200003c8 <memmove+0x28>
20000448:	001a      	movs	r2, r3
2000044a:	e7ba      	b.n	200003c2 <memmove+0x22>
2000044c:	0000      	movs	r0, r0
	...

20000450 <__best_effort_wfe_or_timeout_veneer>:
20000450:	b401      	push	{r0}
20000452:	4802      	ldr	r0, [pc, #8]	; (2000045c <__best_effort_wfe_or_timeout_veneer+0xc>)
20000454:	4684      	mov	ip, r0
20000456:	bc01      	pop	{r0}
20000458:	4760      	bx	ip
2000045a:	bf00      	nop
2000045c:	10004f91 	.word	0x10004f91

20000460 <__time_us_64_veneer>:
20000460:	b401      	push	{r0}
20000462:	4802      	ldr	r0, [pc, #8]	; (2000046c <__time_us_64_veneer+0xc>)
20000464:	4684      	mov	ip, r0
20000466:	bc01      	pop	{r0}
20000468:	4760      	bx	ip
2000046a:	bf00      	nop
2000046c:	10005135 	.word	0x10005135

20000470 <____wrap___aeabi_lmul_veneer>:
20000470:	b401      	push	{r0}
20000472:	4802      	ldr	r0, [pc, #8]	; (2000047c <____wrap___aeabi_lmul_veneer+0xc>)
20000474:	4684      	mov	ip, r0
20000476:	bc01      	pop	{r0}
20000478:	4760      	bx	ip
2000047a:	bf00      	nop
2000047c:	100080d1 	.word	0x100080d1

20000480 <list>:
20000480:	03020100                                ....

20000484 <NUM_SCREENS>:
20000484:	00000004 ffffffff                       ........

2000048c <Y1>:
2000048c:	000000cd                                ....

20000490 <Y2>:
20000490:	000000cd                                ....

20000494 <NavigationInfo>:
20000494:	100127d0 100127f0 10012810 10012830     .'...'...(..0(..
200004a4:	10012850 10012874                       P(..t(..

200004ac <striped_spin_lock_num>:
200004ac:	00000010                                ....

200004b0 <irq_handler_chain_slots>:
200004b0:	00000000 	.word	0x00000000
200004b4:	00010000 	.word	0x00010000
	...
200004c0:	00020000 	.word	0x00020000
	...
200004cc:	00030000 	.word	0x00030000
	...
200004d8:	00ff0000 	.word	0x00ff0000
200004dc:	00000000 	.word	0x00000000

200004e0 <irq_handler_chain_first_slot>:
200004e0:	b500      	push	{lr}
200004e2:	6848      	ldr	r0, [r1, #4]
200004e4:	3101      	adds	r1, #1
200004e6:	468e      	mov	lr, r1
200004e8:	4700      	bx	r0

200004ea <irq_handler_chain_remove_tail>:
200004ea:	4670      	mov	r0, lr
200004ec:	3809      	subs	r0, #9
200004ee:	4901      	ldr	r1, [pc, #4]	; (200004f4 <irq_handler_chain_remove_tail+0xa>)
200004f0:	4788      	blx	r1
200004f2:	bd00      	pop	{pc}
200004f4:	1000471d 	.word	0x1000471d

200004f8 <default_alarm_pool>:
200004f8:	20000510 00000000 200005a0 20026664     ... ....... df. 
	...

20000510 <default_alarm_pool_heap>:
20000510:	20026674 00000000 00000000 00000010     tf. ............

20000520 <aeabi_bits_funcs>:
20000520:	00003350 	.word	0x00003350
20000524:	0000334c 	.word	0x0000334c
20000528:	00003354 	.word	0x00003354
2000052c:	00003352 	.word	0x00003352

20000530 <aeabi_bits_funcs_end>:
20000530:	0000534d 	.word	0x0000534d
20000534:	0000434d 	.word	0x0000434d
20000538:	00003453 	.word	0x00003453
2000053c:	00003443 	.word	0x00003443

20000540 <stdio_usb>:
20000540:	100087f1 00000000 10008789 00000000     ................
20000550:	00000100                                ....

20000554 <ep_dir_string>:
20000554:	10012cfc 10012d00                       .,...-..

2000055c <_usbd_qdef>:
2000055c:	2002645c 000c0010 ffe00000 0000001f     \d. ............
	...

20000580 <print_mutex>:
	...

20000588 <__mutex_array_end>:
20000588:	100083ad 	.word	0x100083ad
2000058c:	1000734d 	.word	0x1000734d
20000590:	10007a81 	.word	0x10007a81
20000594:	10008299 	.word	0x10008299

20000598 <__frame_dummy_init_array_entry>:
20000598:	100002ed 1000ae45                       ....E...
